 PX Launcher

 Timestamp is 5c53b92c (Thu Jan 31 20:12:44 2019)

 Preferred load address is 00400000

 Start         Length     Name                   Class
 0001:00000000 00001740H .text$di                CODE
 0001:00001740 0017d5b0H .text$mn                CODE
 0001:0017ecf0 000037c0H .text$x                 CODE
 0001:001824b0 00001254H .text$yd                CODE
 0002:00000000 000003ccH .idata$5                DATA
 0002:000003cc 00000004H .00cfg                  DATA
 0002:000003d0 00000004H .CRT$XCA                DATA
 0002:000003d4 00000004H .CRT$XCAA               DATA
 0002:000003d8 00000014H .CRT$XCC                DATA
 0002:000003ec 00000014H .CRT$XCL                DATA
 0002:00000400 000000c8H .CRT$XCU                DATA
 0002:000004c8 00000004H .CRT$XCZ                DATA
 0002:000004cc 00000004H .CRT$XIA                DATA
 0002:000004d0 00000004H .CRT$XIAA               DATA
 0002:000004d4 00000004H .CRT$XIAC               DATA
 0002:000004d8 0000001cH .CRT$XIC                DATA
 0002:000004f4 00000004H .CRT$XIZ                DATA
 0002:000004f8 00000004H .CRT$XLA                DATA
 0002:000004fc 00000004H .CRT$XLZ                DATA
 0002:00000500 00000004H .CRT$XPA                DATA
 0002:00000504 00000004H .CRT$XPB                DATA
 0002:00000508 00000008H .CRT$XPX                DATA
 0002:00000510 00000004H .CRT$XPXA               DATA
 0002:00000514 00000004H .CRT$XPZ                DATA
 0002:00000518 00000004H .CRT$XTA                DATA
 0002:0000051c 00000004H .CRT$XTZ                DATA
 0002:00000520 00000000H .gfids$y                DATA
 0002:00000520 0006c5e4H .rdata                  DATA
 0002:0006cb04 0000001cH .rdata$T                DATA
 0002:0006cb20 00003a10H .rdata$r                DATA
 0002:00070530 00000324H .rdata$sxdata           DATA
 0002:00070854 0000043cH .rdata$zzzdbg           DATA
 0002:00070c90 00000004H .rtc$IAA                DATA
 0002:00070c94 00000004H .rtc$IZZ                DATA
 0002:00070c98 00000004H .rtc$TAA                DATA
 0002:00070c9c 00000004H .rtc$TZZ                DATA
 0002:00070ca0 00000004H .tls                    DATA
 0002:00070ca4 00000004H .tls$                   DATA
 0002:00070ca8 00000008H .tls$ZZZ                DATA
 0002:00070cb0 000048acH .xdata$x                DATA
 0002:0007555c 00000000H .edata                  DATA
 0002:0007555c 000000c8H .idata$2                DATA
 0002:00075624 00000014H .idata$3                DATA
 0002:00075638 000003ccH .idata$4                DATA
 0002:00075a04 00000eccH .idata$6                DATA
 0003:00000000 00008978H .data                   DATA
 0003:00008978 00002708H .data$r                 DATA
 0003:0000b080 0000558cH .bss                    DATA
 0004:00000000 000001e0H .rsrc$01                DATA
 0004:000001e0 00022030H .rsrc$02                DATA

  Address         Publics by Value              Rva+Base       Lib:Object

 0000:00000000       ___guard_longjmp_table     00000000     <absolute>
 0000:00000000       __except_list              00000000     <absolute>
 0000:00000000       ___hybrid_code_map         00000000     <absolute>
 0000:00000000       ___hybrid_auxiliary_iat    00000000     <absolute>
 0000:00000000       ___volatile_metadata       00000000     <absolute>
 0000:00000000       ___AbsoluteZero            00000000     <absolute>
 0000:00000000       ___guard_longjmp_count     00000000     <absolute>
 0000:00000000       ___dynamic_value_reloc_table 00000000     <absolute>
 0000:00000000       ___enclave_config          00000000     <absolute>
 0000:00000000       ___hybrid_code_map_count   00000000     <absolute>
 0000:00000000       ___guard_fids_table        00000000     <absolute>
 0000:00000000       ___guard_fids_count        00000000     <absolute>
 0000:00000000       ___guard_iat_table         00000000     <absolute>
 0000:00000000       ___guard_iat_count         00000000     <absolute>
 0000:0000002c       __tls_array                0000002c     <absolute>
 0000:000000c9       ___safe_se_handler_count   000000c9     <absolute>
 0000:00000100       ___guard_flags             00000100     <absolute>
 0000:00000000       ___ImageBase               00400000     <linker-defined>
 0001:00001740       _wWinMain@16               00402740 f   PX Launcher.obj
 0001:00001790       ?LoadManager@@YAXXZ        00402790 f   PX Launcher.obj
 0001:000019c0       ?OnLaunch@@YAXXZ           004029c0 f   PX Launcher.obj
 0001:00002d70       ??0?$AXorString@_WV?$AIndexList@$0A@$00$01$02$03$04$05$06$07$08$09$0L@$0M@$0N@$0O@$0P@$0BA@$0BB@$0BC@$0BD@$0BE@$0BF@$0BG@$0BH@$0BI@$0BJ@$0BK@$0BL@$0BM@$0BN@$0BO@$0BP@$0CA@$0CB@$0CC@$0CD@$0CE@$0CF@$0CG@$0CH@$0CI@$0CJ@$0CK@$0CL@$0CM@$0CN@$0CO@$0CP@$0DA@$0DB@$0DC@$0DD@$0DE@$0DF@$0DG@$0DH@$0DI@$0DJ@$0DK@$0DL@$0DM@$0DN@$0DO@$0DP@$0EA@$0EB@$0EC@$0ED@$0EE@$0EF@$0EG@$0EH@$0EI@$0EJ@$0EK@$0EL@$0EM@$0EN@$0EO@$0EP@$0FA@$0FB@$0FC@$0FD@$0FE@$0FF@$0FG@$0FH@$0FI@$0FJ@$0FK@$0FL@$0FM@$0FN@$0FO@$0FP@$0GA@$0GB@$0GC@$0GD@$0GE@$0GF@$0GG@$0GH@$0GI@$0GJ@$0GK@$0GL@$0GM@$0GN@$0GO@$0GP@$0HA@$0HB@$0HC@$0HD@$0HE@$0HF@$0HG@$0HH@$0HI@$0HJ@$0HK@$0HL@$0HM@$0HN@$0HO@$0HP@$0IA@$0IB@$0IC@$0ID@$0IE@$0IF@$0IG@$0IH@$0II@$0IJ@$0IK@$0IL@$0IM@$0IN@$0IO@$0IP@@XOR@PX@@@XOR@PX@@QAE@QB_W@Z 00403d70 f i PX Launcher.obj
 0001:00003000       ??0?$AXorString@_WV?$AIndexList@$0A@$00$01$02$03$04$05$06$07$08$09$0L@$0M@$0N@$0O@$0P@$0BA@$0BB@$0BC@$0BD@$0BE@$0BF@$0BG@$0BH@$0BI@$0BJ@$0BK@$0BL@$0BM@$0BN@$0BO@$0BP@$0CA@$0CB@$0CC@$0CD@$0CE@$0CF@$0CG@$0CH@$0CI@$0CJ@$0CK@$0CL@$0CM@$0CN@$0CO@$0CP@$0DA@$0DB@$0DC@$0DD@$0DE@$0DF@$0DG@$0DH@$0DI@$0DJ@$0DK@$0DL@$0DM@$0DN@$0DO@$0DP@$0EA@$0EB@$0EC@$0ED@$0EE@$0EF@$0EG@$0EH@$0EI@$0EJ@$0EK@$0EL@$0EM@$0EN@$0EO@$0EP@$0FA@$0FB@$0FC@$0FD@$0FE@$0FF@$0FG@$0FH@$0FI@$0FJ@$0FK@$0FL@$0FM@$0FN@$0FO@$0FP@$0GA@$0GB@$0GC@$0GD@$0GE@$0GF@$0GG@$0GH@$0GI@$0GJ@$0GK@$0GL@$0GM@$0GN@$0GO@$0GP@$0HA@$0HB@$0HC@$0HD@$0HE@$0HF@$0HG@$0HH@$0HI@$0HJ@$0HK@$0HL@$0HM@$0HN@$0HO@$0HP@$0IA@$0IB@$0IC@$0ID@$0IE@@XOR@PX@@@XOR@PX@@QAE@QB_W@Z 00404000 f i PX Launcher.obj
 0001:00003250       ??0?$AXorString@_WV?$AIndexList@$0A@$00$01$02$03$04$05$06$07$08$09$0L@$0M@$0N@$0O@$0P@$0BA@$0BB@$0BC@$0BD@$0BE@$0BF@$0BG@$0BH@$0BI@$0BJ@$0BK@$0BL@$0BM@$0BN@$0BO@$0BP@$0CA@$0CB@$0CC@$0CD@$0CE@$0CF@$0CG@$0CH@$0CI@$0CJ@$0CK@$0CL@$0CM@$0CN@$0CO@$0CP@$0DA@$0DB@$0DC@$0DD@$0DE@$0DF@$0DG@$0DH@$0DI@$0DJ@$0DK@$0DL@$0DM@$0DN@$0DO@$0DP@$0EA@$0EB@$0EC@$0ED@$0EE@$0EF@$0EG@$0EH@$0EI@$0EJ@$0EK@$0EL@$0EM@$0EN@$0EO@$0EP@$0FA@$0FB@$0FC@$0FD@$0FE@$0FF@$0FG@$0FH@$0FI@$0FJ@$0FK@$0FL@$0FM@$0FN@$0FO@$0FP@$0GA@$0GB@$0GC@$0GD@$0GE@$0GF@$0GG@$0GH@$0GI@$0GJ@$0GK@$0GL@$0GM@$0GN@$0GO@$0GP@$0HA@@XOR@PX@@@XOR@PX@@QAE@QB_W@Z 00404250 f i PX Launcher.obj
 0001:00003440       ??0?$AXorString@_WV?$AIndexList@$0A@$00$01$02$03$04$05$06$07$08$09$0L@$0M@$0N@$0O@$0P@$0BA@$0BB@$0BC@$0BD@$0BE@$0BF@$0BG@$0BH@$0BI@$0BJ@$0BK@$0BL@$0BM@$0BN@$0BO@$0BP@$0CA@$0CB@$0CC@$0CD@$0CE@$0CF@$0CG@$0CH@$0CI@$0CJ@$0CK@$0CL@$0CM@$0CN@$0CO@$0CP@$0DA@$0DB@$0DC@$0DD@$0DE@$0DF@$0DG@$0DH@$0DI@$0DJ@$0DK@$0DL@$0DM@$0DN@$0DO@$0DP@$0EA@$0EB@$0EC@$0ED@$0EE@$0EF@$0EG@$0EH@$0EI@$0EJ@$0EK@$0EL@$0EM@$0EN@$0EO@$0EP@$0FA@$0FB@$0FC@$0FD@$0FE@$0FF@$0FG@$0FH@$0FI@$0FJ@$0FK@$0FL@$0FM@$0FN@$0FO@$0FP@$0GA@$0GB@$0GC@$0GD@$0GE@$0GF@$0GG@$0GH@$0GI@$0GJ@$0GK@$0GL@$0GM@$0GN@$0GO@$0GP@$0HA@$0HB@$0HC@$0HD@$0HE@$0HF@$0HG@$0HH@$0HI@$0HJ@$0HK@$0HL@$0HM@$0HN@$0HO@$0HP@$0IA@$0IB@$0IC@$0ID@$0IE@$0IF@$0IG@$0IH@$0II@$0IJ@$0IK@$0IL@$0IM@$0IN@$0IO@$0IP@$0JA@$0JB@$0JC@$0JD@$0JE@$0JF@@XOR@PX@@@XOR@PX@@QAE@QB_W@Z 00404440 f i PX Launcher.obj
 0001:000036f0       ??0?$AXorString@_WV?$AIndexList@$0A@$00$01$02$03$04$05$06$07$08$09$0L@$0M@$0N@$0O@$0P@$0BA@$0BB@$0BC@$0BD@$0BE@$0BF@$0BG@$0BH@$0BI@$0BJ@$0BK@$0BL@$0BM@$0BN@$0BO@$0BP@$0CA@$0CB@$0CC@$0CD@$0CE@$0CF@$0CG@$0CH@$0CI@$0CJ@$0CK@$0CL@$0CM@$0CN@$0CO@$0CP@$0DA@$0DB@$0DC@$0DD@$0DE@$0DF@$0DG@$0DH@$0DI@$0DJ@$0DK@$0DL@$0DM@$0DN@$0DO@$0DP@$0EA@$0EB@$0EC@$0ED@$0EE@$0EF@$0EG@$0EH@$0EI@$0EJ@$0EK@$0EL@$0EM@$0EN@$0EO@$0EP@$0FA@$0FB@$0FC@$0FD@$0FE@$0FF@$0FG@$0FH@$0FI@$0FJ@$0FK@$0FL@$0FM@$0FN@$0FO@$0FP@$0GA@$0GB@$0GC@$0GD@$0GE@$0GF@$0GG@$0GH@$0GI@$0GJ@$0GK@$0GL@$0GM@$0GN@$0GO@$0GP@$0HA@$0HB@$0HC@$0HD@$0HE@$0HF@$0HG@$0HH@$0HI@$0HJ@$0HK@$0HL@$0HM@$0HN@$0HO@$0HP@$0IA@$0IB@$0IC@$0ID@$0IE@$0IF@$0IG@$0IH@$0II@$0IJ@$0IK@$0IL@$0IM@@XOR@PX@@@XOR@PX@@QAE@QB_W@Z 004046f0 f i PX Launcher.obj
 0001:00003960       ??0?$AXorString@_WV?$AIndexList@$0A@$00$01$02$03$04$05$06$07$08$09$0L@$0M@$0N@$0O@$0P@$0BA@$0BB@$0BC@$0BD@$0BE@$0BF@$0BG@$0BH@$0BI@$0BJ@$0BK@$0BL@$0BM@$0BN@$0BO@$0BP@$0CA@$0CB@$0CC@$0CD@$0CE@$0CF@$0CG@$0CH@$0CI@$0CJ@$0CK@$0CL@$0CM@$0CN@$0CO@$0CP@$0DA@$0DB@$0DC@$0DD@$0DE@$0DF@$0DG@$0DH@$0DI@$0DJ@$0DK@$0DL@$0DM@$0DN@$0DO@$0DP@$0EA@$0EB@$0EC@$0ED@$0EE@$0EF@$0EG@$0EH@$0EI@$0EJ@$0EK@$0EL@$0EM@$0EN@$0EO@$0EP@$0FA@$0FB@$0FC@$0FD@$0FE@$0FF@$0FG@$0FH@$0FI@$0FJ@$0FK@$0FL@$0FM@$0FN@$0FO@$0FP@$0GA@$0GB@$0GC@$0GD@$0GE@$0GF@$0GG@$0GH@$0GI@$0GJ@$0GK@$0GL@$0GM@$0GN@$0GO@$0GP@$0HA@$0HB@$0HC@$0HD@$0HE@$0HF@$0HG@$0HH@$0HI@$0HJ@$0HK@$0HL@$0HM@$0HN@$0HO@$0HP@$0IA@$0IB@$0IC@$0ID@$0IE@$0IF@$0IG@$0IH@$0II@$0IJ@$0IK@$0IL@$0IM@$0IN@$0IO@$0IP@$0JA@$0JB@$0JC@$0JD@$0JE@$0JF@$0JG@$0JH@$0JI@$0JJ@$0JK@$0JL@$0JM@$0JN@$0JO@$0JP@$0KA@$0KB@$0KC@$0KD@$0KE@$0KF@@XOR@PX@@@XOR@PX@@QAE@QB_W@Z 00404960 f i PX Launcher.obj
 0001:00004450       ?Decrypt@?$AXorString@_WV?$AIndexList@$0A@$00$01$02@XOR@PX@@@XOR@PX@@QAAPB_WXZ 00405450 f i PX Launcher.obj
 0001:00004470       ??0?$AXorString@_WV?$AIndexList@$0A@$00$01$02@XOR@PX@@@XOR@PX@@QAE@QB_W@Z 00405470 f i PX Launcher.obj
 0001:000044c0       ??0?$AXorString@_WV?$AIndexList@$0A@$00$01$02$03$04$05$06$07$08$09$0L@$0M@$0N@$0O@$0P@$0BA@$0BB@$0BC@$0BD@$0BE@$0BF@$0BG@$0BH@$0BI@$0BJ@$0BK@$0BL@$0BM@$0BN@$0BO@$0BP@$0CA@$0CB@$0CC@$0CD@$0CE@$0CF@$0CG@$0CH@$0CI@$0CJ@$0CK@$0CL@$0CM@$0CN@$0CO@$0CP@$0DA@$0DB@$0DC@$0DD@$0DE@$0DF@$0DG@$0DH@$0DI@$0DJ@$0DK@$0DL@$0DM@$0DN@$0DO@$0DP@$0EA@$0EB@$0EC@$0ED@$0EE@@XOR@PX@@@XOR@PX@@QAE@QB_W@Z 004054c0 f i PX Launcher.obj
 0001:000045d0       ??1?$deque@USPostData@Types@PX@@V?$allocator@USPostData@Types@PX@@@std@@@std@@QAE@XZ 004055d0 f i PX Launcher.obj
 0001:00004690       ??0?$basic_string@_WU?$char_traits@_W@std@@V?$allocator@_W@2@@std@@QAE@QB_W@Z 00405690 f i PX Launcher.obj
 0001:000046e0       ??1SPostData@Types@PX@@QAE@XZ 004056e0 f i PX Launcher.obj
 0001:00004770       ?append@?$basic_string@_WU?$char_traits@_W@std@@V?$allocator@_W@2@@std@@QAEAAV12@QB_WI@Z 00405770 f i PX Launcher.obj
 0001:00004900       ?_Xlen@?$basic_string@_WU?$char_traits@_W@std@@V?$allocator@_W@2@@std@@CAXXZ 00405900 f i PX Launcher.obj
 0001:00004900       ?_Xlen@?$basic_string@DU?$char_traits@D@std@@V?$allocator@D@2@@std@@SAXXZ 00405900 f i cryptlib:cryptlib.obj
 0001:00004900       ?_Xlen@?$basic_string@DU?$char_traits@D@std@@V?$allocator@D@2@@std@@CAXXZ 00405900 f i PX Launcher.obj
 0001:00004910       ?assign@?$basic_string@_WU?$char_traits@_W@std@@V?$allocator@_W@2@@std@@QAEAAV12@QB_WI@Z 00405910 f i PX Launcher.obj
 0001:00004a30       ?allocate@?$allocator@_W@std@@QAEPA_WI@Z 00405a30 f i PX Launcher.obj
 0001:00004aa0       ??1?$basic_string@_WU?$char_traits@_W@std@@V?$allocator@_W@2@@std@@QAE@XZ 00405aa0 f i PX Launcher.obj
 0001:00004b00       ??0?$basic_string@DU?$char_traits@D@std@@V?$allocator@D@2@@std@@QAE@QBD@Z 00405b00 f i PX Launcher.obj
 0001:00004b40       ?assign@?$basic_string@DU?$char_traits@D@std@@V?$allocator@D@2@@std@@QAEAAV12@QBDI@Z 00405b40 f i PX Launcher.obj
 0001:00004c80       ??0?$basic_string@DU?$char_traits@D@std@@V?$allocator@D@2@@std@@QAE@XZ 00405c80 f i PX Launcher.obj
 0001:00004ca0       ?_Tidy_deallocate@?$basic_string@DU?$char_traits@D@std@@V?$allocator@D@2@@std@@QAEXXZ 00405ca0 f i cryptlib:cryptlib.obj
 0001:00004ca0       ?_Tidy_deallocate@?$basic_string@DU?$char_traits@D@std@@V?$allocator@D@2@@std@@AAEXXZ 00405ca0 f i PX Launcher.obj
 0001:00004ca0       ??1?$basic_string@DU?$char_traits@D@std@@V?$allocator@D@2@@std@@QAE@XZ 00405ca0 f i PX Launcher.obj
 0001:00004cf0       ?Popup@Tools@PX@@YA_NW4EMBType@12@PB_W_N@Z 00405cf0 f   PX Framework:Tools.obj
 0001:00004fa0       ?GetMoment@Tools@PX@@YA_KXZ 00405fa0 f   PX Framework:Tools.obj
 0001:00004fd0       ?Decrypt@?$AXorString@DV?$AIndexList@$0A@$00$01$02$03@XOR@PX@@@XOR@PX@@QAAPBDXZ 00405fd0 f i PX Framework:Tools.obj
 0001:00004ff0       ??0?$AXorString@DV?$AIndexList@$0A@$00$01$02$03@XOR@PX@@@XOR@PX@@QAE@QBD@Z 00405ff0 f i PX Framework:Tools.obj
 0001:00005030       ?Decrypt@?$AXorString@_WV?$AIndexList@$0A@$00$01$02$03$04$05$06$07$08$09$0L@$0M@$0N@$0O@$0P@$0BA@$0BB@@XOR@PX@@@XOR@PX@@QAAPB_WXZ 00406030 f i PX Framework:Tools.obj
 0001:00005050       ??0?$AXorString@_WV?$AIndexList@$0A@$00$01$02$03$04$05$06$07$08$09$0L@$0M@$0N@$0O@$0P@$0BA@$0BB@@XOR@PX@@@XOR@PX@@QAE@QB_W@Z 00406050 f i PX Framework:Tools.obj
 0001:00005150       ??0?$AXorString@_WV?$AIndexList@$0A@$00$01$02$03$04$05$06$07$08$09$0L@$0M@$0N@$0O@$0P@$0BA@$0BB@$0BC@$0BD@$0BE@$0BF@$0BG@$0BH@$0BI@@XOR@PX@@@XOR@PX@@QAE@QB_W@Z 00406150 f i PX Framework:Tools.obj
 0001:000052b0       ??0?$AXorString@_WV?$AIndexList@$0A@$00$01$02$03$04$05$06$07$08$09$0L@$0M@$0N@$0O@$0P@$0BA@$0BB@$0BC@$0BD@$0BE@$0BF@$0BG@$0BH@$0BI@$0BJ@$0BK@$0BL@$0BM@$0BN@$0BO@@XOR@PX@@@XOR@PX@@QAE@QB_W@Z 004062b0 f i PX Framework:Tools.obj
 0001:00005460       ?Get@?$ASingleton@USWindowsAPI@sys@PX@@@Tools@PX@@SAAAUSWindowsAPI@sys@3@XZ 00406460 f i PX Framework:Tools.obj
 0001:000054f0       ??$string_cast@V?$basic_string@_WU?$char_traits@_W@std@@V?$allocator@_W@2@@std@@V?$basic_string@DU?$char_traits@D@std@@V?$allocator@D@2@@2@@Tools@PX@@YA?AV?$basic_string@_WU?$char_traits@_W@std@@V?$allocator@_W@2@@std@@ABV?$basic_string@DU?$char_traits@D@std@@V?$allocator@D@2@@3@@Z 004064f0 f i PX Framework:Tools.obj
 0001:000055b0       ??1?$_Tidy_deallocate_guard@V?$basic_string@_WU?$char_traits@_W@std@@V?$allocator@_W@2@@std@@@std@@QAE@XZ 004065b0 f i PX Framework:Tools.obj
 0001:00005610       ?push_back@?$basic_string@_WU?$char_traits@_W@std@@V?$allocator@_W@2@@std@@QAEX_W@Z 00406610 f i PX Framework:Tools.obj
 0001:00005740       ?reserve@?$basic_string@_WU?$char_traits@_W@std@@V?$allocator@_W@2@@std@@QAEXI@Z 00406740 f i PX Framework:Tools.obj
 0001:000058c0       ___local_stdio_printf_options 004068c0 f i PX Framework:Tools.obj
 0001:000058d0       _sprintf                   004068d0 f i PX Framework:Tools.obj
 0001:00005910       ??$_Reallocate_grow_by@V<lambda_c1b8c41cb4019640539cfd828748c4d4>@@ID@?$basic_string@DU?$char_traits@D@std@@V?$allocator@D@2@@std@@AAEAAV01@IV<lambda_c1b8c41cb4019640539cfd828748c4d4>@@ID@Z 00406910 f i PX Framework:Tools.obj
 0001:00005a70       ??$_Reallocate_grow_by@V<lambda_ab246b20b9526e2ef7792587e4298a77>@@PBDI@?$basic_string@DU?$char_traits@D@std@@V?$allocator@D@2@@std@@AAEAAV01@IV<lambda_ab246b20b9526e2ef7792587e4298a77>@@PBDI@Z 00406a70 f i PX Framework:Tools.obj
 0001:00005bd0       ?append@?$basic_string@DU?$char_traits@D@std@@V?$allocator@D@2@@std@@QAEAAV12@QBDI@Z 00406bd0 f i PX Framework:Tools.obj
 0001:00005c30       ?append@?$basic_string@DU?$char_traits@D@std@@V?$allocator@D@2@@std@@QAEAAV12@QBD@Z 00406c30 f i PX Framework:Tools.obj
 0001:00005ca0       ??$?HDU?$char_traits@D@std@@V?$allocator@D@1@@std@@YA?AV?$basic_string@DU?$char_traits@D@std@@V?$allocator@D@2@@0@$$QAV10@QBD@Z 00406ca0 f i PX Framework:Tools.obj
 0001:00005cf0       ?RetrieveInfo@sys@PX@@YA?AV?$basic_string@_WU?$char_traits@_W@std@@V?$allocator@_W@2@@std@@ABV_bstr_t@@PB_W@Z 00406cf0 f   PX Framework:System Management.obj
 0001:00006280       ?GetSystemInfo@sys@PX@@YA?AV?$basic_json@Vmap@std@@Vvector@2@V?$basic_string@DU?$char_traits@D@std@@V?$allocator@D@2@@2@_NHINVallocator@2@Uadl_serializer@nlohmann@@@nlohmann@@XZ 00407280 f   PX Framework:System Management.obj
 0001:000077c0       ??1?$basic_json@Vmap@std@@Vvector@2@V?$basic_string@DU?$char_traits@D@std@@V?$allocator@D@2@@2@_NHINVallocator@2@Uadl_serializer@nlohmann@@@nlohmann@@QAE@XZ 004087c0 f i PX Framework:System Management.obj
 0001:000077c0       ??1?$json_ref@V?$basic_json@Vmap@std@@Vvector@2@V?$basic_string@DU?$char_traits@D@std@@V?$allocator@D@2@@2@_NHINVallocator@2@Uadl_serializer@nlohmann@@@nlohmann@@@detail@nlohmann@@QAE@XZ 004087c0 f i PX Framework:System Management.obj
 0001:000077d0       ?AssembleExtensionInformation@sys@PX@@YA?AV?$basic_string@DU?$char_traits@D@std@@V?$allocator@D@2@@std@@V34@@Z 004087d0 f   PX Framework:System Management.obj
 0001:00008110       ??1?$array@V?$basic_string@DU?$char_traits@D@std@@V?$allocator@D@2@@std@@$07@std@@QAE@XZ 00409110 f i PX Framework:System Management.obj
 0001:00008150       ?EnsureElevation@sys@PX@@YA_NPAX@Z 00409150 f   PX Framework:System Management.obj
 0001:000082a0       ?GetProcessID@sys@PX@@YAKABV?$basic_string@_WU?$char_traits@_W@std@@V?$allocator@_W@2@@std@@@Z 004092a0 f   PX Framework:System Management.obj
 0001:00008390       ?LoadDLL@sys@PX@@YGKPAX@Z  00409390 f   PX Framework:System Management.obj
 0001:00008490       ?LoadRawLibrary@sys@PX@@YA_NABQAXPAUinjection_info_t@12@@Z 00409490 f   PX Framework:System Management.obj
 0001:000086d0       ?Decrypt@?$AXorString@DV?$AIndexList@$0A@$00$01$02$03$04$05$06$07$08$09$0L@$0M@$0N@@XOR@PX@@@XOR@PX@@QAAPBDXZ 004096d0 f i PX Framework:System Management.obj
 0001:000086f0       ??0?$AXorString@DV?$AIndexList@$0A@$00$01$02$03$04$05$06$07$08$09$0L@$0M@$0N@@XOR@PX@@@XOR@PX@@QAE@QBD@Z 004096f0 f i PX Framework:System Management.obj
 0001:00008780       ?Decrypt@?$AXorString@_WV?$AIndexList@$0A@$00$01$02$03$04$05$06$07@XOR@PX@@@XOR@PX@@QAAPB_WXZ 00409780 f i PX Framework:System Management.obj
 0001:000087a0       ??0?$AXorString@_WV?$AIndexList@$0A@$00$01$02$03$04$05$06$07@XOR@PX@@@XOR@PX@@QAE@QB_W@Z 004097a0 f i PX Framework:System Management.obj
 0001:00008830       ?Decrypt@?$AXorString@_WV?$AIndexList@$0A@$00$01$02$03$04$05$06$07$08$09$0L@@XOR@PX@@@XOR@PX@@QAAPB_WXZ 00409830 f i PX Framework:System Management.obj
 0001:00008850       ??0?$AXorString@_WV?$AIndexList@$0A@$00$01$02$03$04$05$06$07$08$09$0L@@XOR@PX@@@XOR@PX@@QAE@QB_W@Z 00409850 f i PX Framework:System Management.obj
 0001:00008900       ??0?$AXorString@_WV?$AIndexList@$0A@$00$01$02$03$04$05$06$07$08$09$0L@$0M@$0N@$0O@$0P@$0BA@$0BB@$0BC@$0BD@$0BE@$0BF@$0BG@$0BH@$0BI@$0BJ@$0BK@$0BL@$0BM@$0BN@$0BO@$0BP@$0CA@@XOR@PX@@@XOR@PX@@QAE@QB_W@Z 00409900 f i PX Framework:System Management.obj
 0001:00008990       ??0?$AXorString@_WV?$AIndexList@$0A@$00$01$02$03$04$05$06$07$08$09$0L@$0M@$0N@$0O@$0P@$0BA@$0BB@$0BC@$0BD@$0BE@$0BF@$0BG@$0BH@$0BI@$0BJ@$0BK@$0BL@$0BM@@XOR@PX@@@XOR@PX@@QAE@QB_W@Z 00409990 f i PX Framework:System Management.obj
 0001:00008b20       ??0?$AXorString@_WV?$AIndexList@$0A@$00$01$02$03$04$05$06$07$08@XOR@PX@@@XOR@PX@@QAE@QB_W@Z 00409b20 f i PX Framework:System Management.obj
 0001:00008bc0       ??0?$json_ref@V?$basic_json@Vmap@std@@Vvector@2@V?$basic_string@DU?$char_traits@D@std@@V?$allocator@D@2@@2@_NHINVallocator@2@Uadl_serializer@nlohmann@@@nlohmann@@@detail@nlohmann@@QAE@V?$initializer_list@V?$json_ref@V?$basic_json@Vmap@std@@Vvector@2@V?$basic_string@DU?$char_traits@D@std@@V?$allocator@D@2@@2@_NHINVallocator@2@Uadl_serializer@nlohmann@@@nlohmann@@@detail@nlohmann@@@std@@@Z 00409bc0 f i PX Framework:System Management.obj
 0001:00008bf0       ?parse@?$basic_json@Vmap@std@@Vvector@2@V?$basic_string@DU?$char_traits@D@std@@V?$allocator@D@2@@2@_NHINVallocator@2@Uadl_serializer@nlohmann@@@nlohmann@@SA?AV12@Vinput_adapter@detail@2@V?$function@$$A6A_NHW4parse_event_t@?$parser@V?$basic_json@Vmap@std@@Vvector@2@V?$basic_string@DU?$char_traits@D@std@@V?$allocator@D@2@@2@_NHINVallocator@2@Uadl_serializer@nlohmann@@@nlohmann@@@detail@nlohmann@@AAV?$basic_json@Vmap@std@@Vvector@2@V?$basic_string@DU?$char_traits@D@std@@V?$allocator@D@2@@2@_NHINVallocator@2@Uadl_serializer@nlohmann@@@4@@Z@std@@_N@Z 00409bf0 f i PX Framework:System Management.obj
 0001:00008ed0       ??A?$basic_json@Vmap@std@@Vvector@2@V?$basic_string@DU?$char_traits@D@std@@V?$allocator@D@2@@2@_NHINVallocator@2@Uadl_serializer@nlohmann@@@nlohmann@@QAEAAV01@I@Z 00409ed0 f i PX Framework:System Management.obj
 0001:00008ff0       ??0?$basic_json@Vmap@std@@Vvector@2@V?$basic_string@DU?$char_traits@D@std@@V?$allocator@D@2@@2@_NHINVallocator@2@Uadl_serializer@nlohmann@@@nlohmann@@QAE@V?$initializer_list@V?$json_ref@V?$basic_json@Vmap@std@@Vvector@2@V?$basic_string@DU?$char_traits@D@std@@V?$allocator@D@2@@2@_NHINVallocator@2@Uadl_serializer@nlohmann@@@nlohmann@@@detail@nlohmann@@@std@@_NW4value_t@detail@1@@Z 00409ff0 f i PX Framework:System Management.obj
 0001:000091d0       ?_Xran@?$array@V?$basic_string@DU?$char_traits@D@std@@V?$allocator@D@2@@std@@$07@std@@QBEXXZ 0040a1d0 f i PX Framework:System Management.obj
 0001:000091e0       ?insert@?$vector@V?$basic_json@Vmap@std@@Vvector@2@V?$basic_string@DU?$char_traits@D@std@@V?$allocator@D@2@@2@_NHINVallocator@2@Uadl_serializer@nlohmann@@@nlohmann@@V?$allocator@V?$basic_json@Vmap@std@@Vvector@2@V?$basic_string@DU?$char_traits@D@std@@V?$allocator@D@2@@2@_NHINVallocator@2@Uadl_serializer@nlohmann@@@nlohmann@@@std@@@std@@QAE?AV?$_Vector_iterator@V?$_Vector_val@U?$_Simple_types@V?$basic_json@Vmap@std@@Vvector@2@V?$basic_string@DU?$char_traits@D@std@@V?$allocator@D@2@@2@_NHINVallocator@2@Uadl_serializer@nlohmann@@@nlohmann@@@std@@@std@@@2@V?$_Vector_const_iterator@V?$_Vector_val@U?$_Simple_types@V?$basic_json@Vmap@std@@Vvector@2@V?$basic_string@DU?$char_traits@D@std@@V?$allocator@D@2@@2@_NHINVallocator@2@Uadl_serializer@nlohmann@@@nlohmann@@@std@@@std@@@2@IABV?$basic_json@Vmap@std@@Vvector@2@V?$basic_string@DU?$char_traits@D@std@@V?$allocator@D@2@@2@_NHINVallocator@2@Uadl_serializer@nlohmann@@@nlohmann@@@Z 0040a1e0 f i PX Framework:System Management.obj
 0001:000096c0       ?moved_or_copied@?$json_ref@V?$basic_json@Vmap@std@@Vvector@2@V?$basic_string@DU?$char_traits@D@std@@V?$allocator@D@2@@2@_NHINVallocator@2@Uadl_serializer@nlohmann@@@nlohmann@@@detail@nlohmann@@QBE?AV?$basic_json@Vmap@std@@Vvector@2@V?$basic_string@DU?$char_traits@D@std@@V?$allocator@D@2@@2@_NHINVallocator@2@Uadl_serializer@nlohmann@@@3@XZ 0040a6c0 f i PX Framework:System Management.obj
 0001:00009710       ?type_name@?$basic_json@Vmap@std@@Vvector@2@V?$basic_string@DU?$char_traits@D@std@@V?$allocator@D@2@@2@_NHINVallocator@2@Uadl_serializer@nlohmann@@@nlohmann@@QBEPBDXZ 0040a710 f i PX Framework:System Management.obj
 0001:00009770       ??0?$basic_json@Vmap@std@@Vvector@2@V?$basic_string@DU?$char_traits@D@std@@V?$allocator@D@2@@2@_NHINVallocator@2@Uadl_serializer@nlohmann@@@nlohmann@@QAE@ABV01@@Z 0040a770 f i PX Framework:System Management.obj
 0001:000099d0       ??$string_cast@V?$basic_string@DU?$char_traits@D@std@@V?$allocator@D@2@@std@@V?$basic_string@_WU?$char_traits@_W@std@@V?$allocator@_W@2@@2@@Tools@PX@@YA?AV?$basic_string@DU?$char_traits@D@std@@V?$allocator@D@2@@std@@ABV?$basic_string@_WU?$char_traits@_W@std@@V?$allocator@_W@2@@3@@Z 0040a9d0 f i PX Framework:System Management.obj
 0001:00009ac0       ??$?0PBD@?$json_ref@V?$basic_json@Vmap@std@@Vvector@2@V?$basic_string@DU?$char_traits@D@std@@V?$allocator@D@2@@2@_NHINVallocator@2@Uadl_serializer@nlohmann@@@nlohmann@@@detail@nlohmann@@QAE@$$QAPBD@Z 0040aac0 f i PX Framework:System Management.obj
 0001:00009b80       ??$?0V?$basic_string@DU?$char_traits@D@std@@V?$allocator@D@2@@std@@@?$json_ref@V?$basic_json@Vmap@std@@Vvector@2@V?$basic_string@DU?$char_traits@D@std@@V?$allocator@D@2@@2@_NHINVallocator@2@Uadl_serializer@nlohmann@@@nlohmann@@@detail@nlohmann@@QAE@$$QAV?$basic_string@DU?$char_traits@D@std@@V?$allocator@D@2@@std@@@Z 0040ab80 f i PX Framework:System Management.obj
 0001:00009c00       ??$?A$$CBD@?$basic_json@Vmap@std@@Vvector@2@V?$basic_string@DU?$char_traits@D@std@@V?$allocator@D@2@@2@_NHINVallocator@2@Uadl_serializer@nlohmann@@@nlohmann@@QAEAAV01@PBD@Z 0040ac00 f i PX Framework:System Management.obj
 0001:00009d30       ??$get@HH$0A@@?$basic_json@Vmap@std@@Vvector@2@V?$basic_string@DU?$char_traits@D@std@@V?$allocator@D@2@@2@_NHINVallocator@2@Uadl_serializer@nlohmann@@@nlohmann@@QBEHXZ 0040ad30 f i PX Framework:System Management.obj
 0001:00009e20       ??$get@V?$basic_string@DU?$char_traits@D@std@@V?$allocator@D@2@@std@@V12@$0A@@?$basic_json@Vmap@std@@Vvector@2@V?$basic_string@DU?$char_traits@D@std@@V?$allocator@D@2@@2@_NHINVallocator@2@Uadl_serializer@nlohmann@@@nlohmann@@QBE?AV?$basic_string@DU?$char_traits@D@std@@V?$allocator@D@2@@std@@XZ 0040ae20 f i PX Framework:System Management.obj
 0001:00009ef0       ??1?$unique_ptr@V?$map@V?$basic_string@DU?$char_traits@D@std@@V?$allocator@D@2@@std@@V?$basic_json@Vmap@std@@Vvector@2@V?$basic_string@DU?$char_traits@D@std@@V?$allocator@D@2@@2@_NHINVallocator@2@Uadl_serializer@nlohmann@@@nlohmann@@U?$less@X@2@V?$allocator@U?$pair@$$CBV?$basic_string@DU?$char_traits@D@std@@V?$allocator@D@2@@std@@V?$basic_json@Vmap@std@@Vvector@2@V?$basic_string@DU?$char_traits@D@std@@V?$allocator@D@2@@2@_NHINVallocator@2@Uadl_serializer@nlohmann@@@nlohmann@@@std@@@2@@std@@V<lambda_0e68a204ef72af78a5088a10d8a3d1b0>@@@std@@QAE@XZ 0040aef0 f i PX Framework:System Management.obj
 0001:00009ef0       ??1?$unique_ptr@V?$map@V?$basic_string@DU?$char_traits@D@std@@V?$allocator@D@2@@std@@V?$basic_json@Vmap@std@@Vvector@2@V?$basic_string@DU?$char_traits@D@std@@V?$allocator@D@2@@2@_NHINVallocator@2@Uadl_serializer@nlohmann@@@nlohmann@@U?$less@X@2@V?$allocator@U?$pair@$$CBV?$basic_string@DU?$char_traits@D@std@@V?$allocator@D@2@@std@@V?$basic_json@Vmap@std@@Vvector@2@V?$basic_string@DU?$char_traits@D@std@@V?$allocator@D@2@@2@_NHINVallocator@2@Uadl_serializer@nlohmann@@@nlohmann@@@std@@@2@@std@@V<lambda_e37fd015f5f14050bfa9ce25a676458c>@@@std@@QAE@XZ 0040aef0 f i PX Framework:System Management.obj
 0001:00009f10       ??1?$unique_ptr@V?$vector@V?$basic_json@Vmap@std@@Vvector@2@V?$basic_string@DU?$char_traits@D@std@@V?$allocator@D@2@@2@_NHINVallocator@2@Uadl_serializer@nlohmann@@@nlohmann@@V?$allocator@V?$basic_json@Vmap@std@@Vvector@2@V?$basic_string@DU?$char_traits@D@std@@V?$allocator@D@2@@2@_NHINVallocator@2@Uadl_serializer@nlohmann@@@nlohmann@@@std@@@std@@V<lambda_ecbea1aca2c4b76a251da27c9388e805>@@@std@@QAE@XZ 0040af10 f i PX Framework:System Management.obj
 0001:00009f10       ??1?$unique_ptr@V?$vector@V?$basic_json@Vmap@std@@Vvector@2@V?$basic_string@DU?$char_traits@D@std@@V?$allocator@D@2@@2@_NHINVallocator@2@Uadl_serializer@nlohmann@@@nlohmann@@V?$allocator@V?$basic_json@Vmap@std@@Vvector@2@V?$basic_string@DU?$char_traits@D@std@@V?$allocator@D@2@@2@_NHINVallocator@2@Uadl_serializer@nlohmann@@@nlohmann@@@std@@@std@@V<lambda_3e1c18b7a4cc0b91164754b8e2b009f3>@@@std@@QAE@XZ 0040af10 f i PX Framework:System Management.obj
 0001:00009f30       ??A?$map@V?$basic_string@DU?$char_traits@D@std@@V?$allocator@D@2@@std@@V?$basic_json@Vmap@std@@Vvector@2@V?$basic_string@DU?$char_traits@D@std@@V?$allocator@D@2@@2@_NHINVallocator@2@Uadl_serializer@nlohmann@@@nlohmann@@U?$less@X@2@V?$allocator@U?$pair@$$CBV?$basic_string@DU?$char_traits@D@std@@V?$allocator@D@2@@std@@V?$basic_json@Vmap@std@@Vvector@2@V?$basic_string@DU?$char_traits@D@std@@V?$allocator@D@2@@2@_NHINVallocator@2@Uadl_serializer@nlohmann@@@nlohmann@@@std@@@2@@std@@QAEAAV?$basic_json@Vmap@std@@Vvector@2@V?$basic_string@DU?$char_traits@D@std@@V?$allocator@D@2@@2@_NHINVallocator@2@Uadl_serializer@nlohmann@@@nlohmann@@$$QAV?$basic_string@DU?$char_traits@D@std@@V?$allocator@D@2@@1@@Z 0040af30 f i PX Framework:System Management.obj
 0001:00009fd0       ?_Equal@?$basic_string@_WU?$char_traits@_W@std@@V?$allocator@_W@2@@std@@QBE_NQB_W@Z 0040afd0 f i PX Framework:System Management.obj
 0001:0000a040       ??$?0V?$_String_const_iterator@V?$_String_val@U?$_Simple_types@D@std@@@std@@@std@@$0A@@input_adapter@detail@nlohmann@@QAE@V?$_String_const_iterator@V?$_String_val@U?$_Simple_types@D@std@@@std@@@std@@0@Z 0040b040 f i PX Framework:System Management.obj
 0001:0000a1d0       ??1?$_Tidy_guard@V?$vector@V?$basic_json@Vmap@std@@Vvector@2@V?$basic_string@DU?$char_traits@D@std@@V?$allocator@D@2@@2@_NHINVallocator@2@Uadl_serializer@nlohmann@@@nlohmann@@V?$allocator@V?$basic_json@Vmap@std@@Vvector@2@V?$basic_string@DU?$char_traits@D@std@@V?$allocator@D@2@@2@_NHINVallocator@2@Uadl_serializer@nlohmann@@@nlohmann@@@std@@@std@@@std@@QAE@XZ 0040b1d0 f i PX Framework:System Management.obj
 0001:0000a1e0       ?_Buy_raw@?$vector@V?$basic_json@Vmap@std@@Vvector@2@V?$basic_string@DU?$char_traits@D@std@@V?$allocator@D@2@@2@_NHINVallocator@2@Uadl_serializer@nlohmann@@@nlohmann@@V?$allocator@V?$basic_json@Vmap@std@@Vvector@2@V?$basic_string@DU?$char_traits@D@std@@V?$allocator@D@2@@2@_NHINVallocator@2@Uadl_serializer@nlohmann@@@nlohmann@@@std@@@std@@AAEXI@Z 0040b1e0 f i PX Framework:System Management.obj
 0001:0000a270       ??1?$_Clear_guard@V?$_Tree@V?$_Tmap_traits@V?$basic_string@DU?$char_traits@D@std@@V?$allocator@D@2@@std@@V?$basic_json@Vmap@std@@Vvector@2@V?$basic_string@DU?$char_traits@D@std@@V?$allocator@D@2@@2@_NHINVallocator@2@Uadl_serializer@nlohmann@@@nlohmann@@U?$less@X@2@V?$allocator@U?$pair@$$CBV?$basic_string@DU?$char_traits@D@std@@V?$allocator@D@2@@std@@V?$basic_json@Vmap@std@@Vvector@2@V?$basic_string@DU?$char_traits@D@std@@V?$allocator@D@2@@2@_NHINVallocator@2@Uadl_serializer@nlohmann@@@nlohmann@@@std@@@2@$0A@@std@@@std@@@std@@QAE@XZ 0040b270 f i PX Framework:System Management.obj
 0001:0000a2e0       ??1?$_Tidy_deallocate_guard@V?$basic_string@DU?$char_traits@D@std@@V?$allocator@D@2@@std@@@std@@QAE@XZ 0040b2e0 f i PX Framework:System Management.obj
 0001:0000a330       ??$_Buynode@ABUpiecewise_construct_t@std@@V?$tuple@$$QAV?$basic_string@DU?$char_traits@D@std@@V?$allocator@D@2@@std@@@2@V?$tuple@$$V@2@@?$_Tree_comp_alloc@V?$_Tmap_traits@V?$basic_string@DU?$char_traits@D@std@@V?$allocator@D@2@@std@@V?$basic_json@Vmap@std@@Vvector@2@V?$basic_string@DU?$char_traits@D@std@@V?$allocator@D@2@@2@_NHINVallocator@2@Uadl_serializer@nlohmann@@@nlohmann@@U?$less@X@2@V?$allocator@U?$pair@$$CBV?$basic_string@DU?$char_traits@D@std@@V?$allocator@D@2@@std@@V?$basic_json@Vmap@std@@Vvector@2@V?$basic_string@DU?$char_traits@D@std@@V?$allocator@D@2@@2@_NHINVallocator@2@Uadl_serializer@nlohmann@@@nlohmann@@@std@@@2@$0A@@std@@@std@@QAEPAU?$_Tree_node@U?$pair@$$CBV?$basic_string@DU?$char_traits@D@std@@V?$allocator@D@2@@std@@V?$basic_json@Vmap@std@@Vvector@2@V?$basic_string@DU?$char_traits@D@std@@V?$allocator@D@2@@2@_NHINVallocator@2@Uadl_serializer@nlohmann@@@nlohmann@@@std@@PAX@1@ABUpiecewise_construct_t@1@$$QAV?$tuple@$$QAV?$basic_string@DU?$char_traits@D@std@@V?$allocator@D@2@@std@@@1@$$QAV?$tuple@$$V@1@@Z 0040b330 f i PX Framework:System Management.obj
 0001:0000a3e0       ??$_Insert_hint@AAU?$pair@$$CBV?$basic_string@DU?$char_traits@D@std@@V?$allocator@D@2@@std@@V?$basic_json@Vmap@std@@Vvector@2@V?$basic_string@DU?$char_traits@D@std@@V?$allocator@D@2@@2@_NHINVallocator@2@Uadl_serializer@nlohmann@@@nlohmann@@@std@@PAU?$_Tree_node@U?$pair@$$CBV?$basic_string@DU?$char_traits@D@std@@V?$allocator@D@2@@std@@V?$basic_json@Vmap@std@@Vvector@2@V?$basic_string@DU?$char_traits@D@std@@V?$allocator@D@2@@2@_NHINVallocator@2@Uadl_serializer@nlohmann@@@nlohmann@@@std@@PAX@2@@?$_Tree@V?$_Tmap_traits@V?$basic_string@DU?$char_traits@D@std@@V?$allocator@D@2@@std@@V?$basic_json@Vmap@std@@Vvector@2@V?$basic_string@DU?$char_traits@D@std@@V?$allocator@D@2@@2@_NHINVallocator@2@Uadl_serializer@nlohmann@@@nlohmann@@U?$less@X@2@V?$allocator@U?$pair@$$CBV?$basic_string@DU?$char_traits@D@std@@V?$allocator@D@2@@std@@V?$basic_json@Vmap@std@@Vvector@2@V?$basic_string@DU?$char_traits@D@std@@V?$allocator@D@2@@2@_NHINVallocator@2@Uadl_serializer@nlohmann@@@nlohmann@@@std@@@2@$0A@@std@@@std@@IAE?AV?$_Tree_iterator@V?$_Tree_val@U?$_Tree_simple_types@U?$pair@$$CBV?$basic_string@DU?$char_traits@D@std@@V?$allocator@D@2@@std@@V?$basic_json@Vmap@std@@Vvector@2@V?$basic_string@DU?$char_traits@D@std@@V?$allocator@D@2@@2@_NHINVallocator@2@Uadl_serializer@nlohmann@@@nlohmann@@@std@@@std@@@std@@@1@V?$_Tree_const_iterator@V?$_Tree_val@U?$_Tree_simple_types@U?$pair@$$CBV?$basic_string@DU?$char_traits@D@std@@V?$allocator@D@2@@std@@V?$basic_json@Vmap@std@@Vvector@2@V?$basic_string@DU?$char_traits@D@std@@V?$allocator@D@2@@2@_NHINVallocator@2@Uadl_serializer@nlohmann@@@nlohmann@@@std@@@std@@@std@@@1@AAU?$pair@$$CBV?$basic_string@DU?$char_traits@D@std@@V?$allocator@D@2@@std@@V?$basic_json@Vmap@std@@Vvector@2@V?$basic_string@DU?$char_traits@D@std@@V?$allocator@D@2@@2@_NHINVallocator@2@Uadl_serializer@nlohmann@@@nlohmann@@@1@PAU?$_Tree_node@U?$pair@$$CBV?$basic_string@DU?$char_traits@D@std@@V?$allocator@D@2@@std@@V?$basic_json@Vmap@std@@Vvector@2@V?$basic_string@DU?$char_traits@D@std@@V?$allocator@D@2@@2@_NHINVallocator@2@Uadl_serializer@nlohmann@@@nlohmann@@@std@@PAX@1@@Z 0040b3e0 f i PX Framework:System Management.obj
 0001:0000a5b0       ??$_Copy_nodes@U_Copy_tag@?$_Tree@V?$_Tmap_traits@V?$basic_string@DU?$char_traits@D@std@@V?$allocator@D@2@@std@@V?$basic_json@Vmap@std@@Vvector@2@V?$basic_string@DU?$char_traits@D@std@@V?$allocator@D@2@@2@_NHINVallocator@2@Uadl_serializer@nlohmann@@@nlohmann@@U?$less@X@2@V?$allocator@U?$pair@$$CBV?$basic_string@DU?$char_traits@D@std@@V?$allocator@D@2@@std@@V?$basic_json@Vmap@std@@Vvector@2@V?$basic_string@DU?$char_traits@D@std@@V?$allocator@D@2@@2@_NHINVallocator@2@Uadl_serializer@nlohmann@@@nlohmann@@@std@@@2@$0A@@std@@@std@@@?$_Tree@V?$_Tmap_traits@V?$basic_string@DU?$char_traits@D@std@@V?$allocator@D@2@@std@@V?$basic_json@Vmap@std@@Vvector@2@V?$basic_string@DU?$char_traits@D@std@@V?$allocator@D@2@@2@_NHINVallocator@2@Uadl_serializer@nlohmann@@@nlohmann@@U?$less@X@2@V?$allocator@U?$pair@$$CBV?$basic_string@DU?$char_traits@D@std@@V?$allocator@D@2@@std@@V?$basic_json@Vmap@std@@Vvector@2@V?$basic_string@DU?$char_traits@D@std@@V?$allocator@D@2@@2@_NHINVallocator@2@Uadl_serializer@nlohmann@@@nlohmann@@@std@@@2@$0A@@std@@@std@@IAEPAU?$_Tree_node@U?$pair@$$CBV?$basic_string@DU?$char_traits@D@std@@V?$allocator@D@2@@std@@V?$basic_json@Vmap@std@@Vvector@2@V?$basic_string@DU?$char_traits@D@std@@V?$allocator@D@2@@2@_NHINVallocator@2@Uadl_serializer@nlohmann@@@nlohmann@@@std@@PAX@1@PAU21@0U_Copy_tag@01@@Z 0040b5b0 f i PX Framework:System Management.obj
 0001:0000a670       ??$_Buynode@AAU?$pair@$$CBV?$basic_string@DU?$char_traits@D@std@@V?$allocator@D@2@@std@@V?$basic_json@Vmap@std@@Vvector@2@V?$basic_string@DU?$char_traits@D@std@@V?$allocator@D@2@@2@_NHINVallocator@2@Uadl_serializer@nlohmann@@@nlohmann@@@std@@@?$_Tree_comp_alloc@V?$_Tmap_traits@V?$basic_string@DU?$char_traits@D@std@@V?$allocator@D@2@@std@@V?$basic_json@Vmap@std@@Vvector@2@V?$basic_string@DU?$char_traits@D@std@@V?$allocator@D@2@@2@_NHINVallocator@2@Uadl_serializer@nlohmann@@@nlohmann@@U?$less@X@2@V?$allocator@U?$pair@$$CBV?$basic_string@DU?$char_traits@D@std@@V?$allocator@D@2@@std@@V?$basic_json@Vmap@std@@Vvector@2@V?$basic_string@DU?$char_traits@D@std@@V?$allocator@D@2@@2@_NHINVallocator@2@Uadl_serializer@nlohmann@@@nlohmann@@@std@@@2@$0A@@std@@@std@@QAEPAU?$_Tree_node@U?$pair@$$CBV?$basic_string@DU?$char_traits@D@std@@V?$allocator@D@2@@std@@V?$basic_json@Vmap@std@@Vvector@2@V?$basic_string@DU?$char_traits@D@std@@V?$allocator@D@2@@2@_NHINVallocator@2@Uadl_serializer@nlohmann@@@nlohmann@@@std@@PAX@1@AAU?$pair@$$CBV?$basic_string@DU?$char_traits@D@std@@V?$allocator@D@2@@std@@V?$basic_json@Vmap@std@@Vvector@2@V?$basic_string@DU?$char_traits@D@std@@V?$allocator@D@2@@2@_NHINVallocator@2@Uadl_serializer@nlohmann@@@nlohmann@@@1@@Z 0040b670 f i PX Framework:System Management.obj
 0001:0000a700       ??E?$_Tree_const_iterator@V?$_Tree_val@U?$_Tree_simple_types@U?$pair@$$CBV?$basic_string@DU?$char_traits@D@std@@V?$allocator@D@2@@std@@V?$basic_json@Vmap@std@@Vvector@2@V?$basic_string@DU?$char_traits@D@std@@V?$allocator@D@2@@2@_NHINVallocator@2@Uadl_serializer@nlohmann@@@nlohmann@@@std@@@std@@@std@@@std@@QAEAAV01@XZ 0040b700 f i PX Framework:System Management.obj
 0001:0000a760       ??_Einput_buffer_adapter@detail@nlohmann@@UAEPAXI@Z 0040b760 f i * CIL library *:* CIL module *
 0001:0000a760       ??_Ginput_buffer_adapter@detail@nlohmann@@UAEPAXI@Z 0040b760 f i PX Framework:System Management.obj
 0001:0000a780       ?_Destroy@?$_Ref_count_obj@V?$output_string_adapter@D@detail@nlohmann@@@std@@EAEXXZ 0040b780 f i PX Framework:Connectivity.obj
 0001:0000a780       ?_Destroy@?$_Ref_count_obj@Vinput_buffer_adapter@detail@nlohmann@@@std@@EAEXXZ 0040b780 f i PX Framework:System Management.obj
 0001:0000a790       ??_E?$_Ref_count_obj@Vinput_buffer_adapter@detail@nlohmann@@@std@@UAEPAXI@Z 0040b790 f i * CIL library *:* CIL module *
 0001:0000a790       ??_G?$_Ref_count_obj@Vinput_buffer_adapter@detail@nlohmann@@@std@@UAEPAXI@Z 0040b790 f i PX Framework:System Management.obj
 0001:0000a7b0       ?_Delete_this@?$_Ref_count_obj@Vinput_buffer_adapter@detail@nlohmann@@@std@@EAEXXZ 0040b7b0 f i PX Framework:System Management.obj
 0001:0000a7b0       ?_Delete_this@?$_Ref_count_obj@V?$output_string_adapter@D@detail@nlohmann@@@std@@EAEXXZ 0040b7b0 f i PX Framework:Connectivity.obj
 0001:0000a7c0       ?_Get_deleter@_Ref_count_base@std@@UBEPAXABVtype_info@@@Z 0040b7c0 f i PX Framework:System Management.obj
 0001:0000a7d0       ?get_character@input_buffer_adapter@detail@nlohmann@@UAEHXZ 0040b7d0 f i PX Framework:System Management.obj
 0001:0000a7f0       ?unget_character@input_buffer_adapter@detail@nlohmann@@UAEXXZ 0040b7f0 f i PX Framework:System Management.obj
 0001:0000a800       ??0type_error@detail@nlohmann@@QAE@ABV012@@Z 0040b800 f i PX Framework:System Management.obj
 0001:0000a870       ??_Gexception@detail@nlohmann@@UAEPAXI@Z 0040b870 f i PX Framework:System Management.obj
 0001:0000a870       ??_Eother_error@detail@nlohmann@@UAEPAXI@Z 0040b870 f i * CIL library *:* CIL module *
 0001:0000a870       ??_Gout_of_range@detail@nlohmann@@UAEPAXI@Z 0040b870 f i PX Framework:System Management.obj
 0001:0000a870       ??_Gtype_error@detail@nlohmann@@UAEPAXI@Z 0040b870 f i PX Framework:System Management.obj
 0001:0000a870       ??_Gother_error@detail@nlohmann@@UAEPAXI@Z 0040b870 f i PX Framework:System Management.obj
 0001:0000a870       ??_Etype_error@detail@nlohmann@@UAEPAXI@Z 0040b870 f i * CIL library *:* CIL module *
 0001:0000a870       ??_Eout_of_range@detail@nlohmann@@UAEPAXI@Z 0040b870 f i * CIL library *:* CIL module *
 0001:0000a870       ??_Eexception@detail@nlohmann@@UAEPAXI@Z 0040b870 f i * CIL library *:* CIL module *
 0001:0000a8b0       ??1parse_error@detail@nlohmann@@UAE@XZ 0040b8b0 f i PX Framework:System Management.obj
 0001:0000a8b0       ??1other_error@detail@nlohmann@@UAE@XZ 0040b8b0 f i PX Framework:System Management.obj
 0001:0000a8b0       ??1out_of_range@detail@nlohmann@@UAE@XZ 0040b8b0 f i PX Framework:System Management.obj
 0001:0000a8b0       ??1type_error@detail@nlohmann@@UAE@XZ 0040b8b0 f i PX Framework:System Management.obj
 0001:0000a8e0       ?create@type_error@detail@nlohmann@@SA?AV123@HABV?$basic_string@DU?$char_traits@D@std@@V?$allocator@D@2@@std@@@Z 0040b8e0 f i PX Framework:System Management.obj
 0001:0000aac0       ??1?$parser@V?$basic_json@Vmap@std@@Vvector@2@V?$basic_string@DU?$char_traits@D@std@@V?$allocator@D@2@@2@_NHINVallocator@2@Uadl_serializer@nlohmann@@@nlohmann@@@detail@nlohmann@@QAE@XZ 0040bac0 f i PX Framework:System Management.obj
 0001:0000aaf0       ??1?$lexer@V?$basic_json@Vmap@std@@Vvector@2@V?$basic_string@DU?$char_traits@D@std@@V?$allocator@D@2@@2@_NHINVallocator@2@Uadl_serializer@nlohmann@@@nlohmann@@@detail@nlohmann@@QAE@XZ 0040baf0 f i PX Framework:System Management.obj
 0001:0000abc0       ??1?$unique_ptr@V?$basic_string@DU?$char_traits@D@std@@V?$allocator@D@2@@std@@V<lambda_eb546d5045bfe1dfc6d246897a7c81b1>@@@std@@QAE@XZ 0040bbc0 f i PX Framework:System Management.obj
 0001:0000abc0       ??1?$unique_ptr@V?$basic_string@DU?$char_traits@D@std@@V?$allocator@D@2@@std@@V<lambda_329d70397dbf9bbdce4a0a3875b45030>@@@std@@QAE@XZ 0040bbc0 f i PX Framework:System Management.obj
 0001:0000abe0       ?_Buynode0@?$_Tree_comp_alloc@V?$_Tmap_traits@V?$basic_string@DU?$char_traits@D@std@@V?$allocator@D@2@@std@@V?$basic_json@Vmap@std@@Vvector@2@V?$basic_string@DU?$char_traits@D@std@@V?$allocator@D@2@@2@_NHINVallocator@2@Uadl_serializer@nlohmann@@@nlohmann@@U?$less@X@2@V?$allocator@U?$pair@$$CBV?$basic_string@DU?$char_traits@D@std@@V?$allocator@D@2@@std@@V?$basic_json@Vmap@std@@Vvector@2@V?$basic_string@DU?$char_traits@D@std@@V?$allocator@D@2@@2@_NHINVallocator@2@Uadl_serializer@nlohmann@@@nlohmann@@@std@@@2@$0A@@std@@@std@@QAEPAU?$_Tree_node@U?$pair@$$CBV?$basic_string@DU?$char_traits@D@std@@V?$allocator@D@2@@std@@V?$basic_json@Vmap@std@@Vvector@2@V?$basic_string@DU?$char_traits@D@std@@V?$allocator@D@2@@2@_NHINVallocator@2@Uadl_serializer@nlohmann@@@nlohmann@@@std@@PAX@2@XZ 0040bbe0 f i PX Framework:System Management.obj
 0001:0000ac00       ?_Freenode0@?$_Tree_comp_alloc@V?$_Tmap_traits@V?$basic_string@DU?$char_traits@D@std@@V?$allocator@D@2@@std@@V?$basic_json@Vmap@std@@Vvector@2@V?$basic_string@DU?$char_traits@D@std@@V?$allocator@D@2@@2@_NHINVallocator@2@Uadl_serializer@nlohmann@@@nlohmann@@U?$less@X@2@V?$allocator@U?$pair@$$CBV?$basic_string@DU?$char_traits@D@std@@V?$allocator@D@2@@std@@V?$basic_json@Vmap@std@@Vvector@2@V?$basic_string@DU?$char_traits@D@std@@V?$allocator@D@2@@2@_NHINVallocator@2@Uadl_serializer@nlohmann@@@nlohmann@@@std@@@2@$0A@@std@@@std@@QAEXPAU?$_Tree_node@U?$pair@$$CBV?$basic_string@DU?$char_traits@D@std@@V?$allocator@D@2@@std@@V?$basic_json@Vmap@std@@Vvector@2@V?$basic_string@DU?$char_traits@D@std@@V?$allocator@D@2@@2@_NHINVallocator@2@Uadl_serializer@nlohmann@@@nlohmann@@@std@@PAX@2@@Z 0040bc00 f i PX Framework:System Management.obj
 0001:0000ac20       ??$_Buynode@V?$basic_string@DU?$char_traits@D@std@@V?$allocator@D@2@@std@@V?$basic_json@Vmap@std@@Vvector@2@V?$basic_string@DU?$char_traits@D@std@@V?$allocator@D@2@@2@_NHINVallocator@2@Uadl_serializer@nlohmann@@@nlohmann@@@?$_Tree_comp_alloc@V?$_Tmap_traits@V?$basic_string@DU?$char_traits@D@std@@V?$allocator@D@2@@std@@V?$basic_json@Vmap@std@@Vvector@2@V?$basic_string@DU?$char_traits@D@std@@V?$allocator@D@2@@2@_NHINVallocator@2@Uadl_serializer@nlohmann@@@nlohmann@@U?$less@X@2@V?$allocator@U?$pair@$$CBV?$basic_string@DU?$char_traits@D@std@@V?$allocator@D@2@@std@@V?$basic_json@Vmap@std@@Vvector@2@V?$basic_string@DU?$char_traits@D@std@@V?$allocator@D@2@@2@_NHINVallocator@2@Uadl_serializer@nlohmann@@@nlohmann@@@std@@@2@$0A@@std@@@std@@QAEPAU?$_Tree_node@U?$pair@$$CBV?$basic_string@DU?$char_traits@D@std@@V?$allocator@D@2@@std@@V?$basic_json@Vmap@std@@Vvector@2@V?$basic_string@DU?$char_traits@D@std@@V?$allocator@D@2@@2@_NHINVallocator@2@Uadl_serializer@nlohmann@@@nlohmann@@@std@@PAX@1@$$QAV?$basic_string@DU?$char_traits@D@std@@V?$allocator@D@2@@1@$$QAV?$basic_json@Vmap@std@@Vvector@2@V?$basic_string@DU?$char_traits@D@std@@V?$allocator@D@2@@2@_NHINVallocator@2@Uadl_serializer@nlohmann@@@nlohmann@@@Z 0040bc20 f i PX Framework:System Management.obj
 0001:0000ac90       ??F?$_Tree_const_iterator@V?$_Tree_val@U?$_Tree_simple_types@U?$pair@$$CBV?$basic_string@DU?$char_traits@D@std@@V?$allocator@D@2@@std@@V?$basic_json@Vmap@std@@Vvector@2@V?$basic_string@DU?$char_traits@D@std@@V?$allocator@D@2@@2@_NHINVallocator@2@Uadl_serializer@nlohmann@@@nlohmann@@@std@@@std@@@std@@@std@@QAEAAV01@XZ 0040bc90 f i PX Framework:System Management.obj
 0001:0000ad20       ??$?MDU?$char_traits@D@std@@V?$allocator@D@1@@std@@YA_NABV?$basic_string@DU?$char_traits@D@std@@V?$allocator@D@2@@0@0@Z 0040bd20 f i PX Framework:System Management.obj
 0001:0000adb0       ??$_Insert_at@AAU?$pair@$$CBV?$basic_string@DU?$char_traits@D@std@@V?$allocator@D@2@@std@@V?$basic_json@Vmap@std@@Vvector@2@V?$basic_string@DU?$char_traits@D@std@@V?$allocator@D@2@@2@_NHINVallocator@2@Uadl_serializer@nlohmann@@@nlohmann@@@std@@PAU?$_Tree_node@U?$pair@$$CBV?$basic_string@DU?$char_traits@D@std@@V?$allocator@D@2@@std@@V?$basic_json@Vmap@std@@Vvector@2@V?$basic_string@DU?$char_traits@D@std@@V?$allocator@D@2@@2@_NHINVallocator@2@Uadl_serializer@nlohmann@@@nlohmann@@@std@@PAX@2@@?$_Tree@V?$_Tmap_traits@V?$basic_string@DU?$char_traits@D@std@@V?$allocator@D@2@@std@@V?$basic_json@Vmap@std@@Vvector@2@V?$basic_string@DU?$char_traits@D@std@@V?$allocator@D@2@@2@_NHINVallocator@2@Uadl_serializer@nlohmann@@@nlohmann@@U?$less@X@2@V?$allocator@U?$pair@$$CBV?$basic_string@DU?$char_traits@D@std@@V?$allocator@D@2@@std@@V?$basic_json@Vmap@std@@Vvector@2@V?$basic_string@DU?$char_traits@D@std@@V?$allocator@D@2@@2@_NHINVallocator@2@Uadl_serializer@nlohmann@@@nlohmann@@@std@@@2@$0A@@std@@@std@@IAE?AV?$_Tree_iterator@V?$_Tree_val@U?$_Tree_simple_types@U?$pair@$$CBV?$basic_string@DU?$char_traits@D@std@@V?$allocator@D@2@@std@@V?$basic_json@Vmap@std@@Vvector@2@V?$basic_string@DU?$char_traits@D@std@@V?$allocator@D@2@@2@_NHINVallocator@2@Uadl_serializer@nlohmann@@@nlohmann@@@std@@@std@@@std@@@1@_NPAU?$_Tree_node@U?$pair@$$CBV?$basic_string@DU?$char_traits@D@std@@V?$allocator@D@2@@std@@V?$basic_json@Vmap@std@@Vvector@2@V?$basic_string@DU?$char_traits@D@std@@V?$allocator@D@2@@2@_NHINVallocator@2@Uadl_serializer@nlohmann@@@nlohmann@@@std@@PAX@1@AAU?$pair@$$CBV?$basic_string@DU?$char_traits@D@std@@V?$allocator@D@2@@std@@V?$basic_json@Vmap@std@@Vvector@2@V?$basic_string@DU?$char_traits@D@std@@V?$allocator@D@2@@2@_NHINVallocator@2@Uadl_serializer@nlohmann@@@nlohmann@@@1@1@Z 0040bdb0 f i PX Framework:System Management.obj
 0001:0000afe0       ?_Destroy_if_node@?$_Tree@V?$_Tmap_traits@V?$basic_string@DU?$char_traits@D@std@@V?$allocator@D@2@@std@@V?$basic_json@Vmap@std@@Vvector@2@V?$basic_string@DU?$char_traits@D@std@@V?$allocator@D@2@@2@_NHINVallocator@2@Uadl_serializer@nlohmann@@@nlohmann@@U?$less@X@2@V?$allocator@U?$pair@$$CBV?$basic_string@DU?$char_traits@D@std@@V?$allocator@D@2@@std@@V?$basic_json@Vmap@std@@Vvector@2@V?$basic_string@DU?$char_traits@D@std@@V?$allocator@D@2@@2@_NHINVallocator@2@Uadl_serializer@nlohmann@@@nlohmann@@@std@@@2@$0A@@std@@@std@@IAEXPAU?$_Tree_node@U?$pair@$$CBV?$basic_string@DU?$char_traits@D@std@@V?$allocator@D@2@@std@@V?$basic_json@Vmap@std@@Vvector@2@V?$basic_string@DU?$char_traits@D@std@@V?$allocator@D@2@@2@_NHINVallocator@2@Uadl_serializer@nlohmann@@@nlohmann@@@std@@PAX@2@@Z 0040bfe0 f i PX Framework:System Management.obj
 0001:0000b050       ??$_Insert_nohint@AAU?$pair@$$CBV?$basic_string@DU?$char_traits@D@std@@V?$allocator@D@2@@std@@V?$basic_json@Vmap@std@@Vvector@2@V?$basic_string@DU?$char_traits@D@std@@V?$allocator@D@2@@2@_NHINVallocator@2@Uadl_serializer@nlohmann@@@nlohmann@@@std@@PAU?$_Tree_node@U?$pair@$$CBV?$basic_string@DU?$char_traits@D@std@@V?$allocator@D@2@@std@@V?$basic_json@Vmap@std@@Vvector@2@V?$basic_string@DU?$char_traits@D@std@@V?$allocator@D@2@@2@_NHINVallocator@2@Uadl_serializer@nlohmann@@@nlohmann@@@std@@PAX@2@@?$_Tree@V?$_Tmap_traits@V?$basic_string@DU?$char_traits@D@std@@V?$allocator@D@2@@std@@V?$basic_json@Vmap@std@@Vvector@2@V?$basic_string@DU?$char_traits@D@std@@V?$allocator@D@2@@2@_NHINVallocator@2@Uadl_serializer@nlohmann@@@nlohmann@@U?$less@X@2@V?$allocator@U?$pair@$$CBV?$basic_string@DU?$char_traits@D@std@@V?$allocator@D@2@@std@@V?$basic_json@Vmap@std@@Vvector@2@V?$basic_string@DU?$char_traits@D@std@@V?$allocator@D@2@@2@_NHINVallocator@2@Uadl_serializer@nlohmann@@@nlohmann@@@std@@@2@$0A@@std@@@std@@IAE?AU?$pair@V?$_Tree_iterator@V?$_Tree_val@U?$_Tree_simple_types@U?$pair@$$CBV?$basic_string@DU?$char_traits@D@std@@V?$allocator@D@2@@std@@V?$basic_json@Vmap@std@@Vvector@2@V?$basic_string@DU?$char_traits@D@std@@V?$allocator@D@2@@2@_NHINVallocator@2@Uadl_serializer@nlohmann@@@nlohmann@@@std@@@std@@@std@@@std@@_N@1@_NAAU?$pair@$$CBV?$basic_string@DU?$char_traits@D@std@@V?$allocator@D@2@@std@@V?$basic_json@Vmap@std@@Vvector@2@V?$basic_string@DU?$char_traits@D@std@@V?$allocator@D@2@@2@_NHINVallocator@2@Uadl_serializer@nlohmann@@@nlohmann@@@1@PAU?$_Tree_node@U?$pair@$$CBV?$basic_string@DU?$char_traits@D@std@@V?$allocator@D@2@@std@@V?$basic_json@Vmap@std@@Vvector@2@V?$basic_string@DU?$char_traits@D@std@@V?$allocator@D@2@@2@_NHINVallocator@2@Uadl_serializer@nlohmann@@@nlohmann@@@std@@PAX@1@@Z 0040c050 f i PX Framework:System Management.obj
 0001:0000b170       ?_Xlength@?$vector@V?$basic_json@Vmap@std@@Vvector@2@V?$basic_string@DU?$char_traits@D@std@@V?$allocator@D@2@@2@_NHINVallocator@2@Uadl_serializer@nlohmann@@@nlohmann@@V?$allocator@V?$basic_json@Vmap@std@@Vvector@2@V?$basic_string@DU?$char_traits@D@std@@V?$allocator@D@2@@2@_NHINVallocator@2@Uadl_serializer@nlohmann@@@nlohmann@@@std@@@std@@CAXXZ 0040c170 f i PX Framework:System Management.obj
 0001:0000b170       ?_Xlength@?$vector@DV?$allocator@D@std@@@std@@CAXXZ 0040c170 f i PX Framework:System Management.obj
 0001:0000b180       ??1?$_Uninitialized_backout_al@PAV?$basic_json@Vmap@std@@Vvector@2@V?$basic_string@DU?$char_traits@D@std@@V?$allocator@D@2@@2@_NHINVallocator@2@Uadl_serializer@nlohmann@@@nlohmann@@V?$allocator@V?$basic_json@Vmap@std@@Vvector@2@V?$basic_string@DU?$char_traits@D@std@@V?$allocator@D@2@@2@_NHINVallocator@2@Uadl_serializer@nlohmann@@@nlohmann@@@std@@@std@@QAE@XZ 0040c180 f i PX Framework:System Management.obj
 0001:0000b1b0       ?_Change_array@?$vector@V?$basic_json@Vmap@std@@Vvector@2@V?$basic_string@DU?$char_traits@D@std@@V?$allocator@D@2@@2@_NHINVallocator@2@Uadl_serializer@nlohmann@@@nlohmann@@V?$allocator@V?$basic_json@Vmap@std@@Vvector@2@V?$basic_string@DU?$char_traits@D@std@@V?$allocator@D@2@@2@_NHINVallocator@2@Uadl_serializer@nlohmann@@@nlohmann@@@std@@@std@@AAEXQAV?$basic_json@Vmap@std@@Vvector@2@V?$basic_string@DU?$char_traits@D@std@@V?$allocator@D@2@@2@_NHINVallocator@2@Uadl_serializer@nlohmann@@@nlohmann@@II@Z 0040c1b0 f i PX Framework:System Management.obj
 0001:0000b230       ??$_Emplace_reallocate@V?$basic_json@Vmap@std@@Vvector@2@V?$basic_string@DU?$char_traits@D@std@@V?$allocator@D@2@@2@_NHINVallocator@2@Uadl_serializer@nlohmann@@@nlohmann@@@?$vector@V?$basic_json@Vmap@std@@Vvector@2@V?$basic_string@DU?$char_traits@D@std@@V?$allocator@D@2@@2@_NHINVallocator@2@Uadl_serializer@nlohmann@@@nlohmann@@V?$allocator@V?$basic_json@Vmap@std@@Vvector@2@V?$basic_string@DU?$char_traits@D@std@@V?$allocator@D@2@@2@_NHINVallocator@2@Uadl_serializer@nlohmann@@@nlohmann@@@std@@@std@@QAEPAV?$basic_json@Vmap@std@@Vvector@2@V?$basic_string@DU?$char_traits@D@std@@V?$allocator@D@2@@2@_NHINVallocator@2@Uadl_serializer@nlohmann@@@nlohmann@@QAV23@$$QAV23@@Z 0040c230 f i PX Framework:System Management.obj
 0001:0000b400       ??$isfinite@N@@YA_NN@Z     0040c400 f i PX Framework:System Management.obj
 0001:0000b440       ?create@out_of_range@detail@nlohmann@@SA?AV123@HABV?$basic_string@DU?$char_traits@D@std@@V?$allocator@D@2@@std@@@Z 0040c440 f i PX Framework:System Management.obj
 0001:0000b600       ??0out_of_range@detail@nlohmann@@QAE@ABV012@@Z 0040c600 f i PX Framework:System Management.obj
 0001:0000b670       ?parse_internal@?$parser@V?$basic_json@Vmap@std@@Vvector@2@V?$basic_string@DU?$char_traits@D@std@@V?$allocator@D@2@@2@_NHINVallocator@2@Uadl_serializer@nlohmann@@@nlohmann@@@detail@nlohmann@@AAEX_NAAV?$basic_json@Vmap@std@@Vvector@2@V?$basic_string@DU?$char_traits@D@std@@V?$allocator@D@2@@2@_NHINVallocator@2@Uadl_serializer@nlohmann@@@3@@Z 0040c670 f i PX Framework:System Management.obj
 0001:0000beb0       ?get_codepoint@?$lexer@V?$basic_json@Vmap@std@@Vvector@2@V?$basic_string@DU?$char_traits@D@std@@V?$allocator@D@2@@2@_NHINVallocator@2@Uadl_serializer@nlohmann@@@nlohmann@@@detail@nlohmann@@AAEHXZ 0040ceb0 f i PX Framework:System Management.obj
 0001:0000bf80       ?next_byte_in_range@?$lexer@V?$basic_json@Vmap@std@@Vvector@2@V?$basic_string@DU?$char_traits@D@std@@V?$allocator@D@2@@2@_NHINVallocator@2@Uadl_serializer@nlohmann@@@nlohmann@@@detail@nlohmann@@AAE_NV?$initializer_list@H@std@@@Z 0040cf80 f i PX Framework:System Management.obj
 0001:0000c070       ?scan_string@?$lexer@V?$basic_json@Vmap@std@@Vvector@2@V?$basic_string@DU?$char_traits@D@std@@V?$allocator@D@2@@2@_NHINVallocator@2@Uadl_serializer@nlohmann@@@nlohmann@@@detail@nlohmann@@AAE?AW4token_type@123@XZ 0040d070 f i PX Framework:System Management.obj
 0001:0000ca40       ??$_Emplace_reallocate@D@?$vector@DV?$allocator@D@std@@@std@@QAEPADQAD$$QAD@Z 0040da40 f i PX Framework:System Management.obj
 0001:0000cb80       ?scan_number@?$lexer@V?$basic_json@Vmap@std@@Vvector@2@V?$basic_string@DU?$char_traits@D@std@@V?$allocator@D@2@@2@_NHINVallocator@2@Uadl_serializer@nlohmann@@@nlohmann@@@detail@nlohmann@@AAE?AW4token_type@123@XZ 0040db80 f i PX Framework:System Management.obj
 0001:0000d2e0       ?scan@?$lexer@V?$basic_json@Vmap@std@@Vvector@2@V?$basic_string@DU?$char_traits@D@std@@V?$allocator@D@2@@2@_NHINVallocator@2@Uadl_serializer@nlohmann@@@nlohmann@@@detail@nlohmann@@QAE?AW4token_type@123@XZ 0040e2e0 f i PX Framework:System Management.obj
 0001:0000d590       ?__autoclassinit2@?$basic_stringstream@DU?$char_traits@D@std@@V?$allocator@D@2@@std@@QAEXI@Z 0040e590 f i PX Framework:System Management.obj
 0001:0000d5b0       ?_Init@ios_base@std@@IAEXXZ 0040e5b0 f i PX Framework:System Management.obj
 0001:0000d660       ?init@?$basic_ios@DU?$char_traits@D@std@@@std@@IAEXPAV?$basic_streambuf@DU?$char_traits@D@std@@@2@_N@Z 0040e660 f i PX Framework:System Management.obj
 0001:0000d720       ??0?$basic_streambuf@DU?$char_traits@D@std@@@std@@IAE@XZ 0040e720 f i PX Framework:System Management.obj
 0001:0000d7e0       ??0?$basic_stringstream@DU?$char_traits@D@std@@V?$allocator@D@2@@std@@QAE@H@Z 0040e7e0 f i PX Framework:System Management.obj
 0001:0000d8f0       ??_E?$basic_stringstream@DU?$char_traits@D@std@@V?$allocator@D@2@@std@@UAEPAXI@Z 0040e8f0 f i * CIL library *:* CIL module *
 0001:0000d8f0       ??_G?$basic_stringstream@DU?$char_traits@D@std@@V?$allocator@D@2@@std@@UAEPAXI@Z 0040e8f0 f i PX Framework:System Management.obj
 0001:0000d919       ??_E?$basic_stringstream@DU?$char_traits@D@std@@V?$allocator@D@2@@std@@$4PPPPPPPM@A@AEPAXI@Z 0040e919 f i PX Framework:System Management.obj
 0001:0000d930       ??_E?$basic_iostream@DU?$char_traits@D@std@@@std@@UAEPAXI@Z 0040e930 f i * CIL library *:* CIL module *
 0001:0000d930       ??_G?$basic_iostream@DU?$char_traits@D@std@@@std@@UAEPAXI@Z 0040e930 f i PX Framework:System Management.obj
 0001:0000d9e5       ??_E?$basic_iostream@DU?$char_traits@D@std@@@std@@$4PPPPPPPM@A@AEPAXI@Z 0040e9e5 f i PX Framework:System Management.obj
 0001:0000d9f0       ??_G?$basic_istream@DU?$char_traits@D@std@@@std@@UAEPAXI@Z 0040e9f0 f i PX Framework:System Management.obj
 0001:0000d9f0       ??_E?$basic_istream@DU?$char_traits@D@std@@@std@@UAEPAXI@Z 0040e9f0 f i * CIL library *:* CIL module *
 0001:0000da6b       ??_E?$basic_istream@DU?$char_traits@D@std@@@std@@$4PPPPPPPM@A@AEPAXI@Z 0040ea6b f i PX Framework:System Management.obj
 0001:0000da80       ??1?$basic_istream@DU?$char_traits@D@std@@@std@@UAE@XZ 0040ea80 f i PX Framework:System Management.obj
 0001:0000daa0       ??_G?$basic_ostream@DU?$char_traits@D@std@@@std@@UAEPAXI@Z 0040eaa0 f i PX Framework:System Management.obj
 0001:0000daa0       ??_E?$basic_ostream@DU?$char_traits@D@std@@@std@@UAEPAXI@Z 0040eaa0 f i * CIL library *:* CIL module *
 0001:0000db1b       ??_E?$basic_ostream@DU?$char_traits@D@std@@@std@@$4PPPPPPPM@A@AEPAXI@Z 0040eb1b f i PX Framework:System Management.obj
 0001:0000db30       ??1?$basic_ostream@DU?$char_traits@D@std@@@std@@UAE@XZ 0040eb30 f i PX Framework:System Management.obj
 0001:0000db50       ??1?$basic_iostream@DU?$char_traits@D@std@@@std@@UAE@XZ 0040eb50 f i PX Framework:System Management.obj
 0001:0000dbb0       ??_G?$basic_stringbuf@DU?$char_traits@D@std@@V?$allocator@D@2@@std@@UAEPAXI@Z 0040ebb0 f i PX Framework:System Management.obj
 0001:0000dbb0       ??_E?$basic_stringbuf@DU?$char_traits@D@std@@V?$allocator@D@2@@std@@UAEPAXI@Z 0040ebb0 f i * CIL library *:* CIL module *
 0001:0000dbe0       ?overflow@?$basic_stringbuf@DU?$char_traits@D@std@@V?$allocator@D@2@@std@@MAEHH@Z 0040ebe0 f i PX Framework:System Management.obj
 0001:0000dda0       ?pbackfail@?$basic_stringbuf@DU?$char_traits@D@std@@V?$allocator@D@2@@std@@MAEHH@Z 0040eda0 f i PX Framework:System Management.obj
 0001:0000de00       ?underflow@?$basic_stringbuf@DU?$char_traits@D@std@@V?$allocator@D@2@@std@@MAEHXZ 0040ee00 f i PX Framework:System Management.obj
 0001:0000de60       ?seekoff@?$basic_stringbuf@DU?$char_traits@D@std@@V?$allocator@D@2@@std@@MAE?AV?$fpos@U_Mbstatet@@@2@_JHH@Z 0040ee60 f i PX Framework:System Management.obj
 0001:0000dff0       ?seekpos@?$basic_stringbuf@DU?$char_traits@D@std@@V?$allocator@D@2@@std@@MAE?AV?$fpos@U_Mbstatet@@@2@V32@H@Z 0040eff0 f i PX Framework:System Management.obj
 0001:0000e100       ??_E?$basic_streambuf@DU?$char_traits@D@std@@@std@@UAEPAXI@Z 0040f100 f i * CIL library *:* CIL module *
 0001:0000e100       ??_G?$basic_streambuf@DU?$char_traits@D@std@@@std@@UAEPAXI@Z 0040f100 f i PX Framework:System Management.obj
 0001:0000e150       ?overflow@?$basic_streambuf@DU?$char_traits@D@std@@@std@@MAEHH@Z 0040f150 f i PX Framework:System Management.obj
 0001:0000e150       ?pbackfail@?$basic_streambuf@DU?$char_traits@D@std@@@std@@MAEHH@Z 0040f150 f i PX Framework:System Management.obj
 0001:0000e160       ?showmanyc@?$basic_streambuf@DU?$char_traits@D@std@@@std@@MAE_JXZ 0040f160 f i PX Framework:System Management.obj
 0001:0000e170       ?_Gnavail@?$basic_streambuf@DU?$char_traits@D@std@@@std@@IBE_JXZ 0040f170 f i PX Framework:System Management.obj
 0001:0000e190       ?max@?$numeric_limits@I@std@@SAIXZ 0040f190 f i cryptlib:rijndael.obj
 0001:0000e190       _Curl_none_check_cxn       0040f190 f i libcurl:vtls.obj
 0001:0000e190       ?underflow@?$basic_streambuf@DU?$char_traits@D@std@@@std@@MAEHXZ 0040f190 f i PX Framework:System Management.obj
 0001:0000e1a0       ?uflow@?$basic_streambuf@DU?$char_traits@D@std@@@std@@MAEHXZ 0040f1a0 f i PX Framework:System Management.obj
 0001:0000e1d0       ?xsgetn@?$basic_streambuf@DU?$char_traits@D@std@@@std@@MAE_JPAD_J@Z 0040f1d0 f i PX Framework:System Management.obj
 0001:0000e2b0       ?seekoff@?$basic_streambuf@DU?$char_traits@D@std@@@std@@MAE?AV?$fpos@U_Mbstatet@@@2@_JHH@Z 0040f2b0 f i PX Framework:System Management.obj
 0001:0000e2e0       ?seekpos@?$basic_streambuf@DU?$char_traits@D@std@@@std@@MAE?AV?$fpos@U_Mbstatet@@@2@V32@H@Z 0040f2e0 f i PX Framework:System Management.obj
 0001:0000e310       ?setbuf@?$basic_streambuf@DU?$char_traits@D@std@@@std@@MAEPAV12@PAD_J@Z 0040f310 f i PX Framework:System Management.obj
 0001:0000e320       ?NextPutSingle@FilterWithBufferedInput@CryptoPP@@MAEXPBE@Z 0040f320 f i PX Framework:File Manager.obj
 0001:0000e320       ?InitializeDerived@FilterWithBufferedInput@CryptoPP@@MAEXABVNameValuePairs@2@@Z 0040f320 f i PX Framework:File Manager.obj
 0001:0000e320       ?FirstPut@SimpleProxyFilter@CryptoPP@@UAEXPBE@Z 0040f320 f i PX Framework:File Manager.obj
 0001:0000e320       ?IsolatedInitialize@?$CustomSignalPropagation@VSink@CryptoPP@@@CryptoPP@@EAEXABVNameValuePairs@2@@Z 0040f320 f i cryptlib:filters.obj
 0001:0000e320       ?imbue@?$basic_streambuf@DU?$char_traits@D@std@@@std@@MAEXABVlocale@2@@Z 0040f320 f i PX Framework:System Management.obj
 0001:0000e320       ?AssertValidKeyLength@SimpleKeyingInterface@CryptoPP@@IBEXI@Z 0040f320 f i cryptlib:rijndael.obj
 0001:0000e320       ?IsolatedInitialize@BitBucket@CryptoPP@@UAEXABVNameValuePairs@2@@Z 0040f320 f i cryptlib:cryptlib.obj
 0001:0000e320       ?SetAutoSignalPropagation@BufferedTransformation@CryptoPP@@UAEXH@Z 0040f320 f i PX Framework:File Manager.obj
 0001:0000e320       ?StoreInitialize@BERGeneralDecoder@CryptoPP@@EAEXABVNameValuePairs@2@@Z 0040f320 f i cryptlib:integer.obj
 0001:0000e330       ??1?$basic_stringbuf@DU?$char_traits@D@std@@V?$allocator@D@2@@std@@UAE@XZ 0040f330 f i PX Framework:System Management.obj
 0001:0000e400       ??_G?$basic_ios@DU?$char_traits@D@std@@@std@@UAEPAXI@Z 0040f400 f i PX Framework:System Management.obj
 0001:0000e400       ??_E?$basic_ios@DU?$char_traits@D@std@@@std@@UAEPAXI@Z 0040f400 f i * CIL library *:* CIL module *
 0001:0000e460       ??_Gios_base@std@@UAEPAXI@Z 0040f460 f i PX Framework:System Management.obj
 0001:0000e460       ??_Eios_base@std@@UAEPAXI@Z 0040f460 f i * CIL library *:* CIL module *
 0001:0000e4c0       ??1?$basic_ios@DU?$char_traits@D@std@@@std@@UAE@XZ 0040f4c0 f i PX Framework:System Management.obj
 0001:0000e510       ??_D?$basic_stringstream@DU?$char_traits@D@std@@V?$allocator@D@2@@std@@QAEXXZ 0040f510 f i PX Framework:System Management.obj
 0001:0000e5d0       ??_E?$codecvt@DDU_Mbstatet@@@std@@MAEPAXI@Z 0040f5d0 f i * CIL library *:* CIL module *
 0001:0000e5d0       ??_G?$codecvt@DDU_Mbstatet@@@std@@MAEPAXI@Z 0040f5d0 f i PX Framework:File Manager.obj
 0001:0000e5d0       ??_G?$num_put@DV?$ostreambuf_iterator@DU?$char_traits@D@std@@@std@@@std@@MAEPAXI@Z 0040f5d0 f i PX Framework:System Management.obj
 0001:0000e5d0       ??_E?$num_put@DV?$ostreambuf_iterator@DU?$char_traits@D@std@@@std@@@std@@MAEPAXI@Z 0040f5d0 f i * CIL library *:* CIL module *
 0001:0000e600       ?do_put@?$num_put@DV?$ostreambuf_iterator@DU?$char_traits@D@std@@@std@@@std@@MBE?AV?$ostreambuf_iterator@DU?$char_traits@D@std@@@2@V32@AAVios_base@2@DPBX@Z 0040f600 f i PX Framework:System Management.obj
 0001:0000e670       ?do_put@?$num_put@DV?$ostreambuf_iterator@DU?$char_traits@D@std@@@std@@@std@@MBE?AV?$ostreambuf_iterator@DU?$char_traits@D@std@@@2@V32@AAVios_base@2@DO@Z 0040f670 f i PX Framework:System Management.obj
 0001:0000e870       ?_Ffmt@?$num_put@DV?$ostreambuf_iterator@DU?$char_traits@D@std@@@std@@@std@@ABAPADPADDH@Z 0040f870 f i PX Framework:System Management.obj
 0001:0000e930       ?_Fput@?$num_put@DV?$ostreambuf_iterator@DU?$char_traits@D@std@@@std@@@std@@ABA?AV?$ostreambuf_iterator@DU?$char_traits@D@std@@@2@V32@AAVios_base@2@DPBDI@Z 0040f930 f i PX Framework:System Management.obj
 0001:0000ed80       ?do_put@?$num_put@DV?$ostreambuf_iterator@DU?$char_traits@D@std@@@std@@@std@@MBE?AV?$ostreambuf_iterator@DU?$char_traits@D@std@@@2@V32@AAVios_base@2@DN@Z 0040fd80 f i PX Framework:System Management.obj
 0001:0000ef80       ?do_put@?$num_put@DV?$ostreambuf_iterator@DU?$char_traits@D@std@@@std@@@std@@MBE?AV?$ostreambuf_iterator@DU?$char_traits@D@std@@@2@V32@AAVios_base@2@D_K@Z 0040ff80 f i PX Framework:System Management.obj
 0001:0000f000       ?do_put@?$num_put@DV?$ostreambuf_iterator@DU?$char_traits@D@std@@@std@@@std@@MBE?AV?$ostreambuf_iterator@DU?$char_traits@D@std@@@2@V32@AAVios_base@2@D_J@Z 00410000 f i PX Framework:System Management.obj
 0001:0000f080       ?do_put@?$num_put@DV?$ostreambuf_iterator@DU?$char_traits@D@std@@@std@@@std@@MBE?AV?$ostreambuf_iterator@DU?$char_traits@D@std@@@2@V32@AAVios_base@2@DK@Z 00410080 f i PX Framework:System Management.obj
 0001:0000f100       ?assign@?$basic_string@DU?$char_traits@D@std@@V?$allocator@D@2@@std@@QAEAAV12@$$QAV12@@Z 00410100 f i PX Framework:System Management.obj
 0001:0000f180       ?do_put@?$num_put@DV?$ostreambuf_iterator@DU?$char_traits@D@std@@@std@@@std@@MBE?AV?$ostreambuf_iterator@DU?$char_traits@D@std@@@2@V32@AAVios_base@2@D_N@Z 00410180 f i PX Framework:System Management.obj
 0001:0000f390       ??_G?$ctype@D@std@@MAEPAXI@Z 00410390 f i PX Framework:System Management.obj
 0001:0000f390       ??_E?$ctype@D@std@@MAEPAXI@Z 00410390 f i * CIL library *:* CIL module *
 0001:0000f3f0       ?do_tolower@?$ctype@D@std@@MBEPBDPADPBD@Z 004103f0 f i PX Framework:System Management.obj
 0001:0000f440       ?do_tolower@?$ctype@D@std@@MBEDD@Z 00410440 f i PX Framework:System Management.obj
 0001:0000f460       ?do_toupper@?$ctype@D@std@@MBEPBDPADPBD@Z 00410460 f i PX Framework:System Management.obj
 0001:0000f4b0       ?do_toupper@?$ctype@D@std@@MBEDD@Z 004104b0 f i PX Framework:System Management.obj
 0001:0000f4d0       ?do_widen@?$ctype@D@std@@MBEDD@Z 004104d0 f i PX Framework:System Management.obj
 0001:0000f4e0       ?do_narrow@?$ctype@D@std@@MBEPBDPBD0DPAD@Z 004104e0 f i PX Framework:System Management.obj
 0001:0000f510       ?do_narrow@?$ctype@D@std@@MBEDDD@Z 00410510 f i PX Framework:System Management.obj
 0001:0000f520       ??$use_facet@V?$ctype@D@std@@@std@@YAABV?$ctype@D@0@ABVlocale@0@@Z 00410520 f i PX Framework:System Management.obj
 0001:0000f6a0       ?assign@?$basic_string@DU?$char_traits@D@std@@V?$allocator@D@2@@std@@QAEAAV12@ID@Z 004106a0 f i PX Framework:System Management.obj
 0001:0000f7e0       ?do_widen@?$ctype@D@std@@MBEPBDPBD0PAD@Z 004107e0 f i PX Framework:System Management.obj
 0001:0000f810       ??1facet@locale@std@@MAE@XZ 00410810 f i PX Framework:System Management.obj
 0001:0000f820       ??_E?$numpunct@D@std@@MAEPAXI@Z 00410820 f i * CIL library *:* CIL module *
 0001:0000f820       ??_G?$numpunct@D@std@@MAEPAXI@Z 00410820 f i PX Framework:System Management.obj
 0001:0000f870       ?do_decimal_point@?$numpunct@D@std@@MBEDXZ 00410870 f i PX Framework:System Management.obj
 0001:0000f880       ?do_falsename@?$numpunct@D@std@@MBE?AV?$basic_string@DU?$char_traits@D@std@@V?$allocator@D@2@@2@XZ 00410880 f i PX Framework:System Management.obj
 0001:0000f8c0       ?do_truename@?$numpunct@D@std@@MBE?AV?$basic_string@DU?$char_traits@D@std@@V?$allocator@D@2@@2@XZ 004108c0 f i PX Framework:System Management.obj
 0001:0000f900       ??1?$_Tidy_guard@V?$numpunct@D@std@@@std@@QAE@XZ 00410900 f i PX Framework:System Management.obj
 0001:0000f930       ??0_Locinfo@std@@QAE@PBD@Z 00410930 f i PX Framework:System Management.obj
 0001:0000f9e0       ??1?$_Yarn@_W@std@@QAE@XZ  004109e0 f i PX Framework:System Management.obj
 0001:0000f9e0       ??1?$_Yarn@D@std@@QAE@XZ   004109e0 f i PX Framework:System Management.obj
 0001:0000fa00       ??1_Locinfo@std@@QAE@XZ    00410a00 f i PX Framework:System Management.obj
 0001:0000fad0       ?_Getcat@?$numpunct@D@std@@SAIPAPBVfacet@locale@2@PBV42@@Z 00410ad0 f i PX Framework:System Management.obj
 0001:0000fc70       ??0bad_cast@std@@QAE@XZ    00410c70 f i PX Framework:System Management.obj
 0001:0000fc90       ??1length_error@std@@UAE@XZ 00410c90 f i libcpmt:xthrow.obj
 0001:0000fc90       ??1__non_rtti_object@std@@UAE@XZ 00410c90 f i libvcruntime:rtti.obj
 0001:0000fc90       ??1system_error@std@@UAE@XZ 00410c90 f i PX Framework:System Management.obj
 0001:0000fc90       ??1bad_alloc@std@@UAE@XZ   00410c90 f i libcpmt:xthrow.obj
 0001:0000fc90       ??1bad_cast@std@@UAE@XZ    00410c90 f i PX Framework:System Management.obj
 0001:0000fc90       ??1failure@ios_base@std@@UAE@XZ 00410c90 f i PX Framework:System Management.obj
 0001:0000fc90       ??1bad_exception@std@@UAE@XZ 00410c90 f i libvcruntime:frame.obj
 0001:0000fc90       ??1bad_function_call@std@@UAE@XZ 00410c90 f i libcpmt:xthrow.obj
 0001:0000fc90       ??1bad_array_new_length@std@@UAE@XZ 00410c90 f i LIBCMT:throw_bad_alloc.obj
 0001:0000fc90       ??1invalid_argument@std@@UAE@XZ 00410c90 f i libcpmt:xthrow.obj
 0001:0000fc90       ??1exception@std@@UAE@XZ   00410c90 f i PX Framework:System Management.obj
 0001:0000fc90       ??1runtime_error@std@@UAE@XZ 00410c90 f i PX Framework:System Management.obj
 0001:0000fc90       ??1out_of_range@std@@UAE@XZ 00410c90 f i libcpmt:xthrow.obj
 0001:0000fcb0       ??_Eexception@std@@UAEPAXI@Z 00410cb0 f i * CIL library *:* CIL module *
 0001:0000fcb0       ??_Ebad_cast@std@@UAEPAXI@Z 00410cb0 f i * CIL library *:* CIL module *
 0001:0000fcb0       ??_Eruntime_error@std@@UAEPAXI@Z 00410cb0 f i * CIL library *:* CIL module *
 0001:0000fcb0       ??_Gbad_cast@std@@UAEPAXI@Z 00410cb0 f i PX Framework:System Management.obj
 0001:0000fcb0       ??_Gexception@std@@UAEPAXI@Z 00410cb0 f i PX Framework:System Management.obj
 0001:0000fcb0       ??_Gruntime_error@std@@UAEPAXI@Z 00410cb0 f i PX Framework:System Management.obj
 0001:0000fce0       ??0bad_cast@std@@QAE@ABV01@@Z 00410ce0 f i PX Framework:System Management.obj
 0001:0000fd20       ??1?$unique_ptr@V_Facet_base@std@@U?$default_delete@V_Facet_base@std@@@2@@std@@QAE@XZ 00410d20 f i PX Framework:System Management.obj
 0001:0000fd20       ??1?$member_ptr@VBufferedTransformation@CryptoPP@@@CryptoPP@@QAE@XZ 00410d20 f i PX Framework:File Manager.obj
 0001:0000fd30       ??$use_facet@V?$numpunct@D@std@@@std@@YAABV?$numpunct@D@0@ABVlocale@0@@Z 00410d30 f i PX Framework:System Management.obj
 0001:0000fe60       ?_Incref@facet@locale@std@@UAEXXZ 00410e60 f i PX Framework:System Management.obj
 0001:0000fe70       ?_Decref@facet@locale@std@@UAEPAV_Facet_base@3@XZ 00410e70 f i PX Framework:System Management.obj
 0001:0000fe90       ??_G_Facet_base@std@@UAEPAXI@Z 00410e90 f i PX Framework:System Management.obj
 0001:0000fe90       ??_E_Facet_base@std@@UAEPAXI@Z 00410e90 f i * CIL library *:* CIL module *
 0001:0000fec0       ??1locale@std@@QAE@XZ      00410ec0 f i PX Framework:System Management.obj
 0001:0000fee0       ?do_grouping@?$numpunct@D@std@@MBE?AV?$basic_string@DU?$char_traits@D@std@@V?$allocator@D@2@@2@XZ 00410ee0 f i PX Framework:System Management.obj
 0001:0000ff20       ?do_thousands_sep@?$numpunct@D@std@@MBEDXZ 00410f20 f i PX Framework:System Management.obj
 0001:0000ff30       ??$_Reallocate_grow_by@V<lambda_6607a66f2a10a1261ff9db96cba1015b>@@IID@?$basic_string@DU?$char_traits@D@std@@V?$allocator@D@2@@std@@AAEAAV01@IV<lambda_6607a66f2a10a1261ff9db96cba1015b>@@IID@Z 00410f30 f i PX Framework:System Management.obj
 0001:000100b0       ?_Put@?$num_put@DV?$ostreambuf_iterator@DU?$char_traits@D@std@@@std@@@std@@ABA?AV?$ostreambuf_iterator@DU?$char_traits@D@std@@@2@V32@PBDI@Z 004110b0 f i PX Framework:System Management.obj
 0001:00010140       ?_Rep@?$num_put@DV?$ostreambuf_iterator@DU?$char_traits@D@std@@@std@@@std@@ABA?AV?$ostreambuf_iterator@DU?$char_traits@D@std@@@2@V32@DI@Z 00411140 f i PX Framework:System Management.obj
 0001:000101c0       ?_Iput@?$num_put@DV?$ostreambuf_iterator@DU?$char_traits@D@std@@@std@@@std@@ABA?AV?$ostreambuf_iterator@DU?$char_traits@D@std@@@2@V32@AAVios_base@2@DPADI@Z 004111c0 f i PX Framework:System Management.obj
 0001:000105b0       __vsprintf_s_l             004115b0 f i PX Framework:System Management.obj
 0001:000105f0       _sprintf_s                 004115f0 f i PX Framework:System Management.obj
 0001:00010610       ?_Ifmt@?$num_put@DV?$ostreambuf_iterator@DU?$char_traits@D@std@@@std@@@std@@ABAPADPADPBDH@Z 00411610 f i PX Framework:System Management.obj
 0001:000106a0       ?do_put@?$num_put@DV?$ostreambuf_iterator@DU?$char_traits@D@std@@@std@@@std@@MBE?AV?$ostreambuf_iterator@DU?$char_traits@D@std@@@2@V32@AAVios_base@2@DJ@Z 004116a0 f i PX Framework:System Management.obj
 0001:00010720       ?put@?$num_put@DV?$ostreambuf_iterator@DU?$char_traits@D@std@@@std@@@std@@QBE?AV?$ostreambuf_iterator@DU?$char_traits@D@std@@@2@V32@AAVios_base@2@DJ@Z 00411720 f i PX Framework:System Management.obj
 0001:00010750       ??6?$basic_ostream@DU?$char_traits@D@std@@@std@@QAEAAV01@H@Z 00411750 f i PX Framework:System Management.obj
 0001:000109c0       ??$?6DU?$char_traits@D@std@@D@std@@YAAAV?$basic_ostream@DU?$char_traits@D@std@@@0@AAV10@ABU?$_Fillobj@D@0@@Z 004119c0 f i PX Framework:System Management.obj
 0001:000109d0       ??$setfill@D@std@@YA?AU?$_Fillobj@D@0@D@Z 004119d0 f i PX Framework:System Management.obj
 0001:000109e0       ??6?$basic_ostream@DU?$char_traits@D@std@@@std@@QAEAAV01@P6AAAVios_base@1@AAV21@@Z@Z 004119e0 f i PX Framework:System Management.obj
 0001:00010a10       ??$?6DU?$char_traits@D@std@@_J@std@@YAAAV?$basic_ostream@DU?$char_traits@D@std@@@0@AAV10@ABU?$_Smanip@_J@0@@Z 00411a10 f i PX Framework:System Management.obj
 0001:00010a40       _PKCS12_PBE_add            00411a40 f i libcrypto:p12_crpt.obj
 0001:00010a40       @_guard_check_icall_nop@4  00411a40 f i LIBCMT:guard_support.obj
 0001:00010a40       _Curl_none_session_free    00411a40 f i libcurl:vtls.obj
 0001:00010a40       _Curl_none_cleanup         00411a40 f i libcurl:vtls.obj
 0001:00010a40       _comp_zlib_cleanup_int     00411a40 f i libcrypto:c_zlib.obj
 0001:00010a40       ?_Lock@?$basic_streambuf@DU?$char_traits@D@std@@@std@@UAEXXZ 00411a40 f i PX Framework:System Management.obj
 0001:00010a40       _Curl_none_close_all       00411a40 f i libcurl:vtls.obj
 0001:00010a40       _engine_load_rdrand_int    00411a40 f i libcrypto:eng_rdrand.obj
 0001:00010a40       __initialize_denormal_control 00411a40 f i LIBCMT:denormal_control.obj
 0001:00010a40       _OPENSSL_cpuid_setup       00411a40 f i libcrypto:cryptlib.obj
 0001:00010a40       _engine_load_padlock_int   00411a40 f i libcrypto:e_padlock.obj
 0001:00010a40       ?FlushDerived@FilterWithBufferedInput@CryptoPP@@MAEXXZ 00411a40 f i PX Framework:File Manager.obj
 0001:00010a40       __initialize_invalid_parameter_handler 00411a40 f i LIBCMT:invalid_parameter_handler.obj
 0001:00010a40       ?_Unlock@?$basic_streambuf@DU?$char_traits@D@std@@@std@@UAEXXZ 00411a40 f i PX Framework:System Management.obj
 0001:00010a50       ??0sentry@?$basic_ostream@DU?$char_traits@D@std@@@std@@QAE@AAV12@@Z 00411a50 f i PX Framework:System Management.obj
 0001:00010b60       ??1_Sentry_base@?$basic_ostream@DU?$char_traits@D@std@@@std@@QAE@XZ 00411b60 f i PX Framework:System Management.obj
 0001:00010bb0       __get_startup_new_mode     00411bb0 f i LIBCMT:new_mode.obj
 0001:00010bb0       __get_startup_commit_mode  00411bb0 f i LIBCMT:commit_mode.obj
 0001:00010bb0       __matherr                  00411bb0 f i LIBCMT:matherr.obj
 0001:00010bb0       ___scrt_initialize_winrt   00411bb0 f i LIBCMT:utility_desktop.obj
 0001:00010bb0       __get_startup_thread_locale_mode 00411bb0 f i LIBCMT:thread_locale.obj
 0001:00010bb0       ?IVSize@?$SimpleKeyingInterfaceImpl@V?$TwoBases@VBlockCipher@CryptoPP@@URijndael_Info@2@@CryptoPP@@V12@@CryptoPP@@UBEIXZ 00411bb0 f i PX Framework:Cryptography.obj
 0001:00010bb0       ?GetOptimalBlockSizeUsed@StreamTransformation@CryptoPP@@UBEIXZ 00411bb0 f i PX Framework:Cryptography.obj
 0001:00010bb0       ?NumberOfMessageSeries@BufferedTransformation@CryptoPP@@UBEIXZ 00411bb0 f i PX Framework:File Manager.obj
 0001:00010bb0       _Curl_none_shutdown        00411bb0 f i libcurl:vtls.obj
 0001:00010bb0       _FIPS_mode                 00411bb0 f i libcrypto:o_fips.obj
 0001:00010bb0       _Curl_none_engines_list    00411bb0 f i libcurl:vtls.obj
 0001:00010bb0       _Curl_resolver_global_init 00411bb0 f i libcurl:asyn-thread.obj
 0001:00010bb0       _EVP_aes_128_cbc_hmac_sha1 00411bb0 f i libcrypto:e_aes_cbc_hmac_sha1.obj
 0001:00010bb0       ___scrt_stub_for_initialize_mta 00411bb0 f i LIBCMT:utility_desktop.obj
 0001:00010bb0       _EVP_aes_256_cbc_hmac_sha1 00411bb0 f i libcrypto:e_aes_cbc_hmac_sha1.obj
 0001:00010bb0       ___scrt_exe_initialize_mta 00411bb0 f i LIBCMT:utility_desktop.obj
 0001:00010bb0       _EVP_aes_128_cbc_hmac_sha256 00411bb0 f i libcrypto:e_aes_cbc_hmac_sha256.obj
 0001:00010bb0       ?AttachedTransformation@BufferedTransformation@CryptoPP@@UAEPAV12@XZ 00411bb0 f i PX Framework:Cryptography.obj
 0001:00010bb0       _Curl_if2ip                00411bb0 f i libcurl:if2ip.obj
 0001:00010bb0       _Curl_posttransfer         00411bb0 f i libcurl:transfer.obj
 0001:00010bb0       ?GetAutoSignalPropagation@BufferedTransformation@CryptoPP@@UBEHXZ 00411bb0 f i PX Framework:File Manager.obj
 0001:00010bb0       _CRYPTO_THREAD_get_current_id 00411bb0 f i libcrypto:threads_none.obj
 0001:00010bb0       ?ToEnum@?$EnumToType@W4ByteOrder@CryptoPP@@$0A@@CryptoPP@@SA?AW4ByteOrder@2@XZ 00411bb0 f i cryptlib:rijndael.obj
 0001:00010bb0       _CRYPTO_mem_ctrl           00411bb0 f i libcrypto:mem_dbg.obj
 0001:00010bb0       ?MinLastBlockSize@CBC_ModeBase@CryptoPP@@UBEIXZ 00411bb0 f i PX Framework:Cryptography.obj
 0001:00010bb0       ?GetNativeByteOrder@CryptoPP@@YA?AW4ByteOrder@1@XZ 00411bb0 f i cryptlib:rijndael.obj
 0001:00010bb0       ?sync@?$basic_streambuf@DU?$char_traits@D@std@@@std@@MAEHXZ 00411bb0 f i PX Framework:System Management.obj
 0001:00010bb0       _EVP_aes_256_cbc_hmac_sha256 00411bb0 f i libcrypto:e_aes_cbc_hmac_sha256.obj
 0001:00010bc0       ?_Osfx@?$basic_ostream@DU?$char_traits@D@std@@@std@@QAEXXZ 00411bc0 f i PX Framework:System Management.obj
 0001:00010c50       ??1sentry@?$basic_ostream@DU?$char_traits@D@std@@@std@@QAE@XZ 00411c50 f i PX Framework:System Management.obj
 0001:00010cc0       ?xsputn@?$basic_streambuf@DU?$char_traits@D@std@@@std@@MAE_JPBD_J@Z 00411cc0 f i PX Framework:System Management.obj
 0001:00010da0       ?_Pnavail@?$basic_streambuf@DU?$char_traits@D@std@@@std@@IBE_JXZ 00411da0 f i PX Framework:System Management.obj
 0001:00010dc0       ??0?$basic_string@DU?$char_traits@D@std@@V?$allocator@D@2@@std@@QAE@ABV01@@Z 00411dc0 f i PX Framework:System Management.obj
 0001:00010e90       ??0_System_error@std@@IAE@Verror_code@1@ABV?$basic_string@DU?$char_traits@D@std@@V?$allocator@D@2@@1@@Z 00411e90 f i PX Framework:System Management.obj
 0001:00011060       ??0failure@ios_base@std@@QAE@PBDABVerror_code@2@@Z 00412060 f i PX Framework:System Management.obj
 0001:00011130       ??_G_Generic_error_category@std@@UAEPAXI@Z 00412130 f i PX Framework:System Management.obj
 0001:00011130       ??_E_Generic_error_category@std@@UAEPAXI@Z 00412130 f i * CIL library *:* CIL module *
 0001:00011130       ??_G_Iostream_error_category@std@@UAEPAXI@Z 00412130 f i PX Framework:System Management.obj
 0001:00011130       ??_G?$output_string_adapter@D@detail@nlohmann@@UAEPAXI@Z 00412130 f i PX Framework:Connectivity.obj
 0001:00011130       ??_E?$output_string_adapter@D@detail@nlohmann@@UAEPAXI@Z 00412130 f i * CIL library *:* CIL module *
 0001:00011130       ??_E_Iostream_error_category@std@@UAEPAXI@Z 00412130 f i * CIL library *:* CIL module *
 0001:00011150       ?name@_Generic_error_category@std@@UBEPBDXZ 00412150 f i PX Framework:System Management.obj
 0001:00011160       ?name@_Iostream_error_category@std@@UBEPBDXZ 00412160 f i PX Framework:System Management.obj
 0001:00011170       ?message@_Generic_error_category@std@@UBE?AV?$basic_string@DU?$char_traits@D@std@@V?$allocator@D@2@@2@H@Z 00412170 f i PX Framework:System Management.obj
 0001:000111c0       ?message@_Iostream_error_category@std@@UBE?AV?$basic_string@DU?$char_traits@D@std@@V?$allocator@D@2@@2@H@Z 004121c0 f i PX Framework:System Management.obj
 0001:00011240       ?equivalent@error_category@std@@UBE_NABVerror_code@2@H@Z 00412240 f i PX Framework:System Management.obj
 0001:00011270       ?default_error_condition@error_category@std@@UBE?AVerror_condition@2@H@Z 00412270 f i PX Framework:System Management.obj
 0001:00011290       ?equivalent@error_category@std@@UBE_NHABVerror_condition@2@@Z 00412290 f i PX Framework:System Management.obj
 0001:000112d0       ??$_Immortalize_impl@V_Iostream_error_category@std@@@std@@YGHPAX0PAPAX@Z 004122d0 f i PX Framework:System Management.obj
 0001:000112f0       ?make_error_code@std@@YA?AVerror_code@1@W4io_errc@1@@Z 004122f0 f i PX Framework:System Management.obj
 0001:00011330       ??_Gsystem_error@std@@UAEPAXI@Z 00412330 f i PX Framework:System Management.obj
 0001:00011330       ??_E_System_error@std@@UAEPAXI@Z 00412330 f i * CIL library *:* CIL module *
 0001:00011330       ??_Esystem_error@std@@UAEPAXI@Z 00412330 f i * CIL library *:* CIL module *
 0001:00011330       ??_Gfailure@ios_base@std@@UAEPAXI@Z 00412330 f i PX Framework:System Management.obj
 0001:00011330       ??_G_System_error@std@@UAEPAXI@Z 00412330 f i PX Framework:System Management.obj
 0001:00011330       ??_Efailure@ios_base@std@@UAEPAXI@Z 00412330 f i * CIL library *:* CIL module *
 0001:00011360       ??0failure@ios_base@std@@QAE@ABV012@@Z 00412360 f i PX Framework:System Management.obj
 0001:000113b0       ??0system_error@std@@QAE@ABV01@@Z 004123b0 f i PX Framework:System Management.obj
 0001:00011400       ??0_System_error@std@@QAE@ABV01@@Z 00412400 f i PX Framework:System Management.obj
 0001:00011450       ?clear@ios_base@std@@QAEXH_N@Z 00412450 f i PX Framework:System Management.obj
 0001:000114d0       ?setstate@?$basic_ios@DU?$char_traits@D@std@@@std@@QAEXH_N@Z 004124d0 f i PX Framework:System Management.obj
 0001:00011500       ??$?6U?$char_traits@D@std@@@std@@YAAAV?$basic_ostream@DU?$char_traits@D@std@@@0@AAV10@PBD@Z 00412500 f i PX Framework:System Management.obj
 0001:00011750       ?uppercase@std@@YAAAVios_base@1@AAV21@@Z 00412750 f i PX Framework:System Management.obj
 0001:00011760       ?hex@std@@YAAAVios_base@1@AAV21@@Z 00412760 f i PX Framework:System Management.obj
 0001:00011780       ?str@?$basic_stringstream@DU?$char_traits@D@std@@V?$allocator@D@2@@std@@QBE?AV?$basic_string@DU?$char_traits@D@std@@V?$allocator@D@2@@2@XZ 00412780 f i PX Framework:System Management.obj
 0001:00011840       ??$_Reallocate_grow_by@V<lambda_15711c68e099a15a58f4d77303cb286d>@@D@?$basic_string@DU?$char_traits@D@std@@V?$allocator@D@2@@std@@AAEAAV01@IV<lambda_15711c68e099a15a58f4d77303cb286d>@@D@Z 00412840 f i PX Framework:System Management.obj
 0001:00011980       ?get_token_string@?$lexer@V?$basic_json@Vmap@std@@Vvector@2@V?$basic_string@DU?$char_traits@D@std@@V?$allocator@D@2@@2@_NHINVallocator@2@Uadl_serializer@nlohmann@@@nlohmann@@@detail@nlohmann@@QBE?AV?$basic_string@DU?$char_traits@D@std@@V?$allocator@D@2@@std@@XZ 00412980 f i PX Framework:System Management.obj
 0001:00011c30       ?token_type_name@?$lexer@V?$basic_json@Vmap@std@@Vvector@2@V?$basic_string@DU?$char_traits@D@std@@V?$allocator@D@2@@2@_NHINVallocator@2@Uadl_serializer@nlohmann@@@nlohmann@@@detail@nlohmann@@SAPBDW4token_type@123@@Z 00412c30 f i PX Framework:System Management.obj
 0001:00011ce0       ??$?HDU?$char_traits@D@std@@V?$allocator@D@1@@std@@YA?AV?$basic_string@DU?$char_traits@D@std@@V?$allocator@D@2@@0@QBD$$QAV10@@Z 00412ce0 f i PX Framework:System Management.obj
 0001:00011d40       ?to_string@std@@YA?AV?$basic_string@DU?$char_traits@D@std@@V?$allocator@D@2@@1@I@Z 00412d40 f i PX Framework:System Management.obj
 0001:00011dc0       ?create@parse_error@detail@nlohmann@@SA?AV123@HIABV?$basic_string@DU?$char_traits@D@std@@V?$allocator@D@2@@std@@@Z 00412dc0 f i PX Framework:System Management.obj
 0001:00012370       ?GetAutoSignalPropagation@?$AutoSignaling@VBufferedTransformation@CryptoPP@@@CryptoPP@@UBEHXZ 00413370 f i cryptlib:mqueue.obj
 0001:00012370       ?GetAutoSignalPropagation@?$AutoSignaling@V?$InputRejecting@VBufferedTransformation@CryptoPP@@@CryptoPP@@@CryptoPP@@UBEHXZ 00413370 f i PX Framework:Cryptography.obj
 0001:00012370       ?get_position@?$lexer@V?$basic_json@Vmap@std@@Vvector@2@V?$basic_string@DU?$char_traits@D@std@@V?$allocator@D@2@@2@_NHINVallocator@2@Uadl_serializer@nlohmann@@@nlohmann@@@detail@nlohmann@@QBEIXZ 00413370 f i PX Framework:System Management.obj
 0001:00012380       ??_Gparse_error@detail@nlohmann@@UAEPAXI@Z 00413380 f i PX Framework:System Management.obj
 0001:00012380       ??_Eparse_error@detail@nlohmann@@UAEPAXI@Z 00413380 f i * CIL library *:* CIL module *
 0001:000123c0       ??0parse_error@detail@nlohmann@@QAE@ABV012@@Z 004133c0 f i PX Framework:System Management.obj
 0001:00012430       ?throw_exception@?$parser@V?$basic_json@Vmap@std@@Vvector@2@V?$basic_string@DU?$char_traits@D@std@@V?$allocator@D@2@@2@_NHINVallocator@2@Uadl_serializer@nlohmann@@@nlohmann@@@detail@nlohmann@@ABEXXZ 00413430 f i PX Framework:System Management.obj
 0001:00012840       ?_Buyheadnode@?$_Tree_comp_alloc@V?$_Tmap_traits@V?$basic_string@DU?$char_traits@D@std@@V?$allocator@D@2@@std@@V?$basic_json@Vmap@std@@Vvector@2@V?$basic_string@DU?$char_traits@D@std@@V?$allocator@D@2@@2@_NHINVallocator@2@Uadl_serializer@nlohmann@@@nlohmann@@U?$less@X@2@V?$allocator@U?$pair@$$CBV?$basic_string@DU?$char_traits@D@std@@V?$allocator@D@2@@std@@V?$basic_json@Vmap@std@@Vvector@2@V?$basic_string@DU?$char_traits@D@std@@V?$allocator@D@2@@2@_NHINVallocator@2@Uadl_serializer@nlohmann@@@nlohmann@@@std@@@2@$0A@@std@@@std@@QAEPAU?$_Tree_node@U?$pair@$$CBV?$basic_string@DU?$char_traits@D@std@@V?$allocator@D@2@@std@@V?$basic_json@Vmap@std@@Vvector@2@V?$basic_string@DU?$char_traits@D@std@@V?$allocator@D@2@@2@_NHINVallocator@2@Uadl_serializer@nlohmann@@@nlohmann@@@std@@PAX@2@XZ 00413840 f i PX Framework:System Management.obj
 0001:00012860       ?_Xran@?$_String_val@U?$_Simple_types@D@std@@@std@@SAXXZ 00413860 f i PX Framework:System Management.obj
 0001:00012870       ??$_Reallocate_grow_by@V<lambda_4d79bb85f269e6e8002a4599002d832c>@@IPBDI@?$basic_string@DU?$char_traits@D@std@@V?$allocator@D@2@@std@@AAEAAV01@IV<lambda_4d79bb85f269e6e8002a4599002d832c>@@IPBDI@Z 00413870 f i PX Framework:System Management.obj
 0001:000129f0       ?insert@?$basic_string@DU?$char_traits@D@std@@V?$allocator@D@2@@std@@QAEAAV12@IQBDI@Z 004139f0 f i PX Framework:System Management.obj
 0001:00012ac0       ??$?HDU?$char_traits@D@std@@V?$allocator@D@1@@std@@YA?AV?$basic_string@DU?$char_traits@D@std@@V?$allocator@D@2@@0@$$QAV10@0@Z 00413ac0 f i PX Framework:System Management.obj
 0001:00012b40       ?to_string@std@@YA?AV?$basic_string@DU?$char_traits@D@std@@V?$allocator@D@2@@1@H@Z 00413b40 f i PX Framework:System Management.obj
 0001:00012bf0       ?reserve@?$basic_string@DU?$char_traits@D@std@@V?$allocator@D@2@@std@@QAEXI@Z 00413bf0 f i PX Framework:System Management.obj
 0001:00012d90       ??$?HDU?$char_traits@D@std@@V?$allocator@D@1@@std@@YA?AV?$basic_string@DU?$char_traits@D@std@@V?$allocator@D@2@@0@QBDABV10@@Z 00413d90 f i PX Framework:System Management.obj
 0001:00012e30       ?name@exception@detail@nlohmann@@KA?AV?$basic_string@DU?$char_traits@D@std@@V?$allocator@D@2@@std@@ABV45@H@Z 00413e30 f i PX Framework:System Management.obj
 0001:00013050       ??0exception@std@@QAE@QBD@Z 00414050 f i PX Framework:System Management.obj
 0001:000130a0       ??0runtime_error@std@@QAE@PBD@Z 004140a0 f i PX Framework:System Management.obj
 0001:00013100       ?create@other_error@detail@nlohmann@@SA?AV123@HABV?$basic_string@DU?$char_traits@D@std@@V?$allocator@D@2@@std@@@Z 00414100 f i PX Framework:System Management.obj
 0001:000132e0       ??0other_error@detail@nlohmann@@QAE@ABV012@@Z 004142e0 f i PX Framework:System Management.obj
 0001:00013350       ?what@exception@detail@nlohmann@@UBEPBDXZ 00414350 f i PX Framework:System Management.obj
 0001:00013390       ??0runtime_error@std@@QAE@ABV01@@Z 00414390 f i PX Framework:System Management.obj
 0001:000133d0       ??0exception@detail@nlohmann@@QAE@ABV012@@Z 004143d0 f i PX Framework:System Management.obj
 0001:00013430       ?what@exception@std@@UBEPBDXZ 00414430 f i PX Framework:System Management.obj
 0001:00013440       ??0exception@std@@QAE@ABV01@@Z 00414440 f i PX Framework:System Management.obj
 0001:00013470       ??0json_value@?$basic_json@Vmap@std@@Vvector@2@V?$basic_string@DU?$char_traits@D@std@@V?$allocator@D@2@@2@_NHINVallocator@2@Uadl_serializer@nlohmann@@@nlohmann@@QAE@W4value_t@detail@2@@Z 00414470 f i PX Framework:System Management.obj
 0001:00013600       ?append@?$basic_string@DU?$char_traits@D@std@@V?$allocator@D@2@@std@@QAEAAV12@ABV12@@Z 00414600 f i PX Framework:System Management.obj
 0001:00013680       ??Y?$basic_string@DU?$char_traits@D@std@@V?$allocator@D@2@@std@@QAEAAV01@ABV01@@Z 00414680 f i PX Framework:System Management.obj
 0001:00013690       ??1input_adapter@detail@nlohmann@@QAE@XZ 00414690 f i PX Framework:System Management.obj
 0001:00013690       ??1?$shared_ptr@Uinput_adapter_protocol@detail@nlohmann@@@std@@QAE@XZ 00414690 f i PX Framework:System Management.obj
 0001:00013690       ??1?$shared_ptr@U?$output_adapter_protocol@D@detail@nlohmann@@@std@@QAE@XZ 00414690 f i PX Framework:Connectivity.obj
 0001:00013690       ??1?$output_adapter@D@detail@nlohmann@@QAE@XZ 00414690 f i PX Framework:Connectivity.obj
 0001:000136c0       ??1?$_Func_class@_NHW4parse_event_t@?$parser@V?$basic_json@Vmap@std@@Vvector@2@V?$basic_string@DU?$char_traits@D@std@@V?$allocator@D@2@@2@_NHINVallocator@2@Uadl_serializer@nlohmann@@@nlohmann@@@detail@nlohmann@@AAV?$basic_json@Vmap@std@@Vvector@2@V?$basic_string@DU?$char_traits@D@std@@V?$allocator@D@2@@2@_NHINVallocator@2@Uadl_serializer@nlohmann@@@4@@std@@QAE@XZ 004146c0 f i PX Framework:System Management.obj
 0001:000136c0       ??1?$function@$$A6A_NHW4parse_event_t@?$parser@V?$basic_json@Vmap@std@@Vvector@2@V?$basic_string@DU?$char_traits@D@std@@V?$allocator@D@2@@2@_NHINVallocator@2@Uadl_serializer@nlohmann@@@nlohmann@@@detail@nlohmann@@AAV?$basic_json@Vmap@std@@Vvector@2@V?$basic_string@DU?$char_traits@D@std@@V?$allocator@D@2@@2@_NHINVallocator@2@Uadl_serializer@nlohmann@@@4@@Z@std@@QAE@XZ 004146c0 f i PX Framework:System Management.obj
 0001:000136f0       ??1?$_Tree_comp_alloc@V?$_Tmap_traits@V?$basic_string@DU?$char_traits@D@std@@V?$allocator@D@2@@std@@V?$basic_json@Vmap@std@@Vvector@2@V?$basic_string@DU?$char_traits@D@std@@V?$allocator@D@2@@2@_NHINVallocator@2@Uadl_serializer@nlohmann@@@nlohmann@@U?$less@X@2@V?$allocator@U?$pair@$$CBV?$basic_string@DU?$char_traits@D@std@@V?$allocator@D@2@@std@@V?$basic_json@Vmap@std@@Vvector@2@V?$basic_string@DU?$char_traits@D@std@@V?$allocator@D@2@@2@_NHINVallocator@2@Uadl_serializer@nlohmann@@@nlohmann@@@std@@@2@$0A@@std@@@std@@QAE@XZ 004146f0 f i PX Framework:System Management.obj
 0001:00013700       ?_Erase@?$_Tree@V?$_Tmap_traits@V?$basic_string@DU?$char_traits@D@std@@V?$allocator@D@2@@std@@V?$basic_json@Vmap@std@@Vvector@2@V?$basic_string@DU?$char_traits@D@std@@V?$allocator@D@2@@2@_NHINVallocator@2@Uadl_serializer@nlohmann@@@nlohmann@@U?$less@X@2@V?$allocator@U?$pair@$$CBV?$basic_string@DU?$char_traits@D@std@@V?$allocator@D@2@@std@@V?$basic_json@Vmap@std@@Vvector@2@V?$basic_string@DU?$char_traits@D@std@@V?$allocator@D@2@@2@_NHINVallocator@2@Uadl_serializer@nlohmann@@@nlohmann@@@std@@@2@$0A@@std@@@std@@IAEXPAU?$_Tree_node@U?$pair@$$CBV?$basic_string@DU?$char_traits@D@std@@V?$allocator@D@2@@std@@V?$basic_json@Vmap@std@@Vvector@2@V?$basic_string@DU?$char_traits@D@std@@V?$allocator@D@2@@2@_NHINVallocator@2@Uadl_serializer@nlohmann@@@nlohmann@@@std@@PAX@2@@Z 00414700 f i PX Framework:System Management.obj
 0001:00013790       ?_Destroy@?$vector@V?$basic_json@Vmap@std@@Vvector@2@V?$basic_string@DU?$char_traits@D@std@@V?$allocator@D@2@@2@_NHINVallocator@2@Uadl_serializer@nlohmann@@@nlohmann@@V?$allocator@V?$basic_json@Vmap@std@@Vvector@2@V?$basic_string@DU?$char_traits@D@std@@V?$allocator@D@2@@2@_NHINVallocator@2@Uadl_serializer@nlohmann@@@nlohmann@@@std@@@std@@AAEXPAV?$basic_json@Vmap@std@@Vvector@2@V?$basic_string@DU?$char_traits@D@std@@V?$allocator@D@2@@2@_NHINVallocator@2@Uadl_serializer@nlohmann@@@nlohmann@@0@Z 00414790 f i PX Framework:System Management.obj
 0001:000137c0       ?deallocate@?$allocator@V?$basic_json@Vmap@std@@Vvector@2@V?$basic_string@DU?$char_traits@D@std@@V?$allocator@D@2@@2@_NHINVallocator@2@Uadl_serializer@nlohmann@@@nlohmann@@@std@@QAEXQAV?$basic_json@Vmap@std@@Vvector@2@V?$basic_string@DU?$char_traits@D@std@@V?$allocator@D@2@@2@_NHINVallocator@2@Uadl_serializer@nlohmann@@@nlohmann@@I@Z 004147c0 f i PX Framework:System Management.obj
 0001:00013800       ?_Tidy@?$vector@V?$basic_json@Vmap@std@@Vvector@2@V?$basic_string@DU?$char_traits@D@std@@V?$allocator@D@2@@2@_NHINVallocator@2@Uadl_serializer@nlohmann@@@nlohmann@@V?$allocator@V?$basic_json@Vmap@std@@Vvector@2@V?$basic_string@DU?$char_traits@D@std@@V?$allocator@D@2@@2@_NHINVallocator@2@Uadl_serializer@nlohmann@@@nlohmann@@@std@@@std@@AAEXXZ 00414800 f i PX Framework:System Management.obj
 0001:00013880       ?destroy@json_value@?$basic_json@Vmap@std@@Vvector@2@V?$basic_string@DU?$char_traits@D@std@@V?$allocator@D@2@@2@_NHINVallocator@2@Uadl_serializer@nlohmann@@@nlohmann@@QAEXW4value_t@detail@3@@Z 00414880 f i PX Framework:System Management.obj
 0001:000139b0       ??4?$basic_string@_WU?$char_traits@_W@std@@V?$allocator@_W@2@@std@@QAEAAV01@$$QAV01@@Z 004149b0 f i PX Framework:System Management.obj
 0001:00013a40       ??1_bstr_t@@QAE@XZ         00414a40 f i PX Framework:System Management.obj
 0001:00013aa0       ??0_bstr_t@@QAE@PB_W@Z     00414aa0 f i PX Framework:System Management.obj
 0001:00013b50       ??0?$basic_string@_WU?$char_traits@_W@std@@V?$allocator@_W@2@@std@@QAE@XZ 00414b50 f i PX Framework:System Management.obj
 0001:00013b70       ??0SPostData@Types@PX@@QAE@V?$basic_string@DU?$char_traits@D@std@@V?$allocator@D@2@@std@@0@Z 00414b70 f i PX Framework:Connectivity.obj
 0001:00013d00       ?GeneratePostData@Net@PX@@YA?AV?$basic_string@DU?$char_traits@D@std@@V?$allocator@D@2@@std@@ABV?$deque@USPostData@Types@PX@@V?$allocator@USPostData@Types@PX@@@std@@@4@@Z 00414d00 f   PX Framework:Connectivity.obj
 0001:000141a0       ?Request@Net@PX@@YA?AV?$basic_string@DU?$char_traits@D@std@@V?$allocator@D@2@@std@@ABV34@ABV?$deque@USPostData@Types@PX@@V?$allocator@USPostData@Types@PX@@@std@@@4@@Z 004151a0 f   PX Framework:Connectivity.obj
 0001:000146c0       ?RequestExtension@Net@PX@@YA?AV?$basic_string@DU?$char_traits@D@std@@V?$allocator@D@2@@std@@I_N@Z 004156c0 f   PX Framework:Connectivity.obj
 0001:00014830       ??$emplace_back@AAV?$basic_string@DU?$char_traits@D@std@@V?$allocator@D@2@@std@@V12@@?$deque@USPostData@Types@PX@@V?$allocator@USPostData@Types@PX@@@std@@@std@@QAEAAUSPostData@Types@PX@@AAV?$basic_string@DU?$char_traits@D@std@@V?$allocator@D@2@@1@$$QAV51@@Z 00415830 f i PX Framework:Connectivity.obj
 0001:00014960       ??$emplace_back@AAV?$basic_string@DU?$char_traits@D@std@@V?$allocator@D@2@@std@@PBD@?$deque@USPostData@Types@PX@@V?$allocator@USPostData@Types@PX@@@std@@@std@@QAEAAUSPostData@Types@PX@@AAV?$basic_string@DU?$char_traits@D@std@@V?$allocator@D@2@@1@$$QAPBD@Z 00415960 f i PX Framework:Connectivity.obj
 0001:00014a90       ?CreateLicenseFile@Net@PX@@YA_NXZ 00415a90 f   PX Framework:Connectivity.obj
 0001:00014ee0       ??$emplace_back@PBDPBD@?$deque@USPostData@Types@PX@@V?$allocator@USPostData@Types@PX@@@std@@@std@@QAEAAUSPostData@Types@PX@@$$QAPBD0@Z 00415ee0 f i PX Framework:Connectivity.obj
 0001:00015030       ?Login@Net@PX@@YA?AW4ELogin@12@PA_N@Z 00416030 f   PX Framework:Connectivity.obj
 0001:00015d70       ?_Growmap@?$deque@USPostData@Types@PX@@V?$allocator@USPostData@Types@PX@@@std@@@std@@IAEXI@Z 00416d70 f i PX Framework:Connectivity.obj
 0001:00015f10       ??A?$basic_json@Vmap@std@@Vvector@2@V?$basic_string@DU?$char_traits@D@std@@V?$allocator@D@2@@2@_NHINVallocator@2@Uadl_serializer@nlohmann@@@nlohmann@@QAEAAV01@ABV?$basic_string@DU?$char_traits@D@std@@V?$allocator@D@2@@std@@@Z 00416f10 f i PX Framework:Connectivity.obj
 0001:00016020       ?_Xlen@?$deque@IV?$allocator@I@std@@@std@@IBEXXZ 00417020 f i cryptlib:mqueue.obj
 0001:00016020       ?_Xlen@?$deque@USPostData@Types@PX@@V?$allocator@USPostData@Types@PX@@@std@@@std@@IBEXXZ 00417020 f i PX Framework:Connectivity.obj
 0001:00016020       ?_Xlen@?$deque@_KV?$allocator@_K@std@@@std@@IBEXXZ 00417020 f i cryptlib:mqueue.obj
 0001:00016030       ??A?$map@V?$basic_string@DU?$char_traits@D@std@@V?$allocator@D@2@@std@@V?$basic_json@Vmap@std@@Vvector@2@V?$basic_string@DU?$char_traits@D@std@@V?$allocator@D@2@@2@_NHINVallocator@2@Uadl_serializer@nlohmann@@@nlohmann@@U?$less@X@2@V?$allocator@U?$pair@$$CBV?$basic_string@DU?$char_traits@D@std@@V?$allocator@D@2@@std@@V?$basic_json@Vmap@std@@Vvector@2@V?$basic_string@DU?$char_traits@D@std@@V?$allocator@D@2@@2@_NHINVallocator@2@Uadl_serializer@nlohmann@@@nlohmann@@@std@@@2@@std@@QAEAAV?$basic_json@Vmap@std@@Vvector@2@V?$basic_string@DU?$char_traits@D@std@@V?$allocator@D@2@@2@_NHINVallocator@2@Uadl_serializer@nlohmann@@@nlohmann@@ABV?$basic_string@DU?$char_traits@D@std@@V?$allocator@D@2@@1@@Z 00417030 f i PX Framework:Connectivity.obj
 0001:000160d0       ??$_Buynode@ABUpiecewise_construct_t@std@@V?$tuple@ABV?$basic_string@DU?$char_traits@D@std@@V?$allocator@D@2@@std@@@2@V?$tuple@$$V@2@@?$_Tree_comp_alloc@V?$_Tmap_traits@V?$basic_string@DU?$char_traits@D@std@@V?$allocator@D@2@@std@@V?$basic_json@Vmap@std@@Vvector@2@V?$basic_string@DU?$char_traits@D@std@@V?$allocator@D@2@@2@_NHINVallocator@2@Uadl_serializer@nlohmann@@@nlohmann@@U?$less@X@2@V?$allocator@U?$pair@$$CBV?$basic_string@DU?$char_traits@D@std@@V?$allocator@D@2@@std@@V?$basic_json@Vmap@std@@Vvector@2@V?$basic_string@DU?$char_traits@D@std@@V?$allocator@D@2@@2@_NHINVallocator@2@Uadl_serializer@nlohmann@@@nlohmann@@@std@@@2@$0A@@std@@@std@@QAEPAU?$_Tree_node@U?$pair@$$CBV?$basic_string@DU?$char_traits@D@std@@V?$allocator@D@2@@std@@V?$basic_json@Vmap@std@@Vvector@2@V?$basic_string@DU?$char_traits@D@std@@V?$allocator@D@2@@2@_NHINVallocator@2@Uadl_serializer@nlohmann@@@nlohmann@@@std@@PAX@1@ABUpiecewise_construct_t@1@$$QAV?$tuple@ABV?$basic_string@DU?$char_traits@D@std@@V?$allocator@D@2@@std@@@1@$$QAV?$tuple@$$V@1@@Z 004170d0 f i PX Framework:Connectivity.obj
 0001:00016160       ??_E?$_Ref_count_obj@V?$output_string_adapter@D@detail@nlohmann@@@std@@UAEPAXI@Z 00417160 f i * CIL library *:* CIL module *
 0001:00016160       ??_G?$_Ref_count_obj@V?$output_string_adapter@D@detail@nlohmann@@@std@@UAEPAXI@Z 00417160 f i PX Framework:Connectivity.obj
 0001:00016180       ?write_character@?$output_string_adapter@D@detail@nlohmann@@UAEXD@Z 00417180 f i PX Framework:Connectivity.obj
 0001:000161d0       ?write_characters@?$output_string_adapter@D@detail@nlohmann@@UAEXPBDI@Z 004171d0 f i PX Framework:Connectivity.obj
 0001:00016230       ??1?$serializer@V?$basic_json@Vmap@std@@Vvector@2@V?$basic_string@DU?$char_traits@D@std@@V?$allocator@D@2@@2@_NHINVallocator@2@Uadl_serializer@nlohmann@@@nlohmann@@@detail@nlohmann@@QAE@XZ 00417230 f i PX Framework:Connectivity.obj
 0001:000162c0       _vsnprintf                 004172c0 f i PX Framework:Connectivity.obj
 0001:00016300       _snprintf                  00417300 f i PX Framework:Connectivity.obj
 0001:00016320       ?back@?$basic_string@DU?$char_traits@D@std@@V?$allocator@D@2@@std@@QBEABDXZ 00417320 f i PX Framework:Connectivity.obj
 0001:00016340       ?dump_escaped@?$serializer@V?$basic_json@Vmap@std@@Vvector@2@V?$basic_string@DU?$char_traits@D@std@@V?$allocator@D@2@@2@_NHINVallocator@2@Uadl_serializer@nlohmann@@@nlohmann@@@detail@nlohmann@@AAEXABV?$basic_string@DU?$char_traits@D@std@@V?$allocator@D@2@@std@@_N@Z 00417340 f i PX Framework:Connectivity.obj
 0001:00016820       ?mul@diyfp@dtoa_impl@detail@nlohmann@@SA?AU1234@ABU1234@0@Z 00417820 f i PX Framework:Connectivity.obj
 0001:000168d0       ?grisu2_round@dtoa_impl@detail@nlohmann@@YAXPADH_K111@Z 004178d0 f i PX Framework:Connectivity.obj
 0001:00016980       ?grisu2_digit_gen@dtoa_impl@detail@nlohmann@@YAXPADAAH1Udiyfp@123@22@Z 00417980 f i PX Framework:Connectivity.obj
 0001:00016c50       ??$grisu2@N@dtoa_impl@detail@nlohmann@@YAXPADAAH1N@Z 00417c50 f i PX Framework:Connectivity.obj
 0001:00016f20       ?format_buffer@dtoa_impl@detail@nlohmann@@YAPADPADHHHH@Z 00417f20 f i PX Framework:Connectivity.obj
 0001:000170b0       ?dump@?$serializer@V?$basic_json@Vmap@std@@Vvector@2@V?$basic_string@DU?$char_traits@D@std@@V?$allocator@D@2@@2@_NHINVallocator@2@Uadl_serializer@nlohmann@@@nlohmann@@@detail@nlohmann@@QAEXABV?$basic_json@Vmap@std@@Vvector@2@V?$basic_string@DU?$char_traits@D@std@@V?$allocator@D@2@@2@_NHINVallocator@2@Uadl_serializer@nlohmann@@@3@_N1II@Z 004180b0 f i PX Framework:Connectivity.obj
 0001:00017920       ?dump@?$basic_json@Vmap@std@@Vvector@2@V?$basic_string@DU?$char_traits@D@std@@V?$allocator@D@2@@2@_NHINVallocator@2@Uadl_serializer@nlohmann@@@nlohmann@@QBE?AV?$basic_string@DU?$char_traits@D@std@@V?$allocator@D@2@@std@@HD_N@Z 00418920 f i PX Framework:Connectivity.obj
 0001:00017b70       ?GetExecutableDirectory@Files@PX@@YA?AV?$basic_string@_WU?$char_traits@_W@std@@V?$allocator@_W@2@@std@@XZ 00418b70 f   PX Framework:File Manager.obj
 0001:00017d50       ?GetPXDirectory@Files@PX@@YA?AV?$basic_string@_WU?$char_traits@_W@std@@V?$allocator@_W@2@@std@@XZ 00418d50 f   PX Framework:File Manager.obj
 0001:00018180       ?FileRead@Files@PX@@YA_NV?$basic_string@_WU?$char_traits@_W@std@@V?$allocator@_W@2@@std@@AAV34@_N2@Z 00419180 f   PX Framework:File Manager.obj
 0001:00018a80       ??_D?$basic_ifstream@DU?$char_traits@D@std@@@std@@QAEXXZ 00419a80 f i PX Framework:File Manager.obj
 0001:00018b10       ?FileWrite@Files@PX@@YA_NV?$basic_string@_WU?$char_traits@_W@std@@V?$allocator@_W@2@@std@@ABV34@_N2@Z 00419b10 f   PX Framework:File Manager.obj
 0001:000194a0       ??_D?$basic_ofstream@DU?$char_traits@D@std@@@std@@QAEXXZ 0041a4a0 f i PX Framework:File Manager.obj
 0001:00019530       ??0?$AXorString@_WV?$AIndexList@$0A@$00$01$02$03$04$05$06$07$08$09$0L@$0M@$0N@$0O@$0P@$0BA@@XOR@PX@@@XOR@PX@@QAE@QB_W@Z 0041a530 f i PX Framework:File Manager.obj
 0001:00019620       ??0?$AXorString@_WV?$AIndexList@$0A@$00$01$02$03$04$05$06$07$08$09$0L@$0M@$0N@$0O@@XOR@PX@@@XOR@PX@@QAE@QB_W@Z 0041a620 f i PX Framework:File Manager.obj
 0001:00019700       ??0?$AXorString@_WV?$AIndexList@$0A@$00$01$02$03$04$05$06$07$08$09$0L@$0M@$0N@$0O@$0P@@XOR@PX@@@XOR@PX@@QAE@QB_W@Z 0041a700 f i PX Framework:File Manager.obj
 0001:000197e0       ??0?$AXorString@_WV?$AIndexList@$0A@$00$01$02$03$04$05$06$07$08$09@XOR@PX@@@XOR@PX@@QAE@QB_W@Z 0041a7e0 f i PX Framework:File Manager.obj
 0001:00019880       ??0?$AXorString@_WV?$AIndexList@$0A@$00$01$02$03$04$05$06$07$08$09$0L@$0M@$0N@$0O@$0P@$0BA@$0BB@$0BC@$0BD@@XOR@PX@@@XOR@PX@@QAE@QB_W@Z 0041a880 f i PX Framework:File Manager.obj
 0001:000199a0       ?imbue@?$basic_filebuf@DU?$char_traits@D@std@@@std@@MAEXABVlocale@2@@Z 0041a9a0 f i PX Framework:File Manager.obj
 0001:000199c0       ?sync@?$basic_filebuf@DU?$char_traits@D@std@@@std@@MAEHXZ 0041a9c0 f i PX Framework:File Manager.obj
 0001:000199f0       ?setbuf@?$basic_filebuf@DU?$char_traits@D@std@@@std@@MAEPAV?$basic_streambuf@DU?$char_traits@D@std@@@2@PAD_J@Z 0041a9f0 f i PX Framework:File Manager.obj
 0001:00019a40       ?seekpos@?$basic_filebuf@DU?$char_traits@D@std@@@std@@MAE?AV?$fpos@U_Mbstatet@@@2@V32@H@Z 0041aa40 f i PX Framework:File Manager.obj
 0001:00019b20       ?seekoff@?$basic_filebuf@DU?$char_traits@D@std@@@std@@MAE?AV?$fpos@U_Mbstatet@@@2@_JHH@Z 0041ab20 f i PX Framework:File Manager.obj
 0001:00019c40       ?xsputn@?$basic_filebuf@DU?$char_traits@D@std@@@std@@MAE_JPBD_J@Z 0041ac40 f i PX Framework:File Manager.obj
 0001:00019de0       ?xsgetn@?$basic_filebuf@DU?$char_traits@D@std@@@std@@MAE_JPAD_J@Z 0041ade0 f i PX Framework:File Manager.obj
 0001:00019fc0       ?uflow@?$basic_filebuf@DU?$char_traits@D@std@@@std@@MAEHXZ 0041afc0 f i PX Framework:File Manager.obj
 0001:0001a230       ?underflow@?$basic_filebuf@DU?$char_traits@D@std@@@std@@MAEHXZ 0041b230 f i PX Framework:File Manager.obj
 0001:0001a270       ?pbackfail@?$basic_filebuf@DU?$char_traits@D@std@@@std@@MAEHH@Z 0041b270 f i PX Framework:File Manager.obj
 0001:0001a320       ?overflow@?$basic_filebuf@DU?$char_traits@D@std@@@std@@MAEHH@Z 0041b320 f i PX Framework:File Manager.obj
 0001:0001a490       ?_Unlock@?$basic_filebuf@DU?$char_traits@D@std@@@std@@UAEXXZ 0041b490 f i PX Framework:File Manager.obj
 0001:0001a4a0       ?_Lock@?$basic_filebuf@DU?$char_traits@D@std@@@std@@UAEXXZ 0041b4a0 f i PX Framework:File Manager.obj
 0001:0001a4b0       ??1?$basic_filebuf@DU?$char_traits@D@std@@@std@@UAE@XZ 0041b4b0 f i PX Framework:File Manager.obj
 0001:0001a570       ??_G?$basic_ofstream@DU?$char_traits@D@std@@@std@@UAEPAXI@Z 0041b570 f i PX Framework:File Manager.obj
 0001:0001a570       ??_E?$basic_ofstream@DU?$char_traits@D@std@@@std@@UAEPAXI@Z 0041b570 f i * CIL library *:* CIL module *
 0001:0001a5a0       ??_E?$basic_ifstream@DU?$char_traits@D@std@@@std@@UAEPAXI@Z 0041b5a0 f i * CIL library *:* CIL module *
 0001:0001a5a0       ??_G?$basic_ifstream@DU?$char_traits@D@std@@@std@@UAEPAXI@Z 0041b5a0 f i PX Framework:File Manager.obj
 0001:0001a5d0       ??_G?$basic_filebuf@DU?$char_traits@D@std@@@std@@UAEPAXI@Z 0041b5d0 f i PX Framework:File Manager.obj
 0001:0001a5d0       ??_E?$basic_filebuf@DU?$char_traits@D@std@@@std@@UAEPAXI@Z 0041b5d0 f i * CIL library *:* CIL module *
 0001:0001a600       ?do_length@?$codecvt@DDU_Mbstatet@@@std@@MBEHAAU_Mbstatet@@PBD1I@Z 0041b600 f i PX Framework:File Manager.obj
 0001:0001a620       ?do_unshift@?$codecvt@DDU_Mbstatet@@@std@@MBEHAAU_Mbstatet@@PAD1AAPAD@Z 0041b620 f i PX Framework:File Manager.obj
 0001:0001a640       ?do_in@?$codecvt@DDU_Mbstatet@@@std@@MBEHAAU_Mbstatet@@PBD1AAPBDPAD3AAPAD@Z 0041b640 f i PX Framework:File Manager.obj
 0001:0001a640       ?do_out@?$codecvt@DDU_Mbstatet@@@std@@MBEHAAU_Mbstatet@@PBD1AAPBDPAD3AAPAD@Z 0041b640 f i PX Framework:File Manager.obj
 0001:0001a660       ?ShouldPropagateMessageSeriesEnd@Filter@CryptoPP@@MBE_NXZ 0041b660 f i PX Framework:File Manager.obj
 0001:0001a660       _Curl_auth_is_digest_supported 0041b660 f i libcurl:digest.obj
 0001:0001a660       ?Attachable@Filter@CryptoPP@@UAE_NXZ 0041b660 f i PX Framework:File Manager.obj
 0001:0001a660       _Curl_auth_is_ntlm_supported 0041b660 f i libcurl:ntlm.obj
 0001:0001a660       ?ShouldPropagateMessageEnd@Filter@CryptoPP@@MBE_NXZ 0041b660 f i PX Framework:File Manager.obj
 0001:0001a660       ?IsForwardTransformation@?$BlockCipherFinal@$0A@VEnc@Rijndael@CryptoPP@@@CryptoPP@@UBE_NXZ 0041b660 f i PX Framework:Cryptography.obj
 0001:0001a660       __should_initialize_environment 0041b660 f i LIBCMT:env_mode.obj
 0001:0001a660       ?IsPermutation@BlockTransformation@CryptoPP@@UBE_NXZ 0041b660 f i PX Framework:Cryptography.obj
 0001:0001a660       ?do_always_noconv@?$codecvt@DDU_Mbstatet@@@std@@MBE_NXZ 0041b660 f i PX Framework:File Manager.obj
 0001:0001a660       ___acrt_uninitialize_command_line 0041b660 f i libucrt:argv_data.obj
 0001:0001a670       ?_Initcvt@?$basic_filebuf@DU?$char_traits@D@std@@@std@@IAEXABV?$codecvt@DDU_Mbstatet@@@2@@Z 0041b670 f i PX Framework:File Manager.obj
 0001:0001a700       ?_Endwrite@?$basic_filebuf@DU?$char_traits@D@std@@@std@@IAE_NXZ 0041b700 f i PX Framework:File Manager.obj
 0001:0001a7d0       ?_Init@?$basic_filebuf@DU?$char_traits@D@std@@@std@@IAEXPAU_iobuf@@W4_Initfl@12@@Z 0041b7d0 f i PX Framework:File Manager.obj
 0001:0001a8d0       ?open@?$basic_filebuf@DU?$char_traits@D@std@@@std@@QAEPAV12@PB_WHH@Z 0041b8d0 f i PX Framework:File Manager.obj
 0001:0001a990       ??$Base64@VBase64Decoder@CryptoPP@@@Cryptography@PX@@YA?AV?$basic_string@DU?$char_traits@D@std@@V?$allocator@D@2@@std@@ABV23@@Z 0041b990 f i PX Framework:File Manager.obj
 0001:0001ab30       ??$Base64@VBase64Encoder@CryptoPP@@@Cryptography@PX@@YA?AV?$basic_string@DU?$char_traits@D@std@@V?$allocator@D@2@@std@@ABV23@@Z 0041bb30 f i PX Framework:File Manager.obj
 0001:0001ace0       ??$use_facet@V?$codecvt@DDU_Mbstatet@@@std@@@std@@YAABV?$codecvt@DDU_Mbstatet@@@0@ABVlocale@0@@Z 0041bce0 f i PX Framework:File Manager.obj
 0001:0001ae2c       ??_E?$basic_ifstream@DU?$char_traits@D@std@@@std@@$4PPPPPPPM@A@AEPAXI@Z 0041be2c f i PX Framework:File Manager.obj
 0001:0001ae34       ??_E?$basic_ofstream@DU?$char_traits@D@std@@@std@@$4PPPPPPPM@A@AEPAXI@Z 0041be34 f i PX Framework:File Manager.obj
 0001:0001ae40       ??1HexEncoder@CryptoPP@@UAE@XZ 0041be40 f i PX Framework:Cryptography.obj
 0001:0001ae40       ??1SimpleProxyFilter@CryptoPP@@UAE@XZ 0041be40 f i PX Framework:File Manager.obj
 0001:0001ae40       ??1Base64Encoder@CryptoPP@@UAE@XZ 0041be40 f i PX Framework:File Manager.obj
 0001:0001aed0       ??_GBaseN_Encoder@CryptoPP@@UAEPAXI@Z 0041bed0 f i PX Framework:File Manager.obj
 0001:0001aed0       ??_EBaseN_Encoder@CryptoPP@@UAEPAXI@Z 0041bed0 f i * CIL library *:* CIL module *
 0001:0001af4d       ??_EBaseN_Encoder@CryptoPP@@W3AEPAXI@Z 0041bf4d f i PX Framework:File Manager.obj
 0001:0001af60       ??1Filter@CryptoPP@@UAE@XZ 0041bf60 f i PX Framework:File Manager.obj
 0001:0001af60       ??1?$Bufferless@VFilter@CryptoPP@@@CryptoPP@@UAE@XZ 0041bf60 f i PX Framework:File Manager.obj
 0001:0001af60       ??1?$InputRejecting@VFilter@CryptoPP@@@CryptoPP@@UAE@XZ 0041bf60 f i PX Framework:Cryptography.obj
 0001:0001af60       ??1Source@CryptoPP@@UAE@XZ 0041bf60 f i PX Framework:Cryptography.obj
 0001:0001af60       ??1?$Unflushable@VFilter@CryptoPP@@@CryptoPP@@UAE@XZ 0041bf60 f i PX Framework:File Manager.obj
 0001:0001af70       ?IsolatedFlush@?$InputRejecting@VFilter@CryptoPP@@@CryptoPP@@UAE_N_N0@Z 0041bf70 f i PX Framework:Cryptography.obj
 0001:0001af70       ?IsolatedFlush@?$Bufferless@VBufferedTransformation@CryptoPP@@@CryptoPP@@UAE_N_N0@Z 0041bf70 f i cryptlib:integer.obj
 0001:0001af70       ?IsolatedFlush@?$CustomFlushPropagation@VSink@CryptoPP@@@CryptoPP@@EAE_N_N0@Z 0041bf70 f i cryptlib:filters.obj
 0001:0001af70       ?IsolatedFlush@MessageQueue@CryptoPP@@UAE_N_N0@Z 0041bf70 f i cryptlib:mqueue.obj
 0001:0001af70       ?IsolatedFlush@?$Bufferless@VFilter@CryptoPP@@@CryptoPP@@UAE_N_N0@Z 0041bf70 f i PX Framework:File Manager.obj
 0001:0001af70       ?IsolatedFlush@?$InputRejecting@VBufferedTransformation@CryptoPP@@@CryptoPP@@UAE_N_N0@Z 0041bf70 f i PX Framework:Cryptography.obj
 0001:0001af70       ?IsolatedFlush@?$Unflushable@VFilter@CryptoPP@@@CryptoPP@@UAE_N_N0@Z 0041bf70 f i PX Framework:File Manager.obj
 0001:0001af70       ?IsolatedFlush@?$Bufferless@VSink@CryptoPP@@@CryptoPP@@UAE_N_N0@Z 0041bf70 f i PX Framework:Cryptography.obj
 0001:0001af80       ??_EGrouper@CryptoPP@@UAEPAXI@Z 0041bf80 f i * CIL library *:* CIL module *
 0001:0001af80       ??_GGrouper@CryptoPP@@UAEPAXI@Z 0041bf80 f i PX Framework:File Manager.obj
 0001:0001b022       ??_EGrouper@CryptoPP@@W3AEPAXI@Z 0041c022 f i PX Framework:File Manager.obj
 0001:0001b030       ??_EHexEncoder@CryptoPP@@UAEPAXI@Z 0041c030 f i * CIL library *:* CIL module *
 0001:0001b030       ??_EBase64Encoder@CryptoPP@@UAEPAXI@Z 0041c030 f i * CIL library *:* CIL module *
 0001:0001b030       ??_GHexEncoder@CryptoPP@@UAEPAXI@Z 0041c030 f i PX Framework:Cryptography.obj
 0001:0001b030       ??_EProxyFilter@CryptoPP@@UAEPAXI@Z 0041c030 f i * CIL library *:* CIL module *
 0001:0001b030       ??_GProxyFilter@CryptoPP@@UAEPAXI@Z 0041c030 f i PX Framework:File Manager.obj
 0001:0001b030       ??_GBase64Encoder@CryptoPP@@UAEPAXI@Z 0041c030 f i PX Framework:File Manager.obj
 0001:0001b0d4       ??_EProxyFilter@CryptoPP@@W3AEPAXI@Z 0041c0d4 f i PX Framework:File Manager.obj
 0001:0001b0d4       ??_EBase64Encoder@CryptoPP@@W3AEPAXI@Z 0041c0d4 f i PX Framework:File Manager.obj
 0001:0001b0d4       ??_EHexEncoder@CryptoPP@@W3AEPAXI@Z 0041c0d4 f i PX Framework:Cryptography.obj
 0001:0001b0e0       ?NextPutModifiable@FilterWithBufferedInput@CryptoPP@@MAEXPAEI@Z 0041c0e0 f i PX Framework:File Manager.obj
 0001:0001b0f0       ??_GFilterWithBufferedInput@CryptoPP@@UAEPAXI@Z 0041c0f0 f i PX Framework:File Manager.obj
 0001:0001b0f0       ??_EFilterWithBufferedInput@CryptoPP@@UAEPAXI@Z 0041c0f0 f i * CIL library *:* CIL module *
 0001:0001b17a       ??_EFilterWithBufferedInput@CryptoPP@@W3AEPAXI@Z 0041c17a f i PX Framework:File Manager.obj
 0001:0001b190       ??1BlockQueue@FilterWithBufferedInput@CryptoPP@@QAE@XZ 0041c190 f i PX Framework:File Manager.obj
 0001:0001b1f0       ??1FilterWithBufferedInput@CryptoPP@@UAE@XZ 0041c1f0 f i PX Framework:File Manager.obj
 0001:0001b270       ?Put2@FilterWithBufferedInput@CryptoPP@@UAEIPBEIH_N@Z 0041c270 f i PX Framework:File Manager.obj
 0001:0001b290       ?PutModifiable2@FilterWithBufferedInput@CryptoPP@@UAEIPAEIH_N@Z 0041c290 f i PX Framework:File Manager.obj
 0001:0001b2b0       ?DidFirstPut@FilterWithBufferedInput@CryptoPP@@MBE_NXZ 0041c2b0 f i PX Framework:File Manager.obj
 0001:0001b2c0       ?GetFirstPutSize@FilterWithBufferedInput@CryptoPP@@MBEIXZ 0041c2c0 f i PX Framework:File Manager.obj
 0001:0001b2d0       ?GetBlockPutSize@FilterWithBufferedInput@CryptoPP@@MBEIXZ 0041c2d0 f i PX Framework:File Manager.obj
 0001:0001b2e0       ?GetLastPutSize@FilterWithBufferedInput@CryptoPP@@MBEIXZ 0041c2e0 f i PX Framework:File Manager.obj
 0001:0001b2f0       ?InitializeDerivedAndReturnNewSizes@FilterWithBufferedInput@CryptoPP@@MAEXABVNameValuePairs@2@AAI11@Z 0041c2f0 f i PX Framework:File Manager.obj
 0001:0001b310       ?LastPut@SimpleProxyFilter@CryptoPP@@UAEXPBEI@Z 0041c310 f i PX Framework:File Manager.obj
 0001:0001b330       ?NextPut@FilterWithBufferedInput@CryptoPP@@MAEHPBEI@Z 0041c330 f i PX Framework:File Manager.obj
 0001:0001b340       ??_G?$AlgorithmParametersTemplate@PBH@CryptoPP@@UAEPAXI@Z 0041c340 f i PX Framework:File Manager.obj
 0001:0001b340       ??_G?$AlgorithmParametersTemplate@H@CryptoPP@@UAEPAXI@Z 0041c340 f i PX Framework:File Manager.obj
 0001:0001b340       ??_E?$AlgorithmParametersTemplate@_N@CryptoPP@@UAEPAXI@Z 0041c340 f i * CIL library *:* CIL module *
 0001:0001b340       ??_G?$AlgorithmParametersTemplate@_N@CryptoPP@@UAEPAXI@Z 0041c340 f i PX Framework:File Manager.obj
 0001:0001b340       ??_E?$AlgorithmParametersTemplate@H@CryptoPP@@UAEPAXI@Z 0041c340 f i * CIL library *:* CIL module *
 0001:0001b340       ??_E?$AlgorithmParametersTemplate@PBH@CryptoPP@@UAEPAXI@Z 0041c340 f i * CIL library *:* CIL module *
 0001:0001b370       ?AssignValue@?$AlgorithmParametersTemplate@_N@CryptoPP@@UBEXPBDABVtype_info@@PAX@Z 0041c370 f i PX Framework:File Manager.obj
 0001:0001b430       ?MoveInto@?$AlgorithmParametersTemplate@_N@CryptoPP@@UBEXPAX@Z 0041c430 f i PX Framework:File Manager.obj
 0001:0001b4d0       ??$MakeParameters@_N@CryptoPP@@YA?AVAlgorithmParameters@0@PBDAB_N_N@Z 0041c4d0 f i PX Framework:File Manager.obj
 0001:0001b5e0       ??0Base64Encoder@CryptoPP@@QAE@PAVBufferedTransformation@1@_NH@Z 0041c5e0 f i PX Framework:File Manager.obj
 0001:0001b7a0       ??1Base64Decoder@CryptoPP@@UAE@XZ 0041c7a0 f i PX Framework:File Manager.obj
 0001:0001b810       ??_GBase64Decoder@CryptoPP@@UAEPAXI@Z 0041c810 f i PX Framework:File Manager.obj
 0001:0001b810       ??_GBaseN_Decoder@CryptoPP@@UAEPAXI@Z 0041c810 f i PX Framework:File Manager.obj
 0001:0001b810       ??_EBaseN_Decoder@CryptoPP@@UAEPAXI@Z 0041c810 f i * CIL library *:* CIL module *
 0001:0001b810       ??_EBase64Decoder@CryptoPP@@UAEPAXI@Z 0041c810 f i * CIL library *:* CIL module *
 0001:0001b88d       ??_EBaseN_Decoder@CryptoPP@@W3AEPAXI@Z 0041c88d f i PX Framework:File Manager.obj
 0001:0001b88d       ??_EBase64Decoder@CryptoPP@@W3AEPAXI@Z 0041c88d f i PX Framework:File Manager.obj
 0001:0001b8a0       ?AssignValue@?$AlgorithmParametersTemplate@H@CryptoPP@@UBEXPBDABVtype_info@@PAX@Z 0041c8a0 f i PX Framework:File Manager.obj
 0001:0001b960       ?MoveInto@?$AlgorithmParametersTemplate@H@CryptoPP@@UBEXPAX@Z 0041c960 f i PX Framework:File Manager.obj
 0001:0001ba00       ??$?RH@AlgorithmParameters@CryptoPP@@QAEAAV01@PBDABH_N@Z 0041ca00 f i PX Framework:File Manager.obj
 0001:0001bae0       ??$?RH@AlgorithmParameters@CryptoPP@@QAEAAV01@PBDABH@Z 0041cae0 f i PX Framework:File Manager.obj
 0001:0001bbc0       ??8type_info@@QBE_NABV0@@Z 0041cbc0 f i PX Framework:File Manager.obj
 0001:0001bbe0       ??0InvalidArgument@CryptoPP@@QAE@ABV?$basic_string@DU?$char_traits@D@std@@V?$allocator@D@2@@std@@@Z 0041cbe0 f i PX Framework:File Manager.obj
 0001:0001bc50       ??0ValueTypeMismatch@NameValuePairs@CryptoPP@@QAE@ABV?$basic_string@DU?$char_traits@D@std@@V?$allocator@D@2@@std@@ABVtype_info@@1@Z 0041cc50 f i PX Framework:File Manager.obj
 0001:0001c060       ??1InputRejected@?$InputRejecting@VBufferedTransformation@CryptoPP@@@CryptoPP@@UAE@XZ 0041d060 f i PX Framework:Cryptography.obj
 0001:0001c060       ??1HashInputTooLong@CryptoPP@@UAE@XZ 0041d060 f i cryptlib:iterhash.obj
 0001:0001c060       ??1InvalidArgument@CryptoPP@@UAE@XZ 0041d060 f i PX Framework:File Manager.obj
 0001:0001c060       ??1NotImplemented@CryptoPP@@UAE@XZ 0041d060 f i PX Framework:File Manager.obj
 0001:0001c060       ??1CannotFlush@CryptoPP@@UAE@XZ 0041d060 f i PX Framework:File Manager.obj
 0001:0001c060       ??1InvalidKeyLength@CryptoPP@@UAE@XZ 0041d060 f i cryptlib:cryptlib.obj
 0001:0001c060       ??1ValueTypeMismatch@NameValuePairs@CryptoPP@@UAE@XZ 0041d060 f i PX Framework:File Manager.obj
 0001:0001c060       ??1SelfTestFailure@CryptoPP@@UAE@XZ 0041d060 f i cryptlib:cryptlib.obj
 0001:0001c060       ??1ParameterNotUsed@AlgorithmParametersBase@CryptoPP@@UAE@XZ 0041d060 f i PX Framework:File Manager.obj
 0001:0001c060       ??1InputRejected@?$InputRejecting@VFilter@CryptoPP@@@CryptoPP@@UAE@XZ 0041d060 f i PX Framework:Cryptography.obj
 0001:0001c060       ??1InvalidDataFormat@CryptoPP@@UAE@XZ 0041d060 f i cryptlib:filters.obj
 0001:0001c060       ??1BERDecodeErr@CryptoPP@@UAE@XZ 0041d060 f i cryptlib:integer.obj
 0001:0001c060       ??1InvalidCiphertext@CryptoPP@@UAE@XZ 0041d060 f i cryptlib:cryptlib.obj
 0001:0001c060       ??1BlockingInputOnly@BufferedTransformation@CryptoPP@@UAE@XZ 0041d060 f i cryptlib:filters.obj
 0001:0001c060       ??1NoChannelSupport@BufferedTransformation@CryptoPP@@UAE@XZ 0041d060 f i cryptlib:cryptlib.obj
 0001:0001c070       ??_GValueTypeMismatch@NameValuePairs@CryptoPP@@UAEPAXI@Z 0041d070 f i PX Framework:File Manager.obj
 0001:0001c070       ??_EValueTypeMismatch@NameValuePairs@CryptoPP@@UAEPAXI@Z 0041d070 f i * CIL library *:* CIL module *
 0001:0001c0a0       ??0ValueTypeMismatch@NameValuePairs@CryptoPP@@QAE@ABV012@@Z 0041d0a0 f i PX Framework:File Manager.obj
 0001:0001c130       ??_EInputRejected@?$InputRejecting@VBufferedTransformation@CryptoPP@@@CryptoPP@@UAEPAXI@Z 0041d130 f i * CIL library *:* CIL module *
 0001:0001c130       ??_GNotImplemented@CryptoPP@@UAEPAXI@Z 0041d130 f i PX Framework:File Manager.obj
 0001:0001c130       ??_GInvalidArgument@CryptoPP@@UAEPAXI@Z 0041d130 f i PX Framework:File Manager.obj
 0001:0001c130       ??_GParameterNotUsed@AlgorithmParametersBase@CryptoPP@@UAEPAXI@Z 0041d130 f i PX Framework:File Manager.obj
 0001:0001c130       ??_GInputRejected@?$InputRejecting@VBufferedTransformation@CryptoPP@@@CryptoPP@@UAEPAXI@Z 0041d130 f i PX Framework:Cryptography.obj
 0001:0001c130       ??_GInputRejected@?$InputRejecting@VFilter@CryptoPP@@@CryptoPP@@UAEPAXI@Z 0041d130 f i PX Framework:Cryptography.obj
 0001:0001c130       ??_ECannotFlush@CryptoPP@@UAEPAXI@Z 0041d130 f i * CIL library *:* CIL module *
 0001:0001c130       ??_EInvalidArgument@CryptoPP@@UAEPAXI@Z 0041d130 f i * CIL library *:* CIL module *
 0001:0001c130       ??_EException@CryptoPP@@UAEPAXI@Z 0041d130 f i * CIL library *:* CIL module *
 0001:0001c130       ??_EInputRejected@?$InputRejecting@VFilter@CryptoPP@@@CryptoPP@@UAEPAXI@Z 0041d130 f i * CIL library *:* CIL module *
 0001:0001c130       ??_GCannotFlush@CryptoPP@@UAEPAXI@Z 0041d130 f i PX Framework:File Manager.obj
 0001:0001c130       ??_EParameterNotUsed@AlgorithmParametersBase@CryptoPP@@UAEPAXI@Z 0041d130 f i * CIL library *:* CIL module *
 0001:0001c130       ??_GException@CryptoPP@@UAEPAXI@Z 0041d130 f i PX Framework:File Manager.obj
 0001:0001c130       ??_ENotImplemented@CryptoPP@@UAEPAXI@Z 0041d130 f i * CIL library *:* CIL module *
 0001:0001c160       ??0InvalidArgument@CryptoPP@@QAE@ABV01@@Z 0041d160 f i PX Framework:File Manager.obj
 0001:0001c1f0       ?ThrowIfTypeMismatch@NameValuePairs@CryptoPP@@SAXPBDABVtype_info@@1@Z 0041d1f0 f i PX Framework:File Manager.obj
 0001:0001c280       ?AssignValue@?$AlgorithmParametersTemplate@PBH@CryptoPP@@UBEXPBDABVtype_info@@PAX@Z 0041d280 f i PX Framework:File Manager.obj
 0001:0001c340       ?MoveInto@?$AlgorithmParametersTemplate@PBH@CryptoPP@@UBEXPAX@Z 0041d340 f i PX Framework:File Manager.obj
 0001:0001c3e0       ??$MakeParameters@PBH@CryptoPP@@YA?AVAlgorithmParameters@0@PBDABQBH_N@Z 0041d3e0 f i PX Framework:File Manager.obj
 0001:0001c4f0       ??_GNameValuePairs@CryptoPP@@UAEPAXI@Z 0041d4f0 f i PX Framework:File Manager.obj
 0001:0001c4f0       ??_ENameValuePairs@CryptoPP@@UAEPAXI@Z 0041d4f0 f i * CIL library *:* CIL module *
 0001:0001c520       ??1NameValuePairs@CryptoPP@@UAE@XZ 0041d520 f i PX Framework:File Manager.obj
 0001:0001c520       ??1CombinedNameValuePairs@CryptoPP@@UAE@XZ 0041d520 f i cryptlib:filters.obj
 0001:0001c530       ??_GAlgorithmParametersBase@CryptoPP@@UAEPAXI@Z 0041d530 f i PX Framework:File Manager.obj
 0001:0001c530       ??_EAlgorithmParametersBase@CryptoPP@@UAEPAXI@Z 0041d530 f i * CIL library *:* CIL module *
 0001:0001c560       ??0ParameterNotUsed@AlgorithmParametersBase@CryptoPP@@QAE@PBD@Z 0041d560 f i PX Framework:File Manager.obj
 0001:0001c730       ??0ParameterNotUsed@AlgorithmParametersBase@CryptoPP@@QAE@ABV012@@Z 0041d730 f i PX Framework:File Manager.obj
 0001:0001c7c0       ??1AlgorithmParametersBase@CryptoPP@@UAE@XZ 0041d7c0 f i PX Framework:File Manager.obj
 0001:0001c850       ??1?$member_ptr@VAlgorithmParametersBase@CryptoPP@@@CryptoPP@@QAE@XZ 0041d850 f i PX Framework:File Manager.obj
 0001:0001c890       ??1AlgorithmParameters@CryptoPP@@UAE@XZ 0041d890 f i PX Framework:File Manager.obj
 0001:0001c8e0       ??0BaseN_Decoder@CryptoPP@@QAE@PBHHPAVBufferedTransformation@1@@Z 0041d8e0 f i PX Framework:File Manager.obj
 0001:0001cab0       ??1?$SecBlock@EV?$AllocatorWithCleanup@E$0A@@CryptoPP@@@CryptoPP@@QAE@XZ 0041dab0 f i PX Framework:File Manager.obj
 0001:0001cb00       ??0NotImplemented@CryptoPP@@QAE@ABV?$basic_string@DU?$char_traits@D@std@@V?$allocator@D@2@@std@@@Z 0041db00 f i PX Framework:File Manager.obj
 0001:0001cb70       ??0NotImplemented@CryptoPP@@QAE@ABV01@@Z 0041db70 f i PX Framework:File Manager.obj
 0001:0001cc00       ?Clone@Clonable@CryptoPP@@UBEPAV12@XZ 0041dc00 f i PX Framework:File Manager.obj
 0001:0001cc60       ?AlgorithmName@Algorithm@CryptoPP@@UBE?AV?$basic_string@DU?$char_traits@D@std@@V?$allocator@D@2@@std@@XZ 0041dc60 f i PX Framework:File Manager.obj
 0001:0001cc90       ?AlgorithmProvider@Algorithm@CryptoPP@@UBE?AV?$basic_string@DU?$char_traits@D@std@@V?$allocator@D@2@@std@@XZ 0041dc90 f i PX Framework:File Manager.obj
 0001:0001ccc0       ?CreatePutSpace@BufferedTransformation@CryptoPP@@UAEPAEAAI@Z 0041dcc0 f i PX Framework:File Manager.obj
 0001:0001cce0       _Curl_none_cert_status_request 0041dce0 f i libcurl:vtls.obj
 0001:0001cce0       ?IsForwardTransformation@?$BlockCipherFinal@$00VDec@Rijndael@CryptoPP@@@CryptoPP@@UBE_NXZ 0041dce0 f i PX Framework:Cryptography.obj
 0001:0001cce0       ?Attachable@BufferedTransformation@CryptoPP@@UAE_NXZ 0041dce0 f i PX Framework:Cryptography.obj
 0001:0001cce0       ?GetNextMessageSeries@BufferedTransformation@CryptoPP@@UAE_NXZ 0041dce0 f i PX Framework:File Manager.obj
 0001:0001cce0       _Curl_none_false_start     0041dce0 f i libcurl:vtls.obj
 0001:0001cce0       ?FIPS_140_2_ComplianceEnabled@CryptoPP@@YA_NXZ 0041dce0 f i cryptlib:fips140.obj
 0001:0001cce0       ?IsLastBlockSpecial@StreamTransformation@CryptoPP@@UBE_NXZ 0041dce0 f i PX Framework:Cryptography.obj
 0001:0001cce0       _Curl_none_data_pending    0041dce0 f i libcurl:vtls.obj
 0001:0001cce0       ?IsRandomAccess@BlockOrientedCipherModeBase@CryptoPP@@UBE_NXZ 0041dce0 f i PX Framework:Cryptography.obj
 0001:0001cce0       ?PowerUpSelfTestInProgressOnThisThread@CryptoPP@@YA_NXZ 0041dce0 f i cryptlib:fips140.obj
 0001:0001cce0       ?CanModifyInput@BufferedTransformation@CryptoPP@@UBE_NXZ 0041dce0 f i PX Framework:File Manager.obj
 0001:0001cce0       ?IsSelfInverting@BlockOrientedCipherModeBase@CryptoPP@@UBE_NXZ 0041dce0 f i PX Framework:Cryptography.obj
 0001:0001cce0       ?InputBufferIsEmpty@?$Unflushable@VFilter@CryptoPP@@@CryptoPP@@MBE_NXZ 0041dce0 f i PX Framework:File Manager.obj
 0001:0001ccf0       ?PutModifiable2@BufferedTransformation@CryptoPP@@UAEIPAEIH_N@Z 0041dcf0 f i PX Framework:File Manager.obj
 0001:0001cd00       ?IsolatedMessageSeriesEnd@BufferedTransformation@CryptoPP@@UAE_N_N@Z 0041dd00 f i PX Framework:File Manager.obj
 0001:0001cd10       ?Flush@?$Unflushable@VFilter@CryptoPP@@@CryptoPP@@UAE_N_NH0@Z 0041dd10 f i PX Framework:File Manager.obj
 0001:0001cd30       ?NumberOfMessagesInThisSeries@BufferedTransformation@CryptoPP@@UBEIXZ 0041dd30 f i PX Framework:File Manager.obj
 0001:0001cd40       ??0CannotFlush@CryptoPP@@QAE@ABV?$basic_string@DU?$char_traits@D@std@@V?$allocator@D@2@@std@@@Z 0041dd40 f i PX Framework:File Manager.obj
 0001:0001cdb0       ??1Exception@CryptoPP@@UAE@XZ 0041ddb0 f i PX Framework:File Manager.obj
 0001:0001ce20       ??0CannotFlush@CryptoPP@@QAE@ABV01@@Z 0041de20 f i PX Framework:File Manager.obj
 0001:0001ceb0       ?what@Exception@CryptoPP@@UBEPBDXZ 0041deb0 f i PX Framework:File Manager.obj
 0001:0001cec0       ??0Exception@CryptoPP@@QAE@ABV01@@Z 0041dec0 f i PX Framework:File Manager.obj
 0001:0001cf40       ?ChannelFlush@?$Unflushable@VFilter@CryptoPP@@@CryptoPP@@UAE_NABV?$basic_string@DU?$char_traits@D@std@@V?$allocator@D@2@@std@@_NH1@Z 0041df40 f i PX Framework:File Manager.obj
 0001:0001d000       _ssl_prepare_serverhello_tlsext 0041e000 f i libssl:t1_lib.obj
 0001:0001d000       ?do_max_length@codecvt_base@std@@MBEHXZ 0041e000 f i PX Framework:File Manager.obj
 0001:0001d000       ?OptimalNumberOfParallelBlocks@BlockTransformation@CryptoPP@@UBEIXZ 0041e000 f i PX Framework:Cryptography.obj
 0001:0001d000       ?do_encoding@codecvt_base@std@@MBEHXZ 0041e000 f i PX Framework:File Manager.obj
 0001:0001d000       ?GetByteOrder@?$IteratedHash@IU?$EnumToType@W4ByteOrder@CryptoPP@@$00@CryptoPP@@$0EA@VHashTransformation@2@@CryptoPP@@UBE?AW4ByteOrder@2@XZ 0041e000 f i PX Framework:Cryptography.obj
 0001:0001d010       ??$_Immortalize_impl@V_Generic_error_category@std@@@std@@YGHPAX0PAPAX@Z 0041e010 f i PX Framework:File Manager.obj
 0001:0001d030       ?generic_category@std@@YAABVerror_category@1@XZ 0041e030 f i PX Framework:File Manager.obj
 0001:0001d060       ?append@?$basic_string@_WU?$char_traits@_W@std@@V?$allocator@_W@2@@std@@QAEAAV12@I_W@Z 0041e060 f i PX Framework:File Manager.obj
 0001:0001d220       ??0?$basic_string@_WU?$char_traits@_W@std@@V?$allocator@_W@2@@std@@QAE@ABV01@@Z 0041e220 f i PX Framework:File Manager.obj
 0001:0001d2b0       ?DeleteDirectory@DebuggerPrevention@AnalysisProtection@PX@@YAHABV?$basic_string@DU?$char_traits@D@std@@V?$allocator@D@2@@std@@_N@Z 0041e2b0 f   PX Framework:Analysis Protection.obj
 0001:0001d6e0       ?Destroy@DebuggerPrevention@AnalysisProtection@PX@@YAXABQAX@Z 0041e6e0 f i PX Framework:Analysis Protection.obj
 0001:0001e410       ?Interrupt0x2D@DebuggerDetection@AnalysisProtection@PX@@YA_NXZ 0041f410 f i PX Framework:Analysis Protection.obj
 0001:0001e490       ?ExternalExceptionHandlingPresence@DebuggerDetection@AnalysisProtection@PX@@YA_NXZ 0041f490 f i PX Framework:Analysis Protection.obj
 0001:0001e520       ??0?$AXorString@_WV?$AIndexList@$0A@$00$01$02$03$04$05$06$07$08$09$0L@$0M@@XOR@PX@@@XOR@PX@@QAE@QB_W@Z 0041f520 f i PX Framework:Analysis Protection.obj
 0001:0001e5e0       ?Decrypt@?$AXorString@_WV?$AIndexList@$0A@$00$01$02$03@XOR@PX@@@XOR@PX@@QAAPB_WXZ 0041f5e0 f i PX Framework:Analysis Protection.obj
 0001:0001e600       ??0?$AXorString@_WV?$AIndexList@$0A@$00$01$02$03@XOR@PX@@@XOR@PX@@QAE@QB_W@Z 0041f600 f i PX Framework:Analysis Protection.obj
 0001:0001e620       ??0?$AXorString@_WV?$AIndexList@$0A@$00$01$02$03$04$05$06$07$08$09$0L@$0M@$0N@$0O@$0P@$0BA@$0BB@$0BC@$0BD@$0BE@$0BF@$0BG@$0BH@$0BI@$0BJ@$0BK@$0BL@$0BM@$0BN@$0BO@$0BP@$0CA@$0CB@$0CC@$0CD@$0CE@$0CF@$0CG@$0CH@$0CI@$0CJ@$0CK@$0CL@$0CM@$0CN@$0CO@$0CP@$0DA@$0DB@$0DC@$0DD@$0DE@$0DF@$0DG@$0DH@$0DI@@XOR@PX@@@XOR@PX@@QAE@QB_W@Z 0041f620 f i PX Framework:Analysis Protection.obj
 0001:0001e700       ??0?$AXorString@_WV?$AIndexList@$0A@$00$01$02$03$04$05$06$07$08$09$0L@$0M@$0N@$0O@$0P@$0BA@$0BB@$0BC@$0BD@$0BE@$0BF@$0BG@$0BH@$0BI@$0BJ@$0BK@$0BL@$0BM@$0BN@$0BO@$0BP@$0CA@$0CB@$0CC@$0CD@$0CE@$0CF@$0CG@$0CH@$0CI@$0CJ@$0CK@$0CL@$0CM@$0CN@$0CO@$0CP@$0DA@$0DB@$0DC@$0DD@$0DE@$0DF@$0DG@$0DH@$0DI@$0DJ@$0DK@$0DL@$0DM@$0DN@$0DO@$0DP@$0EA@$0EB@$0EC@$0ED@$0EE@$0EF@$0EG@$0EH@$0EI@$0EJ@$0EK@$0EL@$0EM@$0EN@$0EO@$0EP@$0FA@$0FB@$0FC@$0FD@$0FE@$0FF@$0FG@$0FH@$0FI@$0FJ@$0FK@$0FL@$0FM@$0FN@$0FO@$0FP@$0GA@$0GB@$0GC@$0GD@$0GE@$0GF@$0GG@$0GH@$0GI@$0GJ@$0GK@$0GL@$0GM@$0GN@$0GO@$0GP@$0HA@$0HB@$0HC@$0HD@$0HE@$0HF@$0HG@$0HH@$0HI@$0HJ@$0HK@$0HL@$0HM@$0HN@$0HO@$0HP@$0IA@$0IB@$0IC@$0ID@$0IE@$0IF@$0IG@$0IH@$0II@$0IJ@$0IK@$0IL@$0IM@$0IN@$0IO@$0IP@$0JA@$0JB@$0JC@$0JD@$0JE@$0JF@$0JG@@XOR@PX@@@XOR@PX@@QAE@QB_W@Z 0041f700 f i PX Framework:Analysis Protection.obj
 0001:0001e9b0       ??0?$AXorString@_WV?$AIndexList@$0A@$00$01$02$03$04$05$06$07$08$09$0L@$0M@$0N@$0O@$0P@$0BA@$0BB@$0BC@$0BD@$0BE@$0BF@$0BG@$0BH@$0BI@$0BJ@$0BK@$0BL@$0BM@$0BN@$0BO@$0BP@$0CA@$0CB@$0CC@$0CD@$0CE@$0CF@$0CG@$0CH@$0CI@$0CJ@$0CK@$0CL@$0CM@$0CN@$0CO@$0CP@$0DA@$0DB@$0DC@$0DD@$0DE@$0DF@$0DG@$0DH@$0DI@$0DJ@$0DK@$0DL@$0DM@$0DN@$0DO@$0DP@$0EA@$0EB@$0EC@$0ED@$0EE@$0EF@$0EG@$0EH@$0EI@$0EJ@$0EK@$0EL@$0EM@$0EN@$0EO@$0EP@$0FA@$0FB@$0FC@$0FD@$0FE@$0FF@$0FG@$0FH@$0FI@$0FJ@$0FK@$0FL@$0FM@$0FN@$0FO@$0FP@$0GA@$0GB@$0GC@$0GD@$0GE@$0GF@$0GG@$0GH@$0GI@$0GJ@$0GK@$0GL@$0GM@$0GN@$0GO@$0GP@$0HA@$0HB@$0HC@$0HD@$0HE@$0HF@$0HG@$0HH@$0HI@$0HJ@$0HK@$0HL@$0HM@$0HN@$0HO@$0HP@$0IA@$0IB@$0IC@$0ID@$0IE@$0IF@$0IG@$0IH@$0II@$0IJ@$0IK@$0IL@$0IM@$0IN@$0IO@$0IP@$0JA@$0JB@$0JC@$0JD@$0JE@$0JF@$0JG@$0JH@$0JI@$0JJ@$0JK@$0JL@$0JM@$0JN@$0JO@$0JP@$0KA@$0KB@$0KC@$0KD@$0KE@$0KF@$0KG@$0KH@$0KI@$0KJ@$0KK@$0KL@$0KM@$0KN@$0KO@$0KP@$0LA@$0LB@$0LC@$0LD@$0LE@$0LF@$0LG@$0LH@$0LI@$0LJ@$0LK@$0LL@$0LM@$0LN@$0LO@$0LP@$0MA@$0MB@$0MC@$0MD@$0ME@$0MF@$0MG@$0MH@$0MI@$0MJ@$0MK@$0ML@$0MM@$0MN@$0MO@$0MP@$0NA@$0NB@$0NC@$0ND@$0NE@$0NF@$0NG@$0NH@$0NI@$0NJ@$0NK@$0NL@$0NM@$0NN@$0NO@$0NP@$0OA@$0OB@$0OC@$0OD@$0OE@$0OF@$0OG@$0OH@$0OI@$0OJ@$0OK@$0OL@$0OM@$0ON@$0OO@$0OP@$0PA@$0PB@$0PC@$0PD@$0PE@$0PF@$0PG@$0PH@$0PI@$0PJ@$0PK@$0PL@$0PM@$0PN@$0PO@$0PP@$0BAA@$0BAB@$0BAC@$0BAD@$0BAE@$0BAF@$0BAG@$0BAH@$0BAI@$0BAJ@$0BAK@$0BAL@$0BAM@$0BAN@$0BAO@$0BAP@$0BBA@$0BBB@$0BBC@$0BBD@$0BBE@$0BBF@$0BBG@$0BBH@$0BBI@$0BBJ@$0BBK@$0BBL@$0BBM@$0BBN@$0BBO@$0BBP@$0BCA@$0BCB@$0BCC@$0BCD@$0BCE@$0BCF@$0BCG@$0BCH@$0BCI@@XOR@PX@@@XOR@PX@@QAE@QB_W@Z 0041f9b0 f i PX Framework:Analysis Protection.obj
 0001:0001ef30       ?InitializeEncryption@Cryptography@PX@@YA_NXZ 0041ff30 f   PX Framework:Cryptography.obj
 0001:0001f1c0       ?GenerateHash@Cryptography@PX@@YA?AV?$basic_string@DU?$char_traits@D@std@@V?$allocator@D@2@@std@@ABV34@@Z 004201c0 f   PX Framework:Cryptography.obj
 0001:0001f5f0       ?GenerateIdentifier@Cryptography@PX@@YA?AV?$basic_string@DU?$char_traits@D@std@@V?$allocator@D@2@@std@@ABV34@@Z 004205f0 f   PX Framework:Cryptography.obj
 0001:0001f7b0       ??$AES256CBC@V?$CipherModeFinalTemplate_CipherHolder@V?$BlockCipherFinal@$0A@VEnc@Rijndael@CryptoPP@@@CryptoPP@@VCBC_Encryption@2@@CryptoPP@@@Cryptography@PX@@YA?AV?$basic_string@DU?$char_traits@D@std@@V?$allocator@D@2@@std@@ABV23@@Z 004207b0 f i PX Framework:Cryptography.obj
 0001:0001fa70       ??$AES256CBC@V?$CipherModeFinalTemplate_CipherHolder@V?$BlockCipherFinal@$00VDec@Rijndael@CryptoPP@@@CryptoPP@@VCBC_Decryption@2@@CryptoPP@@@Cryptography@PX@@YA?AV?$basic_string@DU?$char_traits@D@std@@V?$allocator@D@2@@std@@ABV23@@Z 00420a70 f i PX Framework:Cryptography.obj
 0001:0001fd70       ??1?$CipherModeFinalTemplate_CipherHolder@V?$BlockCipherFinal@$0A@VEnc@Rijndael@CryptoPP@@@CryptoPP@@VCBC_Encryption@2@@CryptoPP@@UAE@XZ 00420d70 f i PX Framework:Cryptography.obj
 0001:0001fe00       ??1?$CipherModeFinalTemplate_CipherHolder@V?$BlockCipherFinal@$00VDec@Rijndael@CryptoPP@@@CryptoPP@@VCBC_Decryption@2@@CryptoPP@@UAE@XZ 00420e00 f i PX Framework:Cryptography.obj
 0001:0001feb0       ??1?$ObjectHolder@V?$BlockCipherFinal@$0A@VEnc@Rijndael@CryptoPP@@@CryptoPP@@@CryptoPP@@QAE@XZ 00420eb0 f i PX Framework:Cryptography.obj
 0001:0001feb0       ??1?$ObjectHolder@V?$BlockCipherFinal@$00VDec@Rijndael@CryptoPP@@@CryptoPP@@@CryptoPP@@QAE@XZ 00420eb0 f i PX Framework:Cryptography.obj
 0001:0001fec0       ??1CBC_ModeBase@CryptoPP@@UAE@XZ 00420ec0 f i PX Framework:Cryptography.obj
 0001:0001fec0       ??1?$AlgorithmImpl@VCBC_Encryption@CryptoPP@@V?$CipherModeFinalTemplate_CipherHolder@V?$BlockCipherFinal@$0A@VEnc@Rijndael@CryptoPP@@@CryptoPP@@VCBC_Encryption@2@@2@@CryptoPP@@UAE@XZ 00420ec0 f i PX Framework:Cryptography.obj
 0001:0001ff40       ??1?$AlgorithmImpl@VCBC_Decryption@CryptoPP@@V?$CipherModeFinalTemplate_CipherHolder@V?$BlockCipherFinal@$00VDec@Rijndael@CryptoPP@@@CryptoPP@@VCBC_Decryption@2@@2@@CryptoPP@@UAE@XZ 00420f40 f i PX Framework:Cryptography.obj
 0001:0001fff0       ??1Base@Rijndael@CryptoPP@@UAE@XZ 00420ff0 f i PX Framework:Cryptography.obj
 0001:000200a0       ?AlgorithmName@?$AlgorithmImpl@VCBC_Decryption@CryptoPP@@V?$CipherModeFinalTemplate_CipherHolder@V?$BlockCipherFinal@$00VDec@Rijndael@CryptoPP@@@CryptoPP@@VCBC_Decryption@2@@2@@CryptoPP@@UBE?AV?$basic_string@DU?$char_traits@D@std@@V?$allocator@D@2@@std@@XZ 004210a0 f i PX Framework:Cryptography.obj
 0001:000200a0       ?AlgorithmName@?$AlgorithmImpl@VCBC_Encryption@CryptoPP@@V?$CipherModeFinalTemplate_CipherHolder@V?$BlockCipherFinal@$0A@VEnc@Rijndael@CryptoPP@@@CryptoPP@@VCBC_Encryption@2@@2@@CryptoPP@@UBE?AV?$basic_string@DU?$char_traits@D@std@@V?$allocator@D@2@@std@@XZ 004210a0 f i PX Framework:Cryptography.obj
 0001:00020200       ?Clone@?$ClonableImpl@V?$BlockCipherFinal@$00VDec@Rijndael@CryptoPP@@@CryptoPP@@VDec@Rijndael@2@@CryptoPP@@UBEPAVClonable@2@XZ 00421200 f i PX Framework:Cryptography.obj
 0001:00020280       ?Clone@?$ClonableImpl@V?$BlockCipherFinal@$0A@VEnc@Rijndael@CryptoPP@@@CryptoPP@@VEnc@Rijndael@2@@CryptoPP@@UBEPAVClonable@2@XZ 00421280 f i PX Framework:Cryptography.obj
 0001:00020300       ?AlgorithmProvider@?$CipherModeFinalTemplate_CipherHolder@V?$BlockCipherFinal@$00VDec@Rijndael@CryptoPP@@@CryptoPP@@VCBC_Decryption@2@@CryptoPP@@UBE?AV?$basic_string@DU?$char_traits@D@std@@V?$allocator@D@2@@std@@XZ 00421300 f i PX Framework:Cryptography.obj
 0001:00020300       ?AlgorithmProvider@?$CipherModeFinalTemplate_CipherHolder@V?$BlockCipherFinal@$0A@VEnc@Rijndael@CryptoPP@@@CryptoPP@@VCBC_Encryption@2@@CryptoPP@@UBE?AV?$basic_string@DU?$char_traits@D@std@@V?$allocator@D@2@@std@@XZ 00421300 f i PX Framework:Cryptography.obj
 0001:00020320       ??0?$CipherModeFinalTemplate_CipherHolder@V?$BlockCipherFinal@$00VDec@Rijndael@CryptoPP@@@CryptoPP@@VCBC_Decryption@2@@CryptoPP@@QAE@PBEI0@Z 00421320 f i PX Framework:Cryptography.obj
 0001:00020500       ??0?$CipherModeFinalTemplate_CipherHolder@V?$BlockCipherFinal@$0A@VEnc@Rijndael@CryptoPP@@@CryptoPP@@VCBC_Encryption@2@@CryptoPP@@QAE@PBEI0@Z 00421500 f i PX Framework:Cryptography.obj
 0001:000206c0       ??_E?$CipherModeFinalTemplate_CipherHolder@V?$BlockCipherFinal@$00VDec@Rijndael@CryptoPP@@@CryptoPP@@VCBC_Decryption@2@@CryptoPP@@UAEPAXI@Z 004216c0 f i * CIL library *:* CIL module *
 0001:000206c0       ??_G?$CipherModeFinalTemplate_CipherHolder@V?$BlockCipherFinal@$00VDec@Rijndael@CryptoPP@@@CryptoPP@@VCBC_Decryption@2@@CryptoPP@@UAEPAXI@Z 004216c0 f i PX Framework:Cryptography.obj
 0001:000206f0       ??_G?$CipherModeFinalTemplate_CipherHolder@V?$BlockCipherFinal@$0A@VEnc@Rijndael@CryptoPP@@@CryptoPP@@VCBC_Encryption@2@@CryptoPP@@UAEPAXI@Z 004216f0 f i PX Framework:Cryptography.obj
 0001:000206f0       ??_E?$CipherModeFinalTemplate_CipherHolder@V?$BlockCipherFinal@$0A@VEnc@Rijndael@CryptoPP@@@CryptoPP@@VCBC_Encryption@2@@CryptoPP@@UAEPAXI@Z 004216f0 f i * CIL library *:* CIL module *
 0001:00020790       ??_G?$BlockCipherFinal@$00VDec@Rijndael@CryptoPP@@@CryptoPP@@UAEPAXI@Z 00421790 f i PX Framework:Cryptography.obj
 0001:00020790       ??_E?$BlockCipherFinal@$00VDec@Rijndael@CryptoPP@@@CryptoPP@@UAEPAXI@Z 00421790 f i * CIL library *:* CIL module *
 0001:00020790       ??_E?$BlockCipherFinal@$0A@VEnc@Rijndael@CryptoPP@@@CryptoPP@@UAEPAXI@Z 00421790 f i * CIL library *:* CIL module *
 0001:00020790       ??_G?$BlockCipherFinal@$0A@VEnc@Rijndael@CryptoPP@@@CryptoPP@@UAEPAXI@Z 00421790 f i PX Framework:Cryptography.obj
 0001:000207c0       ??0Base@Rijndael@CryptoPP@@QAE@ABV012@@Z 004217c0 f i PX Framework:Cryptography.obj
 0001:00020890       ?allocate@?$AllocatorWithCleanup@I$00@CryptoPP@@QAEPAIIPBX@Z 00421890 f i PX Framework:Cryptography.obj
 0001:00020920       ?CheckSize@?$AllocatorBase@I@CryptoPP@@KAXI@Z 00421920 f i PX Framework:Cryptography.obj
 0001:0002098c       ??_E?$CipherModeFinalTemplate_CipherHolder@V?$BlockCipherFinal@$0A@VEnc@Rijndael@CryptoPP@@@CryptoPP@@VCBC_Encryption@2@@CryptoPP@@W3AEPAXI@Z 0042198c f i PX Framework:Cryptography.obj
 0001:00020994       ??_E?$BlockCipherFinal@$0A@VEnc@Rijndael@CryptoPP@@@CryptoPP@@W3AEPAXI@Z 00421994 f i PX Framework:Cryptography.obj
 0001:00020994       ??_E?$BlockCipherFinal@$00VDec@Rijndael@CryptoPP@@@CryptoPP@@W3AEPAXI@Z 00421994 f i PX Framework:Cryptography.obj
 0001:0002099c       ??_E?$CipherModeFinalTemplate_CipherHolder@V?$BlockCipherFinal@$00VDec@Rijndael@CryptoPP@@@CryptoPP@@VCBC_Decryption@2@@CryptoPP@@W3AEPAXI@Z 0042199c f i PX Framework:Cryptography.obj
 0001:000209b0       ?MinKeyLength@?$SimpleKeyingInterfaceImpl@V?$TwoBases@VBlockCipher@CryptoPP@@URijndael_Info@2@@CryptoPP@@V12@@CryptoPP@@UBEIXZ 004219b0 f i PX Framework:Cryptography.obj
 0001:000209b0       ?DefaultKeyLength@?$SimpleKeyingInterfaceImpl@V?$TwoBases@VBlockCipher@CryptoPP@@URijndael_Info@2@@CryptoPP@@V12@@CryptoPP@@UBEIXZ 004219b0 f i PX Framework:Cryptography.obj
 0001:000209b0       ?BlockSize@?$BlockCipherImpl@URijndael_Info@CryptoPP@@VBlockCipher@2@@CryptoPP@@UBEIXZ 004219b0 f i PX Framework:Cryptography.obj
 0001:000209c0       ?AlgorithmName@?$AlgorithmImpl@V?$SimpleKeyingInterfaceImpl@V?$TwoBases@VBlockCipher@CryptoPP@@URijndael_Info@2@@CryptoPP@@V12@@CryptoPP@@V12@@CryptoPP@@UBE?AV?$basic_string@DU?$char_traits@D@std@@V?$allocator@D@2@@std@@XZ 004219c0 f i PX Framework:Cryptography.obj
 0001:000209f0       ?OptimalDataAlignment@?$IteratedHashBase@IVHashTransformation@CryptoPP@@@CryptoPP@@UBEIXZ 004219f0 f i PX Framework:Cryptography.obj
 0001:000209f0       _Curl_set_dns_interface    004219f0 f i libcurl:asyn-thread.obj
 0001:000209f0       _Curl_none_set_engine      004219f0 f i libcurl:vtls.obj
 0001:000209f0       ?OptimalDataAlignment@BlockTransformation@CryptoPP@@UBEIXZ 004219f0 f i cryptlib:cryptlib.obj
 0001:000209f0       ?IVRequirement@?$SimpleKeyingInterfaceImpl@V?$TwoBases@VBlockCipher@CryptoPP@@URijndael_Info@2@@CryptoPP@@V12@@CryptoPP@@UBE?AW4IV_Requirement@SimpleKeyingInterface@2@XZ 004219f0 f i PX Framework:Cryptography.obj
 0001:000209f0       _Curl_set_dns_servers      004219f0 f i libcurl:asyn-thread.obj
 0001:000209f0       _Curl_none_set_engine_default 004219f0 f i libcurl:vtls.obj
 0001:000209f0       _Curl_set_dns_local_ip6    004219f0 f i libcurl:asyn-thread.obj
 0001:000209f0       _Curl_set_dns_local_ip4    004219f0 f i libcurl:asyn-thread.obj
 0001:000209f0       _Curl_none_random          004219f0 f i libcurl:vtls.obj
 0001:00020a00       ?GetValidKeyLength@?$SimpleKeyingInterfaceImpl@V?$TwoBases@VBlockCipher@CryptoPP@@URijndael_Info@2@@CryptoPP@@V12@@CryptoPP@@UBEII@Z 00421a00 f i PX Framework:Cryptography.obj
 0001:00020a40       ?MaxKeyLength@?$SimpleKeyingInterfaceImpl@V?$TwoBases@VBlockCipher@CryptoPP@@URijndael_Info@2@@CryptoPP@@V12@@CryptoPP@@UBEIXZ 00421a40 f i PX Framework:Cryptography.obj
 0001:00020a50       ?IsForwardTransformation@BlockOrientedCipherModeBase@CryptoPP@@UBE_NXZ 00421a50 f i PX Framework:Cryptography.obj
 0001:00020a60       ?Seek@StreamTransformation@CryptoPP@@UAEX_K@Z 00421a60 f i PX Framework:Cryptography.obj
 0001:00020ac0       ?OptimalDataAlignment@CipherModeBase@CryptoPP@@UBEIXZ 00421ac0 f i PX Framework:Cryptography.obj
 0001:00020ad0       ?OptimalBlockSize@StreamTransformation@CryptoPP@@UBEIXZ 00421ad0 f i PX Framework:Cryptography.obj
 0001:00020ae0       ?MandatoryBlockSize@BlockOrientedCipherModeBase@CryptoPP@@UBEIXZ 00421ae0 f i PX Framework:Cryptography.obj
 0001:00020af0       ?SetFeedbackSize@CipherModeBase@CryptoPP@@MAEXI@Z 00421af0 f i PX Framework:Cryptography.obj
 0001:00020b70       ?GetAlgorithm@BlockCipher@CryptoPP@@MBEABVAlgorithm@2@XZ 00421b70 f i PX Framework:Cryptography.obj
 0001:00020b70       ?GetAlgorithm@SymmetricCipher@CryptoPP@@MBEABVAlgorithm@2@XZ 00421b70 f i PX Framework:Cryptography.obj
 0001:00020b80       ?Resynchronize@BlockOrientedCipherModeBase@CryptoPP@@UAEXPBEH@Z 00421b80 f i PX Framework:Cryptography.obj
 0001:00020bb0       ?IVSize@CipherModeBase@CryptoPP@@UBEIXZ 00421bb0 f i PX Framework:Cryptography.obj
 0001:00020bc0       ?IVRequirement@CBC_ModeBase@CryptoPP@@UBE?AW4IV_Requirement@SimpleKeyingInterface@2@XZ 00421bc0 f i PX Framework:Cryptography.obj
 0001:00020bd0       ?IsValidKeyLength@CipherModeBase@CryptoPP@@UBE_NI@Z 00421bd0 f i PX Framework:Cryptography.obj
 0001:00020be0       ?GetValidKeyLength@CipherModeBase@CryptoPP@@UBEII@Z 00421be0 f i PX Framework:Cryptography.obj
 0001:00020bf0       ?DefaultKeyLength@CipherModeBase@CryptoPP@@UBEIXZ 00421bf0 f i PX Framework:Cryptography.obj
 0001:00020c00       ?MaxKeyLength@CipherModeBase@CryptoPP@@UBEIXZ 00421c00 f i PX Framework:Cryptography.obj
 0001:00020c10       ?MinKeyLength@CipherModeBase@CryptoPP@@UBEIXZ 00421c10 f i PX Framework:Cryptography.obj
 0001:00020c20       ?Resynchronize@SimpleKeyingInterface@CryptoPP@@UAEXPBEH@Z 00421c20 f i PX Framework:Cryptography.obj
 0001:00020c90       ?MinIVLength@SimpleKeyingInterface@CryptoPP@@UBEIXZ 00421c90 f i PX Framework:Cryptography.obj
 0001:00020c90       ?MaxIVLength@SimpleKeyingInterface@CryptoPP@@UBEIXZ 00421c90 f i PX Framework:Cryptography.obj
 0001:00020ca0       ?IsValidKeyLength@SimpleKeyingInterface@CryptoPP@@UBE_NI@Z 00421ca0 f i PX Framework:Cryptography.obj
 0001:00020cc0       ??1?$SecBlock@IV?$AllocatorWithCleanup@I$00@CryptoPP@@@CryptoPP@@QAE@XZ 00421cc0 f i PX Framework:Cryptography.obj
 0001:00020d30       ??1ConstByteArrayParameter@CryptoPP@@QAE@XZ 00421d30 f i PX Framework:Cryptography.obj
 0001:00020d30       ??1CipherModeBase@CryptoPP@@UAE@XZ 00421d30 f i PX Framework:Cryptography.obj
 0001:00020d90       ?ChannelMessageSeriesEnd@?$InputRejecting@VBufferedTransformation@CryptoPP@@@CryptoPP@@UAE_NABV?$basic_string@DU?$char_traits@D@std@@V?$allocator@D@2@@std@@H_N@Z 00421d90 f i PX Framework:Cryptography.obj
 0001:00020d90       ?IsolatedMessageSeriesEnd@?$InputRejecting@VBufferedTransformation@CryptoPP@@@CryptoPP@@UAE_N_N@Z 00421d90 f i PX Framework:Cryptography.obj
 0001:00020d90       ?Put2@?$InputRejecting@VBufferedTransformation@CryptoPP@@@CryptoPP@@UAEIPBEIH_N@Z 00421d90 f i PX Framework:Cryptography.obj
 0001:00020d90       ?ChannelPut2@?$InputRejecting@VBufferedTransformation@CryptoPP@@@CryptoPP@@UAEIABV?$basic_string@DU?$char_traits@D@std@@V?$allocator@D@2@@std@@PBEIH_N@Z 00421d90 f i PX Framework:Cryptography.obj
 0001:00020dc0       ?NumberOfMessages@Store@CryptoPP@@UBEIXZ 00421dc0 f i PX Framework:Cryptography.obj
 0001:00020dd0       ??0InputRejected@?$InputRejecting@VBufferedTransformation@CryptoPP@@@CryptoPP@@QAE@XZ 00421dd0 f i PX Framework:Cryptography.obj
 0001:00020ea0       ??0InputRejected@?$InputRejecting@VBufferedTransformation@CryptoPP@@@CryptoPP@@QAE@ABU012@@Z 00421ea0 f i PX Framework:Cryptography.obj
 0001:00020f30       ??_EStringStore@CryptoPP@@UAEPAXI@Z 00421f30 f i * CIL library *:* CIL module *
 0001:00020f30       ??_GStringStore@CryptoPP@@UAEPAXI@Z 00421f30 f i PX Framework:Cryptography.obj
 0001:00020f4e       ??_EStringStore@CryptoPP@@W3AEPAXI@Z 00421f4e f i PX Framework:Cryptography.obj
 0001:00020f60       ??_G?$SourceTemplate@VStringStore@CryptoPP@@@CryptoPP@@UAEPAXI@Z 00421f60 f i PX Framework:Cryptography.obj
 0001:00020f60       ??_GStringSource@CryptoPP@@UAEPAXI@Z 00421f60 f i PX Framework:Cryptography.obj
 0001:00020f60       ??_E?$SourceTemplate@VStringStore@CryptoPP@@@CryptoPP@@UAEPAXI@Z 00421f60 f i * CIL library *:* CIL module *
 0001:00020f60       ??_EStringSource@CryptoPP@@UAEPAXI@Z 00421f60 f i * CIL library *:* CIL module *
 0001:00020f98       ??_EStringSource@CryptoPP@@W3AEPAXI@Z 00421f98 f i PX Framework:Cryptography.obj
 0001:00020f98       ??_E?$SourceTemplate@VStringStore@CryptoPP@@@CryptoPP@@W3AEPAXI@Z 00421f98 f i PX Framework:Cryptography.obj
 0001:00020fa0       ??1?$SourceTemplate@VStringStore@CryptoPP@@@CryptoPP@@UAE@XZ 00421fa0 f i PX Framework:Cryptography.obj
 0001:00020fc0       ?IsolatedMessageSeriesEnd@?$InputRejecting@VFilter@CryptoPP@@@CryptoPP@@UAE_N_N@Z 00421fc0 f i PX Framework:Cryptography.obj
 0001:00020fc0       ?ChannelMessageSeriesEnd@?$InputRejecting@VFilter@CryptoPP@@@CryptoPP@@UAE_NABV?$basic_string@DU?$char_traits@D@std@@V?$allocator@D@2@@std@@H_N@Z 00421fc0 f i PX Framework:Cryptography.obj
 0001:00020fc0       ?Put2@?$InputRejecting@VFilter@CryptoPP@@@CryptoPP@@UAEIPBEIH_N@Z 00421fc0 f i PX Framework:Cryptography.obj
 0001:00020fc0       ?ChannelPut2@?$InputRejecting@VFilter@CryptoPP@@@CryptoPP@@UAEIABV?$basic_string@DU?$char_traits@D@std@@V?$allocator@D@2@@std@@PBEIH_N@Z 00421fc0 f i PX Framework:Cryptography.obj
 0001:00020ff0       ?IsolatedInitialize@Store@CryptoPP@@UAEXABVNameValuePairs@2@@Z 00421ff0 f i PX Framework:Cryptography.obj
 0001:00021000       ?IsolatedInitialize@?$SourceTemplate@VStringStore@CryptoPP@@@CryptoPP@@UAEXABVNameValuePairs@2@@Z 00422000 f i PX Framework:Cryptography.obj
 0001:00021010       ?SetAutoSignalPropagation@?$AutoSignaling@V?$InputRejecting@VBufferedTransformation@CryptoPP@@@CryptoPP@@@CryptoPP@@UAEXH@Z 00422010 f i PX Framework:Cryptography.obj
 0001:00021020       ?SetAutoSignalPropagation@?$SourceTemplate@VStringStore@CryptoPP@@@CryptoPP@@UAEXH@Z 00422020 f i PX Framework:Cryptography.obj
 0001:00021030       ?GetAutoSignalPropagation@?$SourceTemplate@VStringStore@CryptoPP@@@CryptoPP@@UBEHXZ 00422030 f i PX Framework:Cryptography.obj
 0001:00021040       ??0InputRejected@?$InputRejecting@VFilter@CryptoPP@@@CryptoPP@@QAE@XZ 00422040 f i PX Framework:Cryptography.obj
 0001:00021110       ??0InputRejected@?$InputRejecting@VFilter@CryptoPP@@@CryptoPP@@QAE@ABU012@@Z 00422110 f i PX Framework:Cryptography.obj
 0001:000211a0       ?Pump2@?$SourceTemplate@VStringStore@CryptoPP@@@CryptoPP@@UAEIAA_K_N@Z 004221a0 f i PX Framework:Cryptography.obj
 0001:000211d0       ?PumpMessages2@?$SourceTemplate@VStringStore@CryptoPP@@@CryptoPP@@UAEIAAI_N@Z 004221d0 f i PX Framework:Cryptography.obj
 0001:00021200       ?PumpAll2@?$SourceTemplate@VStringStore@CryptoPP@@@CryptoPP@@UAEI_N@Z 00422200 f i PX Framework:Cryptography.obj
 0001:00021230       ?SourceExhausted@?$SourceTemplate@VStringStore@CryptoPP@@@CryptoPP@@UBE_NXZ 00422230 f i PX Framework:Cryptography.obj
 0001:00021260       ??0StringSource@CryptoPP@@QAE@ABV?$basic_string@DU?$char_traits@D@std@@V?$allocator@D@2@@std@@_NPAVBufferedTransformation@1@@Z 00422260 f i PX Framework:Cryptography.obj
 0001:000214a0       ??_E?$StringSinkTemplate@V?$basic_string@DU?$char_traits@D@std@@V?$allocator@D@2@@std@@@CryptoPP@@W3AEPAXI@Z 004224a0 f i PX Framework:Cryptography.obj
 0001:000214b0       ??_E?$StringSinkTemplate@V?$basic_string@DU?$char_traits@D@std@@V?$allocator@D@2@@std@@@CryptoPP@@UAEPAXI@Z 004224b0 f i * CIL library *:* CIL module *
 0001:000214b0       ??_G?$StringSinkTemplate@V?$basic_string@DU?$char_traits@D@std@@V?$allocator@D@2@@std@@@CryptoPP@@UAEPAXI@Z 004224b0 f i PX Framework:Cryptography.obj
 0001:000214e0       ??$_Reallocate_grow_by@V<lambda_f4fd5ca79072ce85a36b5022cfb0e6d1>@@IIPBDI@?$basic_string@DU?$char_traits@D@std@@V?$allocator@D@2@@std@@AAEAAV01@IV<lambda_f4fd5ca79072ce85a36b5022cfb0e6d1>@@IIPBDI@Z 004224e0 f i PX Framework:Cryptography.obj
 0001:00021670       ?replace@?$basic_string@DU?$char_traits@D@std@@V?$allocator@D@2@@std@@QAEAAV12@IIQBDI@Z 00422670 f i PX Framework:Cryptography.obj
 0001:000217e0       ?Put2@?$StringSinkTemplate@V?$basic_string@DU?$char_traits@D@std@@V?$allocator@D@2@@std@@@CryptoPP@@UAEIPBEIH_N@Z 004227e0 f i PX Framework:Cryptography.obj
 0001:00021850       ?IsolatedInitialize@?$StringSinkTemplate@V?$basic_string@DU?$char_traits@D@std@@V?$allocator@D@2@@std@@@CryptoPP@@UAEXABVNameValuePairs@2@@Z 00422850 f i PX Framework:Cryptography.obj
 0001:000218e0       ?TransferTo2@Sink@CryptoPP@@UAEIAAVBufferedTransformation@2@AA_KABV?$basic_string@DU?$char_traits@D@std@@V?$allocator@D@2@@std@@_N@Z 004228e0 f i PX Framework:Cryptography.obj
 0001:00021900       ?CopyRangeTo2@Sink@CryptoPP@@UBEIAAVBufferedTransformation@2@AA_K_KABV?$basic_string@DU?$char_traits@D@std@@V?$allocator@D@2@@std@@_N@Z 00422900 f i PX Framework:Cryptography.obj
 0001:00021910       ?AttachedTransformation@BufferedTransformation@CryptoPP@@UBEPBV12@XZ 00422910 f i PX Framework:Cryptography.obj
 0001:00021920       ?Detach@BufferedTransformation@CryptoPP@@UAEXPAV12@@Z 00422920 f i PX Framework:Cryptography.obj
 0001:00021980       ??_ESHA1@CryptoPP@@UAEPAXI@Z 00422980 f i * CIL library *:* CIL module *
 0001:00021980       ??_GSHA1@CryptoPP@@UAEPAXI@Z 00422980 f i PX Framework:Cryptography.obj
 0001:000219f0       ?Clone@?$ClonableImpl@VSHA1@CryptoPP@@V?$AlgorithmImpl@V?$IteratedHash@IU?$EnumToType@W4ByteOrder@CryptoPP@@$00@CryptoPP@@$0EA@VHashTransformation@2@@CryptoPP@@VSHA1@2@@2@@CryptoPP@@UBEPAVClonable@2@XZ 004229f0 f i PX Framework:Cryptography.obj
 0001:00021af0       ?AlgorithmName@?$AlgorithmImpl@V?$IteratedHash@IU?$EnumToType@W4ByteOrder@CryptoPP@@$00@CryptoPP@@$0EA@VHashTransformation@2@@CryptoPP@@VSHA1@2@@CryptoPP@@UBE?AV?$basic_string@DU?$char_traits@D@std@@V?$allocator@D@2@@std@@XZ 00422af0 f i PX Framework:Cryptography.obj
 0001:00021b20       ?DigestSize@?$IteratedHashWithStaticTransform@IU?$EnumToType@W4ByteOrder@CryptoPP@@$00@CryptoPP@@$0EA@$0BE@VSHA1@2@$0A@$0A@@CryptoPP@@UBEIXZ 00422b20 f i PX Framework:Cryptography.obj
 0001:00021b30       ?BlockSize@?$IteratedHash@IU?$EnumToType@W4ByteOrder@CryptoPP@@$00@CryptoPP@@$0EA@VHashTransformation@2@@CryptoPP@@UBEIXZ 00422b30 f i PX Framework:Cryptography.obj
 0001:00021b40       ?OptimalBlockSize@?$IteratedHashBase@IVHashTransformation@CryptoPP@@@CryptoPP@@UBEIXZ 00422b40 f i PX Framework:Cryptography.obj
 0001:00021b50       ?Verify@HashTransformation@CryptoPP@@UAE_NPBE@Z 00422b50 f i PX Framework:Cryptography.obj
 0001:00021b70       ?VerifyDigest@HashTransformation@CryptoPP@@UAE_NPBE0I@Z 00422b70 f i PX Framework:Cryptography.obj
 0001:00021ba0       ?CalculateTruncatedDigest@HashTransformation@CryptoPP@@UAEXPAEIPBEI@Z 00422ba0 f i PX Framework:Cryptography.obj
 0001:00021bd0       ?VerifyTruncatedDigest@HashTransformation@CryptoPP@@UAE_NPBEI0I@Z 00422bd0 f i PX Framework:Cryptography.obj
 0001:00021c00       ?Init@?$IteratedHashWithStaticTransform@IU?$EnumToType@W4ByteOrder@CryptoPP@@$00@CryptoPP@@$0EA@$0BE@VSHA1@2@$0A@$0A@@CryptoPP@@MAEXXZ 00422c00 f i PX Framework:Cryptography.obj
 0001:00021c10       ?HashEndianCorrectedBlock@?$IteratedHashWithStaticTransform@IU?$EnumToType@W4ByteOrder@CryptoPP@@$00@CryptoPP@@$0EA@$0BE@VSHA1@2@$0A@$0A@@CryptoPP@@MAEXPBI@Z 00422c10 f i PX Framework:Cryptography.obj
 0001:00021c30       ?DataBuf@?$IteratedHash@IU?$EnumToType@W4ByteOrder@CryptoPP@@$00@CryptoPP@@$0EA@VHashTransformation@2@@CryptoPP@@MAEPAIXZ 00422c30 f i PX Framework:Cryptography.obj
 0001:00021c40       ?StateBuf@?$IteratedHashWithStaticTransform@IU?$EnumToType@W4ByteOrder@CryptoPP@@$00@CryptoPP@@$0EA@$0BE@VSHA1@2@$0A@$0A@@CryptoPP@@MAEPAIXZ 00422c40 f i PX Framework:Cryptography.obj
 0001:00021c50       ??_E?$AlgorithmParametersTemplate@VConstByteArrayParameter@CryptoPP@@@CryptoPP@@UAEPAXI@Z 00422c50 f i * CIL library *:* CIL module *
 0001:00021c50       ??_G?$AlgorithmParametersTemplate@VConstByteArrayParameter@CryptoPP@@@CryptoPP@@UAEPAXI@Z 00422c50 f i PX Framework:Cryptography.obj
 0001:00021ce0       ?AssignValue@?$AlgorithmParametersTemplate@VConstByteArrayParameter@CryptoPP@@@CryptoPP@@UBEXPBDABVtype_info@@PAX@Z 00422ce0 f i PX Framework:Cryptography.obj
 0001:00021e30       ?MoveInto@?$AlgorithmParametersTemplate@VConstByteArrayParameter@CryptoPP@@@CryptoPP@@UBEXPAX@Z 00422e30 f i PX Framework:Cryptography.obj
 0001:00021f10       ??$?RVConstByteArrayParameter@CryptoPP@@@AlgorithmParameters@CryptoPP@@QAEAAV01@PBDABVConstByteArrayParameter@1@_N@Z 00422f10 f i PX Framework:Cryptography.obj
 0001:00022030       ?New@?$SecBlock@EV?$AllocatorWithCleanup@E$0A@@CryptoPP@@@CryptoPP@@QAEXI@Z 00423030 f i PX Framework:Cryptography.obj
 0001:00022130       ?Assign@?$SecBlock@EV?$AllocatorWithCleanup@E$0A@@CryptoPP@@@CryptoPP@@QAEXPBEI@Z 00423130 f i PX Framework:Cryptography.obj
 0001:000221b0       ??0HexEncoder@CryptoPP@@QAE@PAVBufferedTransformation@1@_NHABV?$basic_string@DU?$char_traits@D@std@@V?$allocator@D@2@@std@@2@Z 004231b0 f i PX Framework:Cryptography.obj
 0001:00022450       ??1?$ClonableImpl@VSHA1@CryptoPP@@V?$AlgorithmImpl@V?$IteratedHash@IU?$EnumToType@W4ByteOrder@CryptoPP@@$00@CryptoPP@@$0EA@VHashTransformation@2@@CryptoPP@@VSHA1@2@@2@@CryptoPP@@UAE@XZ 00423450 f i PX Framework:Cryptography.obj
 0001:00022480       ??1?$FixedSizeAlignedSecBlock@I$0BA@$0A@@CryptoPP@@QAE@XZ 00423480 f i PX Framework:Cryptography.obj
 0001:000224a0       ??1SHA1@CryptoPP@@UAE@XZ   004234a0 f i PX Framework:Cryptography.obj
 0001:000224f0       ?Final@HashTransformation@CryptoPP@@UAEXPAE@Z 004234f0 f i PX Framework:Cryptography.obj
 0001:00022510       ?CalculateDigest@HashTransformation@CryptoPP@@UAEXPAEPBEI@Z 00423510 f i PX Framework:Cryptography.obj
 0001:00022530       ??$_UIntegral_to_buff@D_K@std@@YAPADPAD_K@Z 00423530 f i PX Framework:Cryptography.obj
 0001:00022650       ?to_string@std@@YA?AV?$basic_string@DU?$char_traits@D@std@@V?$allocator@D@2@@1@_K@Z 00423650 f i PX Framework:Cryptography.obj
 0001:000226b9       ??0bad_alloc@std@@QAE@ABV01@@Z 004236b9 f i libcpmt:xthrow.obj
 0001:000226d4       ??0bad_alloc@std@@QAE@XZ   004236d4 f i libcpmt:xthrow.obj
 0001:000226ec       ??0bad_function_call@std@@QAE@ABV01@@Z 004236ec f i libcpmt:xthrow.obj
 0001:00022707       ??0bad_function_call@std@@QAE@XZ 00423707 f i libcpmt:xthrow.obj
 0001:00022718       ??0invalid_argument@std@@QAE@ABV01@@Z 00423718 f i libcpmt:xthrow.obj
 0001:00022733       ??0invalid_argument@std@@QAE@PBD@Z 00423733 f i libcpmt:xthrow.obj
 0001:00022752       ??0length_error@std@@QAE@ABV01@@Z 00423752 f i libcpmt:xthrow.obj
 0001:0002276d       ??0length_error@std@@QAE@PBD@Z 0042376d f i libcpmt:xthrow.obj
 0001:0002278c       ??0logic_error@std@@QAE@ABV01@@Z 0042378c f i libcpmt:xthrow.obj
 0001:000227a7       ??0out_of_range@std@@QAE@ABV01@@Z 004237a7 f i libcpmt:xthrow.obj
 0001:000227c2       ??0out_of_range@std@@QAE@PBD@Z 004237c2 f i libcpmt:xthrow.obj
 0001:000227e1       ??_Ebad_function_call@std@@UAEPAXI@Z 004237e1 f i libcpmt:xthrow.obj
 0001:000227e1       ??_Glogic_error@std@@UAEPAXI@Z 004237e1 f i libcpmt:xthrow.obj
 0001:000227e1       ??_Gbad_exception@std@@UAEPAXI@Z 004237e1 f i libvcruntime:frame.obj
 0001:000227e1       ??_Gbad_typeid@std@@UAEPAXI@Z 004237e1 f i libvcruntime:rtti.obj
 0001:000227e1       ??_E__non_rtti_object@std@@UAEPAXI@Z 004237e1 f i libvcruntime:rtti.obj
 0001:000227e1       ??_Gout_of_range@std@@UAEPAXI@Z 004237e1 f i libcpmt:xthrow.obj
 0001:000227e1       ??_Ginvalid_argument@std@@UAEPAXI@Z 004237e1 f i libcpmt:xthrow.obj
 0001:000227e1       ??_Elogic_error@std@@UAEPAXI@Z 004237e1 f i libcpmt:xthrow.obj
 0001:000227e1       ??_Eout_of_range@std@@UAEPAXI@Z 004237e1 f i libcpmt:xthrow.obj
 0001:000227e1       ??_Einvalid_argument@std@@UAEPAXI@Z 004237e1 f i libcpmt:xthrow.obj
 0001:000227e1       ??_Ebad_alloc@std@@UAEPAXI@Z 004237e1 f i libcpmt:xthrow.obj
 0001:000227e1       ??_Gbad_alloc@std@@UAEPAXI@Z 004237e1 f i libcpmt:xthrow.obj
 0001:000227e1       ??_Elength_error@std@@UAEPAXI@Z 004237e1 f i libcpmt:xthrow.obj
 0001:000227e1       ??_Gbad_function_call@std@@UAEPAXI@Z 004237e1 f i libcpmt:xthrow.obj
 0001:000227e1       ??_G__non_rtti_object@std@@UAEPAXI@Z 004237e1 f i libvcruntime:rtti.obj
 0001:000227e1       ??_Ebad_exception@std@@UAEPAXI@Z 004237e1 f i libvcruntime:frame.obj
 0001:000227e1       ??_Ebad_array_new_length@std@@UAEPAXI@Z 004237e1 f i LIBCMT:throw_bad_alloc.obj
 0001:000227e1       ??_Gbad_array_new_length@std@@UAEPAXI@Z 004237e1 f i LIBCMT:throw_bad_alloc.obj
 0001:000227e1       ??_Ebad_typeid@std@@UAEPAXI@Z 004237e1 f i libvcruntime:rtti.obj
 0001:000227e1       ??_Glength_error@std@@UAEPAXI@Z 004237e1 f i libcpmt:xthrow.obj
 0001:0002280e       ?__scrt_throw_std_bad_alloc@@YAXXZ 0042380e f   LIBCMT:throw_bad_alloc.obj
 0001:0002280e       ?_Xbad_alloc@std@@YAXXZ    0042380e f   libcpmt:xthrow.obj
 0001:0002282b       ?_Xbad_function_call@std@@YAXXZ 0042382b f   libcpmt:xthrow.obj
 0001:00022848       ?_Xinvalid_argument@std@@YAXPBD@Z 00423848 f   libcpmt:xthrow.obj
 0001:00022868       ?_Xlength_error@std@@YAXPBD@Z 00423868 f   libcpmt:xthrow.obj
 0001:00022888       ?_Xout_of_range@std@@YAXPBD@Z 00423888 f   libcpmt:xthrow.obj
 0001:000228a8       ?_Xruntime_error@std@@YAXPBD@Z 004238a8 f   libcpmt:xthrow.obj
 0001:000228c8       ?what@bad_function_call@std@@UBEPBDXZ 004238c8 f i libcpmt:xthrow.obj
 0001:000228ce       ??0system_error@std@@QAE@HABVerror_category@1@PBD@Z 004238ce f i libcpmt:thread0.obj
 0001:00022939       ?_Throw_Cpp_error@std@@YAXH@Z 00423939 f   libcpmt:thread0.obj
 0001:00022970       __Thrd_id                  00423970 f   libcpmt:cthread.obj
 0001:00022976       __Thrd_join                00423976 f   libcpmt:cthread.obj
 0001:000229c3       __Xtime_get_ticks          004239c3 f   libcpmt:xtime.obj
 0001:000229ea       ?_Syserror_map@std@@YAPBDH@Z 004239ea f   libcpmt:syserror.obj
 0001:00022a0f       ?_Execute_once@std@@YAHAAUonce_flag@1@P6GHPAX1PAPAX@Z1@Z 00423a0f f   libcpmt:xonce.obj
 0001:00022a27       ?uncaught_exception@std@@YA_NXZ 00423a27 f   libcpmt:uncaught_exception.obj
 0001:00022a2c       ?setw@std@@YA?AU?$_Smanip@_J@1@_J@Z 00423a2c f   libcpmt:iomanip.obj
 0001:00022a5a       ??0_Locimp@locale@std@@AAE@_N@Z 00423a5a f i libcpmt:locale0.obj
 0001:00022a9b       ??1_Fac_node@std@@QAE@XZ   00423a9b f i libcpmt:locale0.obj
 0001:00022acc       ??1_Fac_tidy_reg_t@std@@QAE@XZ 00423acc f i libcpmt:locale0.obj
 0001:00022af3       ??1_Locimp@locale@std@@MAE@XZ 00423af3 f i libcpmt:locale0.obj
 0001:00022b4c       ??4?$_Yarn@D@std@@QAEAAV01@PBD@Z 00423b4c f i libcpmt:locale0.obj
 0001:00022ba0       ??_E_Locimp@locale@std@@MAEPAXI@Z 00423ba0 f i libcpmt:locale0.obj
 0001:00022ba0       ??_G_Locimp@locale@std@@MAEPAXI@Z 00423ba0 f i libcpmt:locale0.obj
 0001:00022bc2       ?_Facet_Register@std@@YAXPAV_Facet_base@1@@Z 00423bc2 f   libcpmt:locale0.obj
 0001:00022bee       ?_Getgloballocale@locale@std@@CAPAV_Locimp@12@XZ 00423bee f   libcpmt:locale0.obj
 0001:00022bf4       ?_Init@locale@std@@CAPAV_Locimp@12@_N@Z 00423bf4 f   libcpmt:locale0.obj
 0001:00022c84       ?_Locimp_dtor@_Locimp@locale@std@@CAXPAV123@@Z 00423c84 f   libcpmt:locale0.obj
 0001:00022cf4       ?_Locinfo_ctor@_Locinfo@std@@SAXPAV12@PBD@Z 00423cf4 f   libcpmt:locale0.obj
 0001:00022d3f       ?_Locinfo_dtor@_Locinfo@std@@SAXPAV12@@Z 00423d3f f   libcpmt:locale0.obj
 0001:00022d59       ?_New_Locimp@_Locimp@locale@std@@CAPAV123@_N@Z 00423d59 f   libcpmt:locale0.obj
 0001:00022d7c       ?_Setgloballocale@locale@std@@CAXPAX@Z 00423d7c f   libcpmt:locale0.obj
 0001:00022da4       __Deletegloballocale       00423da4 f   libcpmt:locale0.obj
 0001:00022e09       ??0_Init_locks@std@@QAE@XZ 00423e09 f   libcpmt:xlock.obj
 0001:00022e36       ??0_Lockit@std@@QAE@H@Z    00423e36 f   libcpmt:xlock.obj
 0001:00022e67       ??1_Init_locks@std@@QAE@XZ 00423e67 f   libcpmt:xlock.obj
 0001:00022e8e       ??1_Lockit@std@@QAE@XZ     00423e8e f   libcpmt:xlock.obj
 0001:00022ead       __Getcvt                   00423ead f   libcpmt:xwctomb.obj
 0001:00022f20       __Getctype                 00423f20 f   libcpmt:_tolower.obj
 0001:00022f88       __Tolower                  00423f88 f   libcpmt:_tolower.obj
 0001:00023086       __Toupper                  00424086 f   libcpmt:_toupper.obj
 0001:00023184       ?_Callfns@ios_base@std@@AAEXW4event@12@@Z 00424184 f i libcpmt:ios.obj
 0001:000231b7       ?_Ios_base_dtor@ios_base@std@@CAXPAV12@@Z 004241b7 f   libcpmt:ios.obj
 0001:000231f7       ?_Tidy@ios_base@std@@AAEXXZ 004241f7 f i libcpmt:ios.obj
 0001:0002326d       ___std_reverse_trivially_swappable_1 0042426d f   libcpmt:vector_algorithms.obj
 0001:0002331a       ??$_Xfiopen@_W@std@@YAPAU_iobuf@@PB_WHH@Z 0042431a f i libcpmt:fiopen.obj
 0001:000233ba       ?_Fiopen@std@@YAPAU_iobuf@@PB_WHH@Z 004243ba f   libcpmt:fiopen.obj
 0001:000233c3       ?_Xfsopen@std@@YAPAU_iobuf@@PB_WHH@Z 004243c3 f   libcpmt:fiopen.obj
 0001:000233e0       ?uncaught_exceptions@std@@YAHXZ 004243e0 f   libcpmt:uncaught_exceptions.obj
 0001:0002378f       ___crtGetSystemTimePreciseAsFileTime 0042478f f   libcpmt:winapisupp.obj
 0001:000237b9       ___crtInitOnceExecuteOnce  004247b9 f   libcpmt:winapisupp.obj
 0001:00023847       ___crtInitializeCriticalSectionEx 00424847 f   libcpmt:winapisupp.obj
 0001:00023880       ??1_Init_atexit@@QAE@XZ    00424880 f i libcpmt:iosptrs.obj
 0001:000238e3       ?_Atexit@@YAXP6AXXZ@Z      004248e3 f   libcpmt:iosptrs.obj
 0001:00023912       __Mtxdst                   00424912 f   libcpmt:xmtx.obj
 0001:00023920       __Mtxinit                  00424920 f   libcpmt:xmtx.obj
 0001:00023937       __Mtxlock                  00424937 f   libcpmt:xmtx.obj
 0001:00023945       __Mtxunlock                00424945 f   libcpmt:xmtx.obj
 0001:00023953       ___crtLCMapStringA         00424953 f   libcpmt:StlLCMapStringA.obj
 0001:00023b28       __freea_crt                00424b28 f i libcpmt:StlLCMapStringA.obj
 0001:00023b46       _GetTableIndexFromLocaleName 00424b46 f   libcpmt:winapinls.obj
 0001:00023b94       ___crtDownlevelLocaleNameToLCID 00424b94 f   libcpmt:winapinls.obj
 0001:00023bbe       ___crtLCMapStringEx        00424bbe f   libcpmt:winapinls.obj
 0001:00023c15       ___wcsnicmp_ascii          00424c15 f   libcpmt:winapinls.obj
 0001:00023c80       ?_com_issue_error@@YGXJ@Z  00424c80 f   comsuppw:comsupp.obj
 0001:00023ca0       ??0_com_error@@QAE@ABV0@@Z 00424ca0 f i comsuppw:comraise.obj
 0001:00023ce0       ??0_com_error@@QAE@JPAUIErrorInfo@@_N@Z 00424ce0 f i comsuppw:comraise.obj
 0001:00023d30       ??1_com_error@@UAE@XZ      00424d30 f i comsuppw:comraise.obj
 0001:00023d70       ??_E_com_error@@UAEPAXI@Z  00424d70 f i comsuppw:comraise.obj
 0001:00023d70       ??_G_com_error@@UAEPAXI@Z  00424d70 f i comsuppw:comraise.obj
 0001:00023dc0       ?_com_raise_error@@YGXJPAUIErrorInfo@@@Z 00424dc0 f   comsuppw:comraise.obj
 0001:00023df0       _curl_easy_cleanup         00424df0 f   libcurl:easy.obj
 0001:00023e10       _curl_easy_init            00424e10 f   libcurl:easy.obj
 0001:00023e50       _curl_easy_perform         00424e50 f   libcurl:easy.obj
 0001:00023e70       _curl_global_init          00424e70 f   libcurl:easy.obj
 0001:00024160       _Curl_setstropt            00425160 f   libcurl:setopt.obj
 0001:000241a0       _Curl_vsetopt              004251a0 f   libcurl:setopt.obj
 0001:00026f20       _curl_easy_setopt          00427f20 f   libcurl:setopt.obj
 0001:00027010       _Curl_slist_append_nodup   00428010 f   libcurl:slist.obj
 0001:00027050       _curl_slist_append         00428050 f   libcurl:slist.obj
 0001:00027090       _curl_slist_free_all       00428090 f   libcurl:slist.obj
 0001:000270f0       _Curl_expire               004280f0 f   libcurl:multi.obj
 0001:00027260       _Curl_expire_clear         00428260 f   libcurl:multi.obj
 0001:00027300       _Curl_expire_done          00428300 f   libcurl:multi.obj
 0001:00027330       _Curl_multi_chunk_length_penalty_size 00428330 f   libcurl:multi.obj
 0001:00027350       _Curl_multi_closed         00428350 f   libcurl:multi.obj
 0001:000273a0       _Curl_multi_content_length_penalty_size 004283a0 f   libcurl:multi.obj
 0001:000273c0       _Curl_multi_handle         004283c0 f   libcurl:multi.obj
 0001:000274a0       _Curl_multi_max_host_connections 004284a0 f   libcurl:multi.obj
 0001:000274c0       _Curl_multi_max_total_connections 004284c0 f   libcurl:multi.obj
 0001:000274e0       _Curl_multi_pipelining_server_bl 004284e0 f   libcurl:multi.obj
 0001:000274f0       _Curl_multi_pipelining_site_bl 004284f0 f   libcurl:multi.obj
 0001:00027500       _Curl_multi_wait           00428500 f   libcurl:multi.obj
 0001:00027850       _Curl_pipeline_wanted      00428850 f   libcurl:multi.obj
 0001:00027870       _Curl_set_in_callback      00428870 f   libcurl:multi.obj
 0001:00027970       _curl_multi_add_handle     00428970 f   libcurl:multi.obj
 0001:00027af0       _curl_multi_cleanup        00428af0 f   libcurl:multi.obj
 0001:00027c00       _curl_multi_info_read      00428c00 f   libcurl:multi.obj
 0001:00027c70       _curl_multi_perform        00428c70 f   libcurl:multi.obj
 0001:00027d80       _curl_multi_remove_handle  00428d80 f   libcurl:multi.obj
 0001:00027f50       _curl_multi_setopt         00428f50 f   libcurl:multi.obj
 0001:000280d0       _curl_multi_timeout        004290d0 f   libcurl:multi.obj
 0001:00029960       _curl_free                 0042a960 f   libcurl:escape.obj
 0001:00029960       _Curl_resolver_cleanup     0042a960 f   libcurl:asyn-thread.obj
 0001:00029dd0       _Curl_cookie_add           0042add0 f   libcurl:cookie.obj
 0001:0002a990       _Curl_cookie_cleanup       0042b990 f   libcurl:cookie.obj
 0001:0002a9e0       _Curl_cookie_clearall      0042b9e0 f   libcurl:cookie.obj
 0001:0002aa20       _Curl_cookie_clearsess     0042ba20 f   libcurl:cookie.obj
 0001:0002aaa0       _Curl_cookie_freelist      0042baa0 f   libcurl:cookie.obj
 0001:0002aad0       _Curl_cookie_getlist       0042bad0 f   libcurl:cookie.obj
 0001:0002ac40       _Curl_cookie_init          0042bc40 f   libcurl:cookie.obj
 0001:0002ae10       _Curl_cookie_loadfiles     0042be10 f   libcurl:cookie.obj
 0001:0002ae90       _Curl_flush_cookies        0042be90 f   libcurl:cookie.obj
 0001:0002af50       ___local_stdio_scanf_options 0042bf50 f i libcurl:cookie.obj
 0001:0002b880       _sscanf                    0042c880 f i libcurl:cookie.obj
 0001:0002b930       _Curl_resolver_cancel      0042c930 f   libcurl:asyn-thread.obj
 0001:0002b940       _Curl_resolver_getaddrinfo 0042c940 f   libcurl:asyn-thread.obj
 0001:0002bab0       _Curl_resolver_getsock     0042cab0 f   libcurl:asyn-thread.obj
 0001:0002bb50       _Curl_resolver_init        0042cb50 f   libcurl:asyn-thread.obj
 0001:0002bb80       _Curl_resolver_is_resolved 0042cb80 f   libcurl:asyn-thread.obj
 0001:0002bcd0       _Curl_resolver_wait_resolv 0042ccd0 f   libcurl:asyn-thread.obj
 0001:0002c110       _Curl_cache_addr           0042d110 f   libcurl:hostip.obj
 0001:0002c1f0       _Curl_fetch_addr           0042d1f0 f   libcurl:hostip.obj
 0001:0002c240       _Curl_global_host_cache_init 0042d240 f   libcurl:hostip.obj
 0001:0002c290       _Curl_hostcache_clean      0042d290 f   libcurl:hostip.obj
 0001:0002c2e0       _Curl_hostcache_prune      0042d2e0 f   libcurl:hostip.obj
 0001:0002c350       _Curl_loadhostpairs        0042d350 f   libcurl:hostip.obj
 0001:0002c760       _Curl_mk_dnscache          0042d760 f   libcurl:hostip.obj
 0001:0002c790       _Curl_num_addresses        0042d790 f   libcurl:hostip.obj
 0001:0002c7b0       _Curl_once_resolved        0042d7b0 f   libcurl:hostip.obj
 0001:0002c800       _Curl_printable_address    0042d800 f   libcurl:hostip.obj
 0001:0002c850       _Curl_resolv               0042d850 f   libcurl:hostip.obj
 0001:0002c9f0       _Curl_resolv_check         0042d9f0 f   libcurl:hostip.obj
 0001:0002ca20       _Curl_resolv_getsock       0042da20 f   libcurl:hostip.obj
 0001:0002ca40       _Curl_resolv_timeout       0042da40 f   libcurl:hostip.obj
 0001:0002ca80       _Curl_resolv_unlock        0042da80 f   libcurl:hostip.obj
 0001:0002cad0       _Curl_shuffle_addr         0042dad0 f   libcurl:hostip.obj
 0001:0002ce20       _Curl_ipv6works            0042de20 f   libcurl:hostip6.obj
 0001:0002ce70       _Curl_ipvalid              0042de70 f   libcurl:hostip6.obj
 0001:0002d300       _Curl_mime_add_header      0042e300 f   libcurl:mime.obj
 0001:0002d360       _Curl_mime_cleanpart       0042e360 f   libcurl:mime.obj
 0001:0002d3d0       _Curl_mime_contenttype     0042e3d0 f   libcurl:mime.obj
 0001:0002d440       _Curl_mime_initpart        0042e440 f   libcurl:mime.obj
 0001:0002d470       _Curl_mime_prepare_headers 0042e470 f   libcurl:mime.obj
 0001:0002d780       _Curl_mime_read            0042e780 f   libcurl:mime.obj
 0001:0002d7a0       _Curl_mime_rewind          0042e7a0 f   libcurl:mime.obj
 0001:0002d7c0       _Curl_mime_set_subparts    0042e7c0 f   libcurl:mime.obj
 0001:0002d890       _Curl_mime_size            0042e890 f   libcurl:mime.obj
 0001:0002d9e0       _curl_mime_addpart         0042e9e0 f   libcurl:mime.obj
 0001:0002da40       _curl_mime_data            0042ea40 f   libcurl:mime.obj
 0001:0002dae0       _curl_mime_data_cb         0042eae0 f   libcurl:mime.obj
 0001:0002db30       _curl_mime_filedata        0042eb30 f   libcurl:mime.obj
 0001:0002dc50       _curl_mime_filename        0042ec50 f   libcurl:mime.obj
 0001:0002dca0       _curl_mime_free            0042eca0 f   libcurl:mime.obj
 0001:0002dd00       _curl_mime_headers         0042ed00 f   libcurl:mime.obj
 0001:0002dd50       _curl_mime_init            0042ed50 f   libcurl:mime.obj
 0001:0002de00       _curl_mime_name            0042ee00 f   libcurl:mime.obj
 0001:0002de50       _curl_mime_subparts        0042ee50 f   libcurl:mime.obj
 0001:0002de70       _curl_mime_type            0042ee70 f   libcurl:mime.obj
 0001:0002e9a0       _Curl_none_md5sum          0042f9a0 f   libcurl:vtls.obj
 0001:0002eb80       _Curl_clone_primary_ssl_config 0042fb80 f   libcurl:vtls.obj
 0001:0002ecc0       _Curl_free_primary_ssl_config 0042fcc0 f   libcurl:vtls.obj
 0001:0002ed40       _Curl_pin_peer_pubkey      0042fd40 f   libcurl:vtls.obj
 0001:0002f0f0       _Curl_ssl_addsessionid     004300f0 f   libcurl:vtls.obj
 0001:0002f2e0       _Curl_ssl_backend          004302e0 f   libcurl:vtls.obj
 0001:0002f300       _Curl_ssl_cert_status_request 00430300 f   libcurl:vtls.obj
 0001:0002f310       _Curl_ssl_check_cxn        00430310 f   libcurl:vtls.obj
 0001:0002f320       _Curl_ssl_close            00430320 f   libcurl:vtls.obj
 0001:0002f330       _Curl_ssl_close_all        00430330 f   libcurl:vtls.obj
 0001:0002f3b0       _Curl_ssl_config_matches   004303b0 f   libcurl:vtls.obj
 0001:0002f480       _Curl_ssl_connect          00430480 f   libcurl:vtls.obj
 0001:0002f500       _Curl_ssl_connect_nonblocking 00430500 f   libcurl:vtls.obj
 0001:0002f580       _Curl_ssl_data_pending     00430580 f   libcurl:vtls.obj
 0001:0002f590       _Curl_ssl_delsessionid     00430590 f   libcurl:vtls.obj
 0001:0002f5d0       _Curl_ssl_false_start      004305d0 f   libcurl:vtls.obj
 0001:0002f5e0       _Curl_ssl_free_certinfo    004305e0 f   libcurl:vtls.obj
 0001:0002f650       _Curl_ssl_getsessionid     00430650 f   libcurl:vtls.obj
 0001:0002f830       _Curl_ssl_getsock          00430830 f   libcurl:vtls.obj
 0001:0002f880       _Curl_ssl_init             00430880 f   libcurl:vtls.obj
 0001:0002f8a0       _Curl_ssl_init_certinfo    004308a0 f   libcurl:vtls.obj
 0001:0002f8e0       _Curl_ssl_initsessions     004308e0 f   libcurl:vtls.obj
 0001:0002f930       _Curl_ssl_kill_session     00430930 f   libcurl:vtls.obj
 0001:0002f990       _Curl_ssl_push_certinfo    00430990 f   libcurl:vtls.obj
 0001:0002f9c0       _Curl_ssl_push_certinfo_len 004309c0 f   libcurl:vtls.obj
 0001:0002fa90       _Curl_ssl_random           00430a90 f   libcurl:vtls.obj
 0001:0002faa0       _Curl_ssl_sessionid_lock   00430aa0 f   libcurl:vtls.obj
 0001:0002fad0       _Curl_ssl_sessionid_unlock 00430ad0 f   libcurl:vtls.obj
 0001:0002fb00       _Curl_ssl_set_engine       00430b00 f   libcurl:vtls.obj
 0001:0002fb10       _Curl_ssl_set_engine_default 00430b10 f   libcurl:vtls.obj
 0001:0002fb20       _Curl_ssl_shutdown         00430b20 f   libcurl:vtls.obj
 0001:0002fb80       _Curl_ssl_tls13_ciphersuites 00430b80 f   libcurl:vtls.obj
 0001:0002fb90       _Curl_ssl_version          00430b90 f   libcurl:vtls.obj
 0001:000306c0       _Curl_builtin_scheme       004316c0 f   libcurl:url.obj
 0001:00030700       _Curl_close                00431700 f   libcurl:url.obj
 0001:000308d0       _Curl_connect              004318d0 f   libcurl:url.obj
 0001:00030990       _Curl_connected_proxy      00431990 f   libcurl:url.obj
 0001:00030aa0       _Curl_disconnect           00431aa0 f   libcurl:url.obj
 0001:00030b40       _Curl_doing_getsock        00431b40 f   libcurl:url.obj
 0001:00030b70       _Curl_free_request_state   00431b70 f   libcurl:url.obj
 0001:00030bb0       _Curl_freeset              00431bb0 f   libcurl:url.obj
 0001:00030c40       _Curl_getoff_all_pipelines 00431c40 f   libcurl:url.obj
 0001:00030d10       _Curl_init_do              00431d10 f   libcurl:url.obj
 0001:00030e00       _Curl_init_userdefined     00431e00 f   libcurl:url.obj
 0001:00031090       _Curl_open                 00432090 f   libcurl:url.obj
 0001:000311a0       _Curl_parse_login_details  004321a0 f   libcurl:url.obj
 0001:000313a0       _Curl_protocol_connect     004323a0 f   libcurl:url.obj
 0001:00031460       _Curl_protocol_connecting  00432460 f   libcurl:url.obj
 0001:000314a0       _Curl_protocol_doing       004324a0 f   libcurl:url.obj
 0001:000314e0       _Curl_protocol_getsock     004324e0 f   libcurl:url.obj
 0001:00031510       _Curl_removeHandleFromPipeline 00432510 f   libcurl:url.obj
 0001:00031550       _Curl_setup_conn           00432550 f   libcurl:url.obj
 0001:00031670       _Curl_uc_to_curlcode       00432670 f   libcurl:url.obj
 0001:000316b0       _Curl_up_free              004326b0 f   libcurl:url.obj
 0001:00031790       _Curl_verboseconnect       00432790 f   libcurl:url.obj
 0001:000347c0       _Curl_initinfo             004357c0 f   libcurl:getinfo.obj
 0001:00034940       _Curl_memdup               00435940 f   libcurl:strdup.obj
 0001:00034970       _Curl_saferealloc          00435970 f   libcurl:strdup.obj
 0001:000349a0       _Curl_poll                 004359a0 f   libcurl:select.obj
 0001:00034dd0       _Curl_socket_check         00435dd0 f   libcurl:select.obj
 0001:000351c0       _Curl_wait_ms              004361c0 f   libcurl:select.obj
 0001:000351f0       _Curl_client_write         004361f0 f   libcurl:sendf.obj
 0001:00035220       _Curl_debug                00436220 f   libcurl:sendf.obj
 0001:000352a0       _Curl_failf                004362a0 f   libcurl:sendf.obj
 0001:00035380       _Curl_infof                00436380 f   libcurl:sendf.obj
 0001:00035440       _Curl_read                 00436440 f   libcurl:sendf.obj
 0001:00035550       _Curl_read_plain           00436550 f   libcurl:sendf.obj
 0001:00035590       _Curl_recv_has_postponed_data 00436590 f   libcurl:sendf.obj
 0001:000355d0       _Curl_recv_plain           004365d0 f   libcurl:sendf.obj
 0001:00035680       _Curl_send_plain           00436680 f   libcurl:sendf.obj
 0001:00035710       _Curl_sendf                00436710 f   libcurl:sendf.obj
 0001:000357e0       _Curl_write                004367e0 f   libcurl:sendf.obj
 0001:00035840       _Curl_write_plain          00436840 f   libcurl:sendf.obj
 0001:00035c80       _Curl_closesocket          00436c80 f   libcurl:connect.obj
 0001:00035d00       _Curl_conn_data_pending    00436d00 f   libcurl:connect.obj
 0001:00035d60       _Curl_connalive            00436d60 f   libcurl:connect.obj
 0001:00035db0       _Curl_conncontrol          00436db0 f   libcurl:connect.obj
 0001:00035e00       _Curl_connecthost          00436e00 f   libcurl:connect.obj
 0001:00035f60       _Curl_getaddressinfo       00436f60 f   libcurl:connect.obj
 0001:00036000       _Curl_is_connected         00437000 f   libcurl:connect.obj
 0001:00036400       _Curl_persistconninfo      00437400 f   libcurl:connect.obj
 0001:000364e0       _Curl_sndbufset            004374e0 f   libcurl:connect.obj
 0001:00036580       _Curl_socket               00437580 f   libcurl:connect.obj
 0001:00036690       _Curl_tcpnodelay           00437690 f   libcurl:connect.obj
 0001:000366f0       _Curl_timeleft             004376f0 f   libcurl:connect.obj
 0001:00036810       _Curl_updateconninfo       00437810 f   libcurl:connect.obj
 0001:00037530       _curlx_read                00438530 f   libcurl:warnless.obj
 0001:00037550       _curlx_uztosi              00438550 f   libcurl:warnless.obj
 0001:00037550       _curlx_sltosi              00438550 f   libcurl:warnless.obj
 0001:00037550       _curlx_uztosz              00438550 f   libcurl:warnless.obj
 0001:00037560       _curlx_uztoui              00438560 f   libcurl:warnless.obj
 0001:00037560       _curlx_sltoui              00438560 f   libcurl:warnless.obj
 0001:00037560       _curlx_sotouz              00438560 f   libcurl:warnless.obj
 0001:00037570       _curlx_ultous              00438570 f   libcurl:warnless.obj
 0001:00037570       _curlx_sltous              00438570 f   libcurl:warnless.obj
 0001:00037580       _curlx_ultouc              00438580 f   libcurl:warnless.obj
 0001:00037590       _curlx_write               00438590 f   libcurl:warnless.obj
 0001:000375b0       _Curl_digest_cleanup       004385b0 f   libcurl:http_digest.obj
 0001:000375e0       _Curl_input_digest         004385e0 f   libcurl:http_digest.obj
 0001:00037650       _Curl_output_digest        00438650 f   libcurl:http_digest.obj
 0001:000377c0       _Curl_version_init         004387c0 f   libcurl:version.obj
 0001:000377d0       _curl_version              004387d0 f   libcurl:version.obj
 0001:00037860       _curl_version_info         00438860 f   libcurl:version.obj
 0001:000378c0       _Curl_raw_toupper          004388c0 f   libcurl:strcase.obj
 0001:000378e0       _Curl_safe_strcasecompare  004388e0 f   libcurl:strcase.obj
 0001:00037910       _Curl_strcasecompare       00438910 f   libcurl:strcase.obj
 0001:00037980       _Curl_strncasecompare      00438980 f   libcurl:strcase.obj
 0001:00037a10       _Curl_strntoupper          00438a10 f   libcurl:strcase.obj
 0001:00037a50       _curl_strequal             00438a50 f   libcurl:strcase.obj
 0001:00037a60       _curl_strnequal            00438a60 f   libcurl:strcase.obj
 0001:00037b40       _Curl_all_content_encodings 00438b40 f   libcurl:content_encoding.obj
 0001:00037c30       _Curl_build_unencoding_stack 00438c30 f   libcurl:content_encoding.obj
 0001:00037d40       _Curl_unencode_cleanup     00438d40 f   libcurl:content_encoding.obj
 0001:00037d80       _Curl_unencode_write       00438d80 f   libcurl:content_encoding.obj
 0001:00037e60       _Curl_share_lock           00438e60 f   libcurl:share.obj
 0001:00037ea0       _Curl_share_unlock         00438ea0 f   libcurl:share.obj
 0001:00037ee0       _Curl_now                  00438ee0 f   libcurl:timeval.obj
 0001:00037f90       _Curl_timediff             00438f90 f   libcurl:timeval.obj
 0001:00038020       _Curl_timediff_us          00439020 f   libcurl:timeval.obj
 0001:00038090       _Curl_llist_count          00439090 f   libcurl:llist.obj
 0001:00038090       _Curl_ftp_parselist_geterror 00439090 f   libcurl:ftplistparser.obj
 0001:000380a0       _Curl_llist_destroy        004390a0 f   libcurl:llist.obj
 0001:000380d0       _Curl_llist_init           004390d0 f   libcurl:llist.obj
 0001:00038100       _Curl_llist_insert_next    00439100 f   libcurl:llist.obj
 0001:00038180       _Curl_llist_move           00439180 f   libcurl:llist.obj
 0001:00038230       _Curl_llist_remove         00439230 f   libcurl:llist.obj
 0001:000382b0       _Curl_hash_add             004392b0 f   libcurl:hash.obj
 0001:00038340       _Curl_hash_clean           00439340 f   libcurl:hash.obj
 0001:00038360       _Curl_hash_clean_with_criterium 00439360 f   libcurl:hash.obj
 0001:000383f0       _Curl_hash_delete          004393f0 f   libcurl:hash.obj
 0001:00038470       _Curl_hash_destroy         00439470 f   libcurl:hash.obj
 0001:000384c0       _Curl_hash_init            004394c0 f   libcurl:hash.obj
 0001:00038550       _Curl_hash_next_element    00439550 f   libcurl:hash.obj
 0001:000385c0       _Curl_hash_pick            004395c0 f   libcurl:hash.obj
 0001:00038630       _Curl_hash_start_iterate   00439630 f   libcurl:hash.obj
 0001:00038650       _Curl_hash_str             00439650 f   libcurl:hash.obj
 0001:000386a0       _Curl_str_key_compare      004396a0 f   libcurl:hash.obj
 0001:00038790       _Curl_splay                00439790 f   libcurl:splay.obj
 0001:000388e0       _Curl_splaygetbest         004398e0 f   libcurl:splay.obj
 0001:00038990       _Curl_splayinsert          00439990 f   libcurl:splay.obj
 0001:00038ab0       _Curl_splayremovebyaddr    00439ab0 f   libcurl:splay.obj
 0001:00038bc0       _Curl_http                 00439bc0 f   libcurl:http.obj
 0001:0003a420       _Curl_http_done            0043b420 f   libcurl:http.obj
 0001:0003a520       _Curl_http_connect         0043b520 f   libcurl:http.obj
 0001:0003a5b0       _Curl_http_setup_conn      0043b5b0 f   libcurl:http.obj
 0001:0003a670       _Curl_add_buffer           0043b670 f   libcurl:http.obj
 0001:0003a750       _Curl_add_buffer_free      0043b750 f   libcurl:http.obj
 0001:0003a780       _Curl_add_buffer_init      0043b780 f   libcurl:http.obj
 0001:0003a790       _Curl_add_buffer_send      0043b790 f   libcurl:http.obj
 0001:0003a980       _Curl_add_bufferf          0043b980 f   libcurl:http.obj
 0001:0003a9f0       _Curl_add_custom_headers   0043b9f0 f   libcurl:http.obj
 0001:0003acb0       _Curl_add_timecondition    0043bcb0 f   libcurl:http.obj
 0001:0003ade0       _Curl_checkProxyheaders    0043bde0 f   libcurl:http.obj
 0001:0003ae60       _Curl_compareheader        0043be60 f   libcurl:http.obj
 0001:0003af20       _Curl_copy_header_value    0043bf20 f   libcurl:http.obj
 0001:0003aff0       _Curl_http_auth_act        0043bff0 f   libcurl:http.obj
 0001:0003b210       _Curl_http_input_auth      0043c210 f   libcurl:http.obj
 0001:0003b3e0       _Curl_http_output_auth     0043c3e0 f   libcurl:http.obj
 0001:0003b4e0       _Curl_http_readwrite_headers 0043c4e0 f   libcurl:http.obj
 0001:0003cf20       _Curl_wildcard_dtor        0043df20 f   libcurl:wildcard.obj
 0001:0003cf90       _Curl_wildcard_init        0043df90 f   libcurl:wildcard.obj
 0001:0003cfd0       _Curl_conncache_add_conn   0043dfd0 f   libcurl:conncache.obj
 0001:0003d0c0       _Curl_conncache_bundle_size 0043e0c0 f   libcurl:conncache.obj
 0001:0003d100       _Curl_conncache_close_all_connections 0043e100 f   libcurl:conncache.obj
 0001:0003d170       _Curl_conncache_destroy    0043e170 f   libcurl:conncache.obj
 0001:0003d190       _Curl_conncache_extract_bundle 0043e190 f   libcurl:conncache.obj
 0001:0003d250       _Curl_conncache_extract_oldest 0043e250 f   libcurl:conncache.obj
 0001:0003d380       _Curl_conncache_find_bundle 0043e380 f   libcurl:conncache.obj
 0001:0003d410       _Curl_conncache_find_first_connection 0043e410 f   libcurl:conncache.obj
 0001:0003d460       _Curl_conncache_foreach    0043e460 f   libcurl:conncache.obj
 0001:0003d530       _Curl_conncache_init       0043e530 f   libcurl:conncache.obj
 0001:0003d5a0       _Curl_conncache_remove_conn 0043e5a0 f   libcurl:conncache.obj
 0001:0003d630       _Curl_conncache_return_conn 0043e630 f   libcurl:conncache.obj
 0001:0003d6a0       _Curl_conncache_size       0043e6a0 f   libcurl:conncache.obj
 0001:0003d6e0       _Curl_conncache_unlock     0043e6e0 f   libcurl:conncache.obj
 0001:0003d940       _Curl_checkheaders         0043e940 f   libcurl:transfer.obj
 0001:0003d9a0       _Curl_fillreadbuffer       0043e9a0 f   libcurl:transfer.obj
 0001:0003dbb0       _Curl_follow               0043ebb0 f   libcurl:transfer.obj
 0001:0003de20       _Curl_get_upload_buffer    0043ee20 f   libcurl:transfer.obj
 0001:0003de60       _Curl_init_CONNECT         0043ee60 f   libcurl:transfer.obj
 0001:0003de80       _Curl_meets_timecondition  0043ee80 f   libcurl:transfer.obj
 0001:0003def0       _Curl_pretransfer          0043eef0 f   libcurl:transfer.obj
 0001:0003e120       _Curl_readrewind           0043f120 f   libcurl:transfer.obj
 0001:0003e290       _Curl_readwrite            0043f290 f   libcurl:transfer.obj
 0001:0003e5f0       _Curl_retry_request        0043f5f0 f   libcurl:transfer.obj
 0001:0003e720       _Curl_setup_transfer       0043f720 f   libcurl:transfer.obj
 0001:0003e880       _Curl_single_getsock       0043f880 f   libcurl:transfer.obj
 0001:0003f4f0       _Curl_pgrsDone             004404f0 f   libcurl:progress.obj
 0001:0003f550       _Curl_pgrsLimitWaitTime    00440550 f   libcurl:progress.obj
 0001:0003f620       _Curl_pgrsResetTransferSizes 00440620 f   libcurl:progress.obj
 0001:0003f640       _Curl_pgrsSetDownloadCounter 00440640 f   libcurl:progress.obj
 0001:0003f660       _Curl_pgrsSetDownloadSize  00440660 f   libcurl:progress.obj
 0001:0003f6b0       _Curl_pgrsSetUploadCounter 004406b0 f   libcurl:progress.obj
 0001:0003f6d0       _Curl_pgrsSetUploadSize    004406d0 f   libcurl:progress.obj
 0001:0003f720       _Curl_pgrsStartNow         00440720 f   libcurl:progress.obj
 0001:0003f7c0       _Curl_pgrsTime             004407c0 f   libcurl:progress.obj
 0001:0003f8f0       _Curl_pgrsUpdate           004408f0 f   libcurl:progress.obj
 0001:00040240       _Curl_ratelimit            00441240 f   libcurl:progress.obj
 0001:00040680       _Curl_speedcheck           00441680 f   libcurl:speedcheck.obj
 0001:00040780       _Curl_speedinit            00441780 f   libcurl:speedcheck.obj
 0001:000407a0       _Curl_add_handle_to_pipeline 004417a0 f   libcurl:pipeline.obj
 0001:00040800       _Curl_move_handle_from_send_to_recv_pipe 00441800 f   libcurl:pipeline.obj
 0001:00040870       _Curl_pipeline_checkget_read 00441870 f   libcurl:pipeline.obj
 0001:000408b0       _Curl_pipeline_checkget_write 004418b0 f   libcurl:pipeline.obj
 0001:000408f0       _Curl_pipeline_leave_read  004418f0 f   libcurl:pipeline.obj
 0001:00040900       _Curl_pipeline_leave_write 00441900 f   libcurl:pipeline.obj
 0001:00040910       _Curl_pipeline_penalized   00441910 f   libcurl:pipeline.obj
 0001:000409f0       _Curl_pipeline_server_blacklisted 004419f0 f   libcurl:pipeline.obj
 0001:00040a60       _Curl_pipeline_set_server_blacklist 00441a60 f   libcurl:pipeline.obj
 0001:00040b10       _Curl_pipeline_set_site_blacklist 00441b10 f   libcurl:pipeline.obj
 0001:00040bf0       _Curl_pipeline_site_blacklisted 00441bf0 f   libcurl:pipeline.obj
 0001:00040c80       _Curl_recvpipe_head        00441c80 f   libcurl:pipeline.obj
 0001:00040ca0       _Curl_sendpipe_head        00441ca0 f   libcurl:pipeline.obj
 0001:00041760       _Curl_connect_complete     00442760 f   libcurl:http_proxy.obj
 0001:00041790       _Curl_connect_free         00442790 f   libcurl:http_proxy.obj
 0001:000417c0       _Curl_connect_ongoing      004427c0 f   libcurl:http_proxy.obj
 0001:000417f0       _Curl_proxyCONNECT         004427f0 f   libcurl:http_proxy.obj
 0001:00041850       _Curl_proxy_connect        00442850 f   libcurl:http_proxy.obj
 0001:00041b40       _curl_maprintf             00442b40 f   libcurl:mprintf.obj
 0001:00041bd0       _curl_mfprintf             00442bd0 f   libcurl:mprintf.obj
 0001:00041bf0       _curl_msnprintf            00442bf0 f   libcurl:mprintf.obj
 0001:00041c10       _curl_mvaprintf            00442c10 f   libcurl:mprintf.obj
 0001:00041ca0       _curl_mvsnprintf           00442ca0 f   libcurl:mprintf.obj
 0001:000430b0       _Curl_gmtime               004440b0 f   libcurl:parsedate.obj
 0001:000431f0       _curl_getdate              004441f0 f   libcurl:parsedate.obj
 0001:00043830       _Curl_strtok_r             00444830 f   libcurl:strtok.obj
 0001:000438b0       _curlx_strtoofft           004448b0 f   libcurl:strtoofft.obj
 0001:00043970       _Curl_memrchr              00444970 f   libcurl:curl_memrchr.obj
 0001:000439a0       _Curl_inet_pton            004449a0 f   libcurl:inet_pton.obj
 0001:00043c80       _Curl_freeaddrinfo         00444c80 f   libcurl:curl_addrinfo.obj
 0001:00043cc0       _Curl_getaddrinfo_ex       00444cc0 f   libcurl:curl_addrinfo.obj
 0001:00043e60       _Curl_he2ai                00444e60 f   libcurl:curl_addrinfo.obj
 0001:00043ff0       _Curl_ip2addr              00444ff0 f   libcurl:curl_addrinfo.obj
 0001:000440c0       _Curl_str2addr             004450c0 f   libcurl:curl_addrinfo.obj
 0001:00044150       _Curl_addrinfo_callback    00445150 f   libcurl:hostasyn.obj
 0001:00044200       _Curl_getaddrinfo          00445200 f   libcurl:hostasyn.obj
 0001:00044210       _Curl_thread_create        00445210 f   libcurl:curl_threads.obj
 0001:00044240       _Curl_thread_destroy       00445240 f   libcurl:curl_threads.obj
 0001:00044250       _Curl_thread_join          00445250 f   libcurl:curl_threads.obj
 0001:00044280       _Curl_rand                 00445280 f   libcurl:rand.obj
 0001:000442e0       _Curl_rand_hex             004452e0 f   libcurl:rand.obj
 0001:00044430       _Curl_inet_ntop            00445430 f   libcurl:inet_ntop.obj
 0001:00044760       _Curl_doh                  00445760 f   libcurl:doh.obj
 0001:000448f0       _Curl_doh_is_resolved      004458f0 f   libcurl:doh.obj
 0001:0004a610       _curl_getenv               0044b610 f   libcurl:getenv.obj
 0001:0004a620       _Curl_isunreserved         0044b620 f   libcurl:escape.obj
 0001:0004a6b0       _Curl_urldecode            0044b6b0 f   libcurl:escape.obj
 0001:0004a7b0       _curl_easy_unescape        0044b7b0 f   libcurl:escape.obj
 0001:0004a820       _Curl_MD5_final            0044b820 f   libcurl:md5.obj
 0001:0004a850       _Curl_MD5_init             0044b850 f   libcurl:md5.obj
 0001:0004a8a0       _Curl_HMAC_update          0044b8a0 f   libcurl:hmac.obj
 0001:0004a8a0       _Curl_MD5_update           0044b8a0 f   libcurl:md5.obj
 0001:0004a8c0       _Curl_md5it                0044b8c0 f   libcurl:md5.obj
 0001:0004a930       _Curl_base64_decode        0044b930 f   libcurl:base64.obj
 0001:0004aa30       _Curl_base64_encode        0044ba30 f   libcurl:base64.obj
 0001:0004aa60       _Curl_base64url_encode     0044ba60 f   libcurl:base64.obj
 0001:0004cf70       _Curl_pop3_write           0044df70 f   libcurl:pop3.obj
 0001:0004e1f0       _Curl_smtp_escape_eob      0044f1f0 f   libcurl:smtp.obj
 0001:00050050       _Curl_GetFTPResponse       00451050 f   libcurl:ftp.obj
 0001:00055470       _Curl_rtsp_parseheader     00456470 f   libcurl:rtsp.obj
 0001:000556b0       _rtsp_connisdead           004566b0 f   libcurl:rtsp.obj
 0001:0005ac10       _Curl_concat_url           0045bc10 f   libcurl:urlapi.obj
 0001:0005add0       _Curl_is_absolute_url      0045bdd0 f   libcurl:urlapi.obj
 0001:0005afe0       _Curl_strcpy_url           0045bfe0 f   libcurl:urlapi.obj
 0001:0005b090       _Curl_strlen_url           0045c090 f   libcurl:urlapi.obj
 0001:0005b110       _curl_url                  0045c110 f   libcurl:urlapi.obj
 0001:0005b120       _curl_url_cleanup          0045c120 f   libcurl:urlapi.obj
 0001:0005b140       _curl_url_dup              0045c140 f   libcurl:urlapi.obj
 0001:0005b260       _curl_url_get              0045c260 f   libcurl:urlapi.obj
 0001:0005b6d0       _curl_url_set              0045c6d0 f   libcurl:urlapi.obj
 0001:0005c520       _Curl_isalnum              0045d520 f   libcurl:curl_ctype.obj
 0001:0005c540       _Curl_isalpha              0045d540 f   libcurl:curl_ctype.obj
 0001:0005c560       _Curl_iscntrl              0045d560 f   libcurl:curl_ctype.obj
 0001:0005c580       _Curl_isdigit              0045d580 f   libcurl:curl_ctype.obj
 0001:0005c5a0       _Curl_isgraph              0045d5a0 f   libcurl:curl_ctype.obj
 0001:0005c5c0       _Curl_islower              0045d5c0 f   libcurl:curl_ctype.obj
 0001:0005c5e0       _Curl_isprint              0045d5e0 f   libcurl:curl_ctype.obj
 0001:0005c600       _Curl_isspace              0045d600 f   libcurl:curl_ctype.obj
 0001:0005c620       _Curl_isupper              0045d620 f   libcurl:curl_ctype.obj
 0001:0005c640       _Curl_isxdigit             0045d640 f   libcurl:curl_ctype.obj
 0001:0005c660       _Curl_parsenetrc           0045d660 f   libcurl:netrc.obj
 0001:0005cb40       _Curl_http_ntlm_cleanup    0045db40 f   libcurl:http_ntlm.obj
 0001:0005cb70       _Curl_input_ntlm           0045db70 f   libcurl:http_ntlm.obj
 0001:0005cc60       _Curl_output_ntlm          0045dc60 f   libcurl:http_ntlm.obj
 0001:0005ce50       _Curl_SOCKS4               0045de50 f   libcurl:socks.obj
 0001:0005d3b0       _Curl_SOCKS5               0045e3b0 f   libcurl:socks.obj
 0001:0005dd40       _Curl_blockread_all        0045ed40 f   libcurl:socks.obj
 0001:0005de00       _Curl_strerror             0045ee00 f   libcurl:strerror.obj
 0001:0005df10       _curl_easy_strerror        0045ef10 f   libcurl:strerror.obj
 0001:0005e690       _Curl_ipv6_scope           0045f690 f   libcurl:if2ip.obj
 0001:0005e730       _curlx_nonblock            0045f730 f   libcurl:nonblock.obj
 0001:0005e760       _Curl_load_library         0045f760 f   libcurl:system_win32.obj
 0001:0005e8b0       _Curl_verify_windows_version 0045f8b0 f   libcurl:system_win32.obj
 0001:0005ea10       _Curl_auth_create_digest_http_message 0045fa10 f   libcurl:digest.obj
 0001:0005ea80       _Curl_auth_create_digest_md5_message 0045fa80 f   libcurl:digest.obj
 0001:0005efd0       _Curl_auth_decode_digest_http_message 0045ffd0 f   libcurl:digest.obj
 0001:0005f480       _Curl_auth_digest_cleanup  00460480 f   libcurl:digest.obj
 0001:0005f510       _Curl_auth_digest_get_pair 00460510 f   libcurl:digest.obj
 0001:0005fd80       _Curl_chunked_strerror     00460d80 f   libcurl:http_chunks.obj
 0001:0005fde0       _Curl_httpchunk_init       00460de0 f   libcurl:http_chunks.obj
 0001:0005fe00       _Curl_httpchunk_read       00460e00 f   libcurl:http_chunks.obj
 0001:00060200       _Curl_getformdata          00461200 f   libcurl:formdata.obj
 0001:00060520       _Curl_auth_create_ntlm_type1_message 00461520 f   libcurl:ntlm.obj
 0001:000605d0       _Curl_auth_create_ntlm_type3_message 004615d0 f   libcurl:ntlm.obj
 0001:00060b40       _Curl_auth_decode_ntlm_type2_message 00461b40 f   libcurl:ntlm.obj
 0001:00060c80       _Curl_auth_ntlm_cleanup    00461c80 f   libcurl:ntlm.obj
 0001:00060d80       _Curl_fileinfo_alloc       00461d80 f   libcurl:fileinfo.obj
 0001:00060d90       _Curl_fileinfo_cleanup     00461d90 f   libcurl:fileinfo.obj
 0001:00060dc0       _Curl_cert_hostcheck       00461dc0 f   libcurl:hostcheck.obj
 0001:00060ff0       _Curl_pp_disconnect        00461ff0 f   libcurl:pingpong.obj
 0001:00061010       _Curl_pp_flushsend         00462010 f   libcurl:pingpong.obj
 0001:00061090       _Curl_pp_getsock           00462090 f   libcurl:pingpong.obj
 0001:000610d0       _Curl_pp_init              004620d0 f   libcurl:pingpong.obj
 0001:00061110       _Curl_pp_moredata          00462110 f   libcurl:pingpong.obj
 0001:00061140       _Curl_pp_readresp          00462140 f   libcurl:pingpong.obj
 0001:00061400       _Curl_pp_sendf             00462400 f   libcurl:pingpong.obj
 0001:00061420       _Curl_pp_state_timeout     00462420 f   libcurl:pingpong.obj
 0001:000614e0       _Curl_pp_statemach         004624e0 f   libcurl:pingpong.obj
 0001:00061660       _Curl_pp_vsendf            00462660 f   libcurl:pingpong.obj
 0001:00061790       _Curl_sasl_can_authenticate 00462790 f   libcurl:curl_sasl.obj
 0001:000617c0       _Curl_sasl_cleanup         004627c0 f   libcurl:curl_sasl.obj
 0001:000617e0       _Curl_sasl_continue        004627e0 f   libcurl:curl_sasl.obj
 0001:00061c70       _Curl_sasl_decode_mech     00462c70 f   libcurl:curl_sasl.obj
 0001:00061d70       _Curl_sasl_init            00462d70 f   libcurl:curl_sasl.obj
 0001:00061db0       _Curl_sasl_parse_url_auth_option 00462db0 f   libcurl:curl_sasl.obj
 0001:00061e30       _Curl_sasl_start           00462e30 f   libcurl:curl_sasl.obj
 0001:00062200       _Curl_gethostname          00463200 f   libcurl:curl_gethostname.obj
 0001:00062240       _Curl_ftp_parselist        00463240 f   libcurl:ftplistparser.obj
 0001:00062df0       _Curl_ftp_parselist_data_alloc 00463df0 f   libcurl:ftplistparser.obj
 0001:00062e00       _Curl_ftp_parselist_data_free 00463e00 f   libcurl:ftplistparser.obj
 0001:00063080       _Curl_range                00464080 f   libcurl:curl_range.obj
 0001:000631d0       _Curl_hmac_md5             004641d0 f   libcurl:curl_ntlm_core.obj
 0001:00063210       _Curl_ntlm_core_lm_resp    00464210 f   libcurl:curl_ntlm_core.obj
 0001:000632b0       _Curl_ntlm_core_mk_lm_hash 004642b0 f   libcurl:curl_ntlm_core.obj
 0001:00063380       _Curl_ntlm_core_mk_lmv2_resp 00464380 f   libcurl:curl_ntlm_core.obj
 0001:00063400       _Curl_ntlm_core_mk_nt_hash 00464400 f   libcurl:curl_ntlm_core.obj
 0001:000634d0       _Curl_ntlm_core_mk_ntlmv2_hash 004644d0 f   libcurl:curl_ntlm_core.obj
 0001:00063560       _Curl_ntlm_core_mk_ntlmv2_resp 00464560 f   libcurl:curl_ntlm_core.obj
 0001:000637c0       _Curl_read16_be            004647c0 f   libcurl:curl_endian.obj
 0001:000637e0       _Curl_read16_le            004647e0 f   libcurl:curl_endian.obj
 0001:00063800       _Curl_read32_le            00464800 f   libcurl:curl_endian.obj
 0001:00063830       _Curl_write32_le           00464830 f   libcurl:curl_endian.obj
 0001:00063860       _Curl_write64_le           00464860 f   libcurl:curl_endian.obj
 0001:00063890       _Curl_dedotdotify          00464890 f   libcurl:dotdot.obj
 0001:00063b10       _Curl_auth_build_spn       00464b10 f   libcurl:vauth.obj
 0001:00063b70       _Curl_sha256it             00464b70 f   libcurl:sha256.obj
 0001:00063be0       _Curl_auth_create_external_message 00464be0 f   libcurl:cleartext.obj
 0001:00063bf0       _Curl_auth_create_login_message 00464bf0 f   libcurl:cleartext.obj
 0001:00063c60       _Curl_auth_create_plain_message 00464c60 f   libcurl:cleartext.obj
 0001:00063d30       _Curl_auth_create_cram_md5_message 00464d30 f   libcurl:cram.obj
 0001:00063e80       _Curl_auth_decode_cram_md5_message 00464e80 f   libcurl:cram.obj
 0001:00063ed0       _Curl_auth_create_oauth_bearer_message 00464ed0 f   libcurl:oauth2.obj
 0001:00063f70       _Curl_fnmatch              00464f70 f   libcurl:curl_fnmatch.obj
 0001:00064880       _Curl_HMAC_final           00465880 f   libcurl:hmac.obj
 0001:000648d0       _Curl_HMAC_init            004658d0 f   libcurl:hmac.obj
 0001:000649e0       ?GetVoidValue@NullNameValuePairs@CryptoPP@@UBE_NPBDABVtype_info@@PAX@Z 004659e0 f i cryptlib:cryptlib.obj
 0001:000649f0       ??_ENullNameValuePairs@CryptoPP@@UAEPAXI@Z 004659f0 f i cryptlib:cryptlib.obj
 0001:000649f0       ??_GNullNameValuePairs@CryptoPP@@UAEPAXI@Z 004659f0 f i cryptlib:cryptlib.obj
 0001:00064a20       ??$BitPrecision@I@CryptoPP@@YAIABI@Z 00465a20 f i cryptlib:cryptlib.obj
 0001:00064a60       ??$IntToString@H@CryptoPP@@YA?AV?$basic_string@DU?$char_traits@D@std@@V?$allocator@D@2@@std@@HI@Z 00465a60 f i cryptlib:cryptlib.obj
 0001:00064df0       ??$IntToString@I@CryptoPP@@YA?AV?$basic_string@DU?$char_traits@D@std@@V?$allocator@D@2@@std@@II@Z 00465df0 f i cryptlib:cryptlib.obj
 0001:000650d0       ??0Algorithm@CryptoPP@@QAE@_N@Z 004660d0 f   cryptlib:cryptlib.obj
 0001:000651b0       ??0InvalidCiphertext@CryptoPP@@QAE@ABV01@@Z 004661b0 f i cryptlib:cryptlib.obj
 0001:00065240       ??0InvalidCiphertext@CryptoPP@@QAE@ABV?$basic_string@DU?$char_traits@D@std@@V?$allocator@D@2@@std@@@Z 00466240 f i cryptlib:cryptlib.obj
 0001:000652b0       ??0InvalidDataFormat@CryptoPP@@QAE@ABV01@@Z 004662b0 f i cryptlib:cryptlib.obj
 0001:00065340       ??0InvalidKeyLength@CryptoPP@@QAE@ABV01@@Z 00466340 f i cryptlib:cryptlib.obj
 0001:000653d0       ??0InvalidKeyLength@CryptoPP@@QAE@ABV?$basic_string@DU?$char_traits@D@std@@V?$allocator@D@2@@std@@I@Z 004663d0 f i cryptlib:cryptlib.obj
 0001:00065620       ??0NoChannelSupport@BufferedTransformation@CryptoPP@@QAE@ABU012@@Z 00466620 f i cryptlib:cryptlib.obj
 0001:000656b0       ??0NoChannelSupport@BufferedTransformation@CryptoPP@@QAE@ABV?$basic_string@DU?$char_traits@D@std@@V?$allocator@D@2@@std@@@Z 004666b0 f i cryptlib:cryptlib.obj
 0001:000657d0       ??0SelfTestFailure@CryptoPP@@QAE@ABV01@@Z 004667d0 f i cryptlib:cryptlib.obj
 0001:00065860       ??0SelfTestFailure@CryptoPP@@QAE@ABV?$basic_string@DU?$char_traits@D@std@@V?$allocator@D@2@@std@@@Z 00466860 f i cryptlib:cryptlib.obj
 0001:000658d0       ??1ArraySink@CryptoPP@@UAE@XZ 004668d0 f i cryptlib:cryptlib.obj
 0001:000658de       ??_EArraySink@CryptoPP@@W3AEPAXI@Z 004668de f i cryptlib:cryptlib.obj
 0001:000658e6       ??_EBitBucket@CryptoPP@@W3AEPAXI@Z 004668e6 f i cryptlib:cryptlib.obj
 0001:000658f0       ??_GArraySink@CryptoPP@@UAEPAXI@Z 004668f0 f i cryptlib:cryptlib.obj
 0001:000658f0       ??_EArraySink@CryptoPP@@UAEPAXI@Z 004668f0 f i cryptlib:cryptlib.obj
 0001:00065920       ??_GBitBucket@CryptoPP@@UAEPAXI@Z 00466920 f i cryptlib:cryptlib.obj
 0001:00065920       ??_EBitBucket@CryptoPP@@UAEPAXI@Z 00466920 f i cryptlib:cryptlib.obj
 0001:00065940       ??_EInvalidCiphertext@CryptoPP@@UAEPAXI@Z 00466940 f i cryptlib:cryptlib.obj
 0001:00065940       ??_GBERDecodeErr@CryptoPP@@UAEPAXI@Z 00466940 f i cryptlib:integer.obj
 0001:00065940       ??_EInvalidKeyLength@CryptoPP@@UAEPAXI@Z 00466940 f i cryptlib:cryptlib.obj
 0001:00065940       ??_EBERDecodeErr@CryptoPP@@UAEPAXI@Z 00466940 f i cryptlib:integer.obj
 0001:00065940       ??_GInvalidDataFormat@CryptoPP@@UAEPAXI@Z 00466940 f i cryptlib:cryptlib.obj
 0001:00065940       ??_GBlockingInputOnly@BufferedTransformation@CryptoPP@@UAEPAXI@Z 00466940 f i cryptlib:filters.obj
 0001:00065940       ??_GInvalidKeyLength@CryptoPP@@UAEPAXI@Z 00466940 f i cryptlib:cryptlib.obj
 0001:00065940       ??_EInvalidDataFormat@CryptoPP@@UAEPAXI@Z 00466940 f i cryptlib:cryptlib.obj
 0001:00065940       ??_GSelfTestFailure@CryptoPP@@UAEPAXI@Z 00466940 f i cryptlib:cryptlib.obj
 0001:00065940       ??_GHashInputTooLong@CryptoPP@@UAEPAXI@Z 00466940 f i cryptlib:iterhash.obj
 0001:00065940       ??_EHashInputTooLong@CryptoPP@@UAEPAXI@Z 00466940 f i cryptlib:iterhash.obj
 0001:00065940       ??_GInvalidCiphertext@CryptoPP@@UAEPAXI@Z 00466940 f i cryptlib:cryptlib.obj
 0001:00065940       ??_GNoChannelSupport@BufferedTransformation@CryptoPP@@UAEPAXI@Z 00466940 f i cryptlib:cryptlib.obj
 0001:00065940       ??_ESelfTestFailure@CryptoPP@@UAEPAXI@Z 00466940 f i cryptlib:cryptlib.obj
 0001:00065940       ??_EBlockingInputOnly@BufferedTransformation@CryptoPP@@UAEPAXI@Z 00466940 f i cryptlib:filters.obj
 0001:00065940       ??_ENoChannelSupport@BufferedTransformation@CryptoPP@@UAEPAXI@Z 00466940 f i cryptlib:cryptlib.obj
 0001:00065960       ?AdvancedProcessBlocks@BlockTransformation@CryptoPP@@UBEIPBE0PAEII@Z 00466960 f   cryptlib:cryptlib.obj
 0001:00065a70       ?AlgorithmName@BitBucket@CryptoPP@@UBE?AV?$basic_string@DU?$char_traits@D@std@@V?$allocator@D@2@@std@@XZ 00466a70 f i cryptlib:cryptlib.obj
 0001:00065a90       ?AnyMessages@BufferedTransformation@CryptoPP@@UBE_NXZ 00466a90 f   cryptlib:cryptlib.obj
 0001:00065ac0       ?AnyRetrievable@BufferedTransformation@CryptoPP@@UBE_NXZ 00466ac0 f   cryptlib:cryptlib.obj
 0001:00065b00       ?Attach@BufferedTransformation@CryptoPP@@UAEXPAV12@@Z 00466b00 f   cryptlib:cryptlib.obj
 0001:00065b50       ?ChannelCreatePutSpace@BufferedTransformation@CryptoPP@@UAEPAEABV?$basic_string@DU?$char_traits@D@std@@V?$allocator@D@2@@std@@AAI@Z 00466b50 f   cryptlib:cryptlib.obj
 0001:00065bd0       ?ChannelFlush@BufferedTransformation@CryptoPP@@UAE_NABV?$basic_string@DU?$char_traits@D@std@@V?$allocator@D@2@@std@@_NH1@Z 00466bd0 f   cryptlib:cryptlib.obj
 0001:00065c60       ?ChannelMessageSeriesEnd@BufferedTransformation@CryptoPP@@UAE_NABV?$basic_string@DU?$char_traits@D@std@@V?$allocator@D@2@@std@@H_N@Z 00466c60 f   cryptlib:cryptlib.obj
 0001:00065ce0       ?ChannelPut2@BufferedTransformation@CryptoPP@@UAEIABV?$basic_string@DU?$char_traits@D@std@@V?$allocator@D@2@@std@@PBEIH_N@Z 00466ce0 f   cryptlib:cryptlib.obj
 0001:00065d70       ?ChannelPutModifiable2@BufferedTransformation@CryptoPP@@UAEIABV?$basic_string@DU?$char_traits@D@std@@V?$allocator@D@2@@std@@PAEIH_N@Z 00466d70 f   cryptlib:cryptlib.obj
 0001:00065da0       ?CopyMessagesTo@BufferedTransformation@CryptoPP@@QBEIAAV12@IABV?$basic_string@DU?$char_traits@D@std@@V?$allocator@D@2@@std@@@Z 00466da0 f   cryptlib:cryptlib.obj
 0001:00065de0       ?Flush@BufferedTransformation@CryptoPP@@UAE_N_NH0@Z 00466de0 f   cryptlib:cryptlib.obj
 0001:00065e00       ?Get@BufferedTransformation@CryptoPP@@UAEIAAE@Z 00466e00 f   cryptlib:cryptlib.obj
 0001:00065e30       ?Get@BufferedTransformation@CryptoPP@@UAEIPAEI@Z 00466e30 f   cryptlib:cryptlib.obj
 0001:00065ef0       ?GetIVAndThrowIfInvalid@SimpleKeyingInterface@CryptoPP@@IAEPBEABVNameValuePairs@2@AAI@Z 00466ef0 f   cryptlib:cryptlib.obj
 0001:000660a0       ?GetMaxWaitObjectCount@BufferedTransformation@CryptoPP@@UBEIXZ 004670a0 f   cryptlib:cryptlib.obj
 0001:000660c0       ?GetNextIV@SimpleKeyingInterface@CryptoPP@@UAEXAAVRandomNumberGenerator@2@PAE@Z 004670c0 f   cryptlib:cryptlib.obj
 0001:000660e0       ?GetNextMessage@BufferedTransformation@CryptoPP@@UAE_NXZ 004670e0 f   cryptlib:cryptlib.obj
 0001:00066110       ?GetWaitObjects@BufferedTransformation@CryptoPP@@UAEXAAVWaitObjectContainer@2@ABVCallStack@2@@Z 00467110 f   cryptlib:cryptlib.obj
 0001:00066130       ?GetWord16@BufferedTransformation@CryptoPP@@QAEIAAGW4ByteOrder@2@@Z 00467130 f   cryptlib:cryptlib.obj
 0001:000661a0       ?Initialize@BufferedTransformation@CryptoPP@@UAEXABVNameValuePairs@2@H@Z 004671a0 f   cryptlib:cryptlib.obj
 0001:000661b0       ?MaxRetrievable@BufferedTransformation@CryptoPP@@UBE_KXZ 004671b0 f   cryptlib:cryptlib.obj
 0001:00066210       ?MessageSeriesEnd@BufferedTransformation@CryptoPP@@UAE_NH_N@Z 00467210 f   cryptlib:cryptlib.obj
 0001:00066220       ?NumberOfMessages@BufferedTransformation@CryptoPP@@UBEIXZ 00467220 f   cryptlib:cryptlib.obj
 0001:00066280       ?Peek@BufferedTransformation@CryptoPP@@UBEIAAE@Z 00467280 f   cryptlib:cryptlib.obj
 0001:000662b0       ?Peek@BufferedTransformation@CryptoPP@@UBEIPAEI@Z 004672b0 f   cryptlib:cryptlib.obj
 0001:00066370       ?ProcessLastBlock@StreamTransformation@CryptoPP@@UAEIPAEIPBEI@Z 00467370 f   cryptlib:cryptlib.obj
 0001:00066430       ?Put2@BitBucket@CryptoPP@@UAEIPBEIH_N@Z 00467430 f i cryptlib:cryptlib.obj
 0001:00066440       ?SetKey@SimpleKeyingInterface@CryptoPP@@UAEXPBEIABVNameValuePairs@2@@Z 00467440 f   cryptlib:cryptlib.obj
 0001:000664e0       ?SetRetrievalChannel@BufferedTransformation@CryptoPP@@UAEXABV?$basic_string@DU?$char_traits@D@std@@V?$allocator@D@2@@std@@@Z 004674e0 f   cryptlib:cryptlib.obj
 0001:00066510       ?Skip@BufferedTransformation@CryptoPP@@UAE_K_K@Z 00467510 f   cryptlib:cryptlib.obj
 0001:00066580       ?SkipAll@BufferedTransformation@CryptoPP@@UAEXXZ 00467580 f   cryptlib:cryptlib.obj
 0001:000665d0       ?SkipMessages@BufferedTransformation@CryptoPP@@UAEII@Z 004675d0 f   cryptlib:cryptlib.obj
 0001:00066620       ?TheBitBucket@CryptoPP@@YAAAVBufferedTransformation@1@XZ 00467620 f   cryptlib:cryptlib.obj
 0001:000666b0       ?ThrowIfInvalidIV@SimpleKeyingInterface@CryptoPP@@IAEXPBE@Z 004676b0 f   cryptlib:cryptlib.obj
 0001:00066750       ?ThrowIfInvalidIVLength@SimpleKeyingInterface@CryptoPP@@IAEIH@Z 00467750 f   cryptlib:cryptlib.obj
 0001:00066950       ?ThrowIfInvalidTruncatedSize@HashTransformation@CryptoPP@@IBEXI@Z 00467950 f   cryptlib:cryptlib.obj
 0001:00066a50       ?TotalBytesRetrievable@BufferedTransformation@CryptoPP@@UBE_KXZ 00467a50 f   cryptlib:cryptlib.obj
 0001:00066a80       ?TransferAllTo2@BufferedTransformation@CryptoPP@@QAEIAAV12@ABV?$basic_string@DU?$char_traits@D@std@@V?$allocator@D@2@@std@@_N@Z 00467a80 f   cryptlib:cryptlib.obj
 0001:00066c00       ?TransferMessagesTo2@BufferedTransformation@CryptoPP@@QAEIAAV12@AAIABV?$basic_string@DU?$char_traits@D@std@@V?$allocator@D@2@@std@@_N@Z 00467c00 f   cryptlib:cryptlib.obj
 0001:00066d00       ?TruncatedVerify@HashTransformation@CryptoPP@@UAE_NPBEI@Z 00467d00 f   cryptlib:cryptlib.obj
 0001:00066e70       ??$MakeParameters@W4BlockPaddingScheme@BlockPaddingSchemeDef@CryptoPP@@@CryptoPP@@YA?AVAlgorithmParameters@0@PBDABW4BlockPaddingScheme@BlockPaddingSchemeDef@0@_N@Z 00467e70 f i cryptlib:filters.obj
 0001:00066f60       ??$RoundDownToMultipleOf@II@CryptoPP@@YAIABI0@Z 00467f60 f i cryptlib:filters.obj
 0001:00066fa0       ??0BlockingInputOnly@BufferedTransformation@CryptoPP@@QAE@ABU012@@Z 00467fa0 f i cryptlib:filters.obj
 0001:00067030       ??0BlockingInputOnly@BufferedTransformation@CryptoPP@@QAE@ABV?$basic_string@DU?$char_traits@D@std@@V?$allocator@D@2@@std@@@Z 00468030 f i cryptlib:filters.obj
 0001:00067150       ??0Filter@CryptoPP@@QAE@PAVBufferedTransformation@1@@Z 00468150 f   cryptlib:filters.obj
 0001:00067180       ??0FilterWithBufferedInput@CryptoPP@@QAE@PAVBufferedTransformation@1@@Z 00468180 f   cryptlib:filters.obj
 0001:00067220       ??0InvalidDataFormat@CryptoPP@@QAE@ABV?$basic_string@DU?$char_traits@D@std@@V?$allocator@D@2@@std@@@Z 00468220 f i cryptlib:filters.obj
 0001:00067290       ??0ProxyFilter@CryptoPP@@QAE@PAVBufferedTransformation@1@II0@Z 00468290 f   cryptlib:filters.obj
 0001:00067410       ??0StreamTransformationFilter@CryptoPP@@QAE@AAVStreamTransformation@1@PAVBufferedTransformation@1@W4BlockPaddingScheme@BlockPaddingSchemeDef@1@@Z 00468410 f   cryptlib:filters.obj
 0001:00067580       ??1FilterPutSpaceHelper@CryptoPP@@UAE@XZ 00468580 f i cryptlib:filters.obj
 0001:000675e0       ??1StreamTransformationFilter@CryptoPP@@UAE@XZ 004685e0 f i cryptlib:filters.obj
 0001:00067693       ??_EOutputProxy@CryptoPP@@W3AEPAXI@Z 00468693 f i cryptlib:filters.obj
 0001:0006769b       ??_EStreamTransformationFilter@CryptoPP@@W3AEPAXI@Z 0046869b f i cryptlib:filters.obj
 0001:000676a3       ??_EStreamTransformationFilter@CryptoPP@@WEI@AEPAXI@Z 004686a3 f i cryptlib:filters.obj
 0001:000676b0       ??_E?$AlgorithmParametersTemplate@PBE@CryptoPP@@UAEPAXI@Z 004686b0 f i cryptlib:base64.obj
 0001:000676b0       ??_E?$AlgorithmParametersTemplate@W4BlockPaddingScheme@BlockPaddingSchemeDef@CryptoPP@@@CryptoPP@@UAEPAXI@Z 004686b0 f i cryptlib:filters.obj
 0001:000676b0       ??_E?$AlgorithmParametersTemplate@E@CryptoPP@@UAEPAXI@Z 004686b0 f i cryptlib:base64.obj
 0001:000676b0       ??_G?$AlgorithmParametersTemplate@PBE@CryptoPP@@UAEPAXI@Z 004686b0 f i cryptlib:base64.obj
 0001:000676b0       ??_G?$AlgorithmParametersTemplate@W4BlockPaddingScheme@BlockPaddingSchemeDef@CryptoPP@@@CryptoPP@@UAEPAXI@Z 004686b0 f i cryptlib:filters.obj
 0001:000676b0       ??_G?$AlgorithmParametersTemplate@E@CryptoPP@@UAEPAXI@Z 004686b0 f i cryptlib:base64.obj
 0001:000676d0       ??_GCombinedNameValuePairs@CryptoPP@@UAEPAXI@Z 004686d0 f i cryptlib:filters.obj
 0001:000676d0       ??_ECombinedNameValuePairs@CryptoPP@@UAEPAXI@Z 004686d0 f i cryptlib:filters.obj
 0001:00067700       ??_EFilterPutSpaceHelper@CryptoPP@@UAEPAXI@Z 00468700 f i cryptlib:filters.obj
 0001:00067700       ??_GFilterPutSpaceHelper@CryptoPP@@UAEPAXI@Z 00468700 f i cryptlib:filters.obj
 0001:00067780       ??_EOutputProxy@CryptoPP@@UAEPAXI@Z 00468780 f i cryptlib:filters.obj
 0001:00067780       ??_GOutputProxy@CryptoPP@@UAEPAXI@Z 00468780 f i cryptlib:filters.obj
 0001:000677b0       ??_EStreamTransformationFilter@CryptoPP@@UAEPAXI@Z 004687b0 f i cryptlib:filters.obj
 0001:000677b0       ??_GStreamTransformationFilter@CryptoPP@@UAEPAXI@Z 004687b0 f i cryptlib:filters.obj
 0001:000677d0       ?AlgorithmName@StreamTransformationFilter@CryptoPP@@UBE?AV?$basic_string@DU?$char_traits@D@std@@V?$allocator@D@2@@std@@XZ 004687d0 f i cryptlib:filters.obj
 0001:000677f0       ?AssignValue@?$AlgorithmParametersTemplate@W4BlockPaddingScheme@BlockPaddingSchemeDef@CryptoPP@@@CryptoPP@@UBEXPBDABVtype_info@@PAX@Z 004687f0 f i cryptlib:filters.obj
 0001:00067850       ?AttachedTransformation@Filter@CryptoPP@@UBEPBVBufferedTransformation@2@XZ 00468850 f   cryptlib:filters.obj
 0001:00067850       ?AttachedTransformation@Filter@CryptoPP@@UAEPAVBufferedTransformation@2@XZ 00468850 f   cryptlib:filters.obj
 0001:00067880       ?ChannelCreatePutSpace@OutputProxy@CryptoPP@@UAEPAEABV?$basic_string@DU?$char_traits@D@std@@V?$allocator@D@2@@std@@AAI@Z 00468880 f i cryptlib:filters.obj
 0001:000678a0       ?ChannelFlush@OutputProxy@CryptoPP@@UAE_NABV?$basic_string@DU?$char_traits@D@std@@V?$allocator@D@2@@std@@_NH1@Z 004688a0 f i cryptlib:filters.obj
 0001:000678d0       ?ChannelMessageSeriesEnd@OutputProxy@CryptoPP@@UAE_NABV?$basic_string@DU?$char_traits@D@std@@V?$allocator@D@2@@std@@H_N@Z 004688d0 f i cryptlib:filters.obj
 0001:00067900       ?ChannelPut2@OutputProxy@CryptoPP@@UAEIABV?$basic_string@DU?$char_traits@D@std@@V?$allocator@D@2@@std@@PBEIH_N@Z 00468900 f i cryptlib:filters.obj
 0001:00067940       ?ChannelPutModifiable2@OutputProxy@CryptoPP@@UAEIABV?$basic_string@DU?$char_traits@D@std@@V?$allocator@D@2@@std@@PAEIH_N@Z 00468940 f i cryptlib:filters.obj
 0001:00067980       ?CopyRangeTo2@Filter@CryptoPP@@UBEIAAVBufferedTransformation@2@AA_K_KABV?$basic_string@DU?$char_traits@D@std@@V?$allocator@D@2@@std@@_N@Z 00468980 f   cryptlib:filters.obj
 0001:000679b0       ?CopyRangeTo2@StringStore@CryptoPP@@UBEIAAVBufferedTransformation@2@AA_K_KABV?$basic_string@DU?$char_traits@D@std@@V?$allocator@D@2@@std@@_N@Z 004689b0 f   cryptlib:filters.obj
 0001:00067a20       ?CreatePutSpace@ArraySink@CryptoPP@@UAEPAEAAI@Z 00468a20 f   cryptlib:filters.obj
 0001:00067a70       ?CreatePutSpace@OutputProxy@CryptoPP@@UAEPAEAAI@Z 00468a70 f i cryptlib:filters.obj
 0001:00067a90       ?Detach@Filter@CryptoPP@@UAEXPAVBufferedTransformation@2@@Z 00468a90 f   cryptlib:filters.obj
 0001:00067ab0       ?FirstPut@StreamTransformationFilter@CryptoPP@@MAEXPBE@Z 00468ab0 f   cryptlib:filters.obj
 0001:00067b00       ?Flush@Filter@CryptoPP@@UAE_N_NH0@Z 00468b00 f   cryptlib:filters.obj
 0001:00067b80       ?Flush@OutputProxy@CryptoPP@@UAE_N_NH0@Z 00468b80 f i cryptlib:filters.obj
 0001:00067ba0       ?ForceNextPut@FilterWithBufferedInput@CryptoPP@@QAEXXZ 00468ba0 f   cryptlib:filters.obj
 0001:00067c80       ?GetBlock@BlockQueue@FilterWithBufferedInput@CryptoPP@@QAEPAEXZ 00468c80 f   cryptlib:filters.obj
 0001:00067cc0       ?GetContigousBlocks@BlockQueue@FilterWithBufferedInput@CryptoPP@@QAEPAEAAI@Z 00468cc0 f   cryptlib:filters.obj
 0001:00067d20       ?GetNextMessage@Store@CryptoPP@@UAE_NXZ 00468d20 f   cryptlib:filters.obj
 0001:00067d40       ?HelpCreatePutSpace@FilterPutSpaceHelper@CryptoPP@@QAEPAEAAVBufferedTransformation@2@ABV?$basic_string@DU?$char_traits@D@std@@V?$allocator@D@2@@std@@I@Z 00468d40 f i cryptlib:filters.obj
 0001:00067d80       ?HelpCreatePutSpace@FilterPutSpaceHelper@CryptoPP@@QAEPAEAAVBufferedTransformation@2@ABV?$basic_string@DU?$char_traits@D@std@@V?$allocator@D@2@@std@@II@Z 00468d80 f i cryptlib:filters.obj
 0001:00067dc0       ?Initialize@Filter@CryptoPP@@UAEXABVNameValuePairs@2@H@Z 00468dc0 f   cryptlib:filters.obj
 0001:00067e10       ?Initialize@OutputProxy@CryptoPP@@UAEXABVNameValuePairs@2@H@Z 00468e10 f i cryptlib:filters.obj
 0001:00067e30       ?InitializeDerivedAndReturnNewSizes@StreamTransformationFilter@CryptoPP@@MAEXABVNameValuePairs@2@AAI11@Z 00468e30 f   cryptlib:filters.obj
 0001:00068020       ?IsolatedFlush@FilterWithBufferedInput@CryptoPP@@UAE_N_N0@Z 00469020 f   cryptlib:filters.obj
 0001:000680c0       ?IsolatedFlush@ProxyFilter@CryptoPP@@UAE_N_N0@Z 004690c0 f   cryptlib:filters.obj
 0001:000680e0       ?IsolatedInitialize@ArraySink@CryptoPP@@UAEXABVNameValuePairs@2@@Z 004690e0 f   cryptlib:filters.obj
 0001:00068190       ?IsolatedInitialize@FilterWithBufferedInput@CryptoPP@@UAEXABVNameValuePairs@2@@Z 00469190 f   cryptlib:filters.obj
 0001:00068250       ?LastPut@StreamTransformationFilter@CryptoPP@@MAEXPBEI@Z 00469250 f   cryptlib:filters.obj
 0001:00068770       ?MessageSeriesEnd@Filter@CryptoPP@@UAE_NH_N@Z 00469770 f   cryptlib:filters.obj
 0001:00068800       ?MessageSeriesEnd@OutputProxy@CryptoPP@@UAE_NH_N@Z 00469800 f i cryptlib:filters.obj
 0001:00068820       ?MoveInto@?$AlgorithmParametersTemplate@W4BlockPaddingScheme@BlockPaddingSchemeDef@CryptoPP@@@CryptoPP@@UBEXPAX@Z 00469820 f i cryptlib:filters.obj
 0001:000688c0       ?NewDefaultAttachment@Filter@CryptoPP@@MBEPAVBufferedTransformation@2@XZ 004698c0 f   cryptlib:filters.obj
 0001:00068930       ?NextPutMaybeModifiable@FilterWithBufferedInput@CryptoPP@@IAEXPAEI_N@Z 00469930 f i cryptlib:filters.obj
 0001:00068960       ?NextPutModifiable@ProxyFilter@CryptoPP@@UAEXPAEI@Z 00469960 f   cryptlib:filters.obj
 0001:00068980       ?NextPutModifiable@StreamTransformationFilter@CryptoPP@@MAEXPAEI@Z 00469980 f   cryptlib:filters.obj
 0001:000689c0       ?NextPutMultiple@FilterWithBufferedInput@CryptoPP@@MAEXPBEI@Z 004699c0 f   cryptlib:filters.obj
 0001:000689f0       ?NextPutMultiple@ProxyFilter@CryptoPP@@UAEXPBEI@Z 004699f0 f   cryptlib:filters.obj
 0001:00068a10       ?NextPutMultiple@StreamTransformationFilter@CryptoPP@@MAEXPBEI@Z 00469a10 f   cryptlib:filters.obj
 0001:00068b60       ?Output@Filter@CryptoPP@@IAEIHPBEIH_NABV?$basic_string@DU?$char_traits@D@std@@V?$allocator@D@2@@std@@@Z 00469b60 f   cryptlib:filters.obj
 0001:00068bb0       ?Put2@ArraySink@CryptoPP@@UAEIPBEIH_N@Z 00469bb0 f   cryptlib:filters.obj
 0001:00068c10       ?Put2@OutputProxy@CryptoPP@@UAEIPBEIH_N@Z 00469c10 f i cryptlib:filters.obj
 0001:00068c40       ?Put@BlockQueue@FilterWithBufferedInput@CryptoPP@@QAEXPBEI@Z 00469c40 f   cryptlib:filters.obj
 0001:00068cc0       ?PutMaybeModifiable@FilterWithBufferedInput@CryptoPP@@IAEIPAEIH_N1@Z 00469cc0 f   cryptlib:filters.obj
 0001:000690d0       ?PutModifiable2@OutputProxy@CryptoPP@@UAEIPAEIH_N@Z 0046a0d0 f i cryptlib:filters.obj
 0001:00069100       ?ResetQueue@BlockQueue@FilterWithBufferedInput@CryptoPP@@QAEXII@Z 0046a100 f   cryptlib:filters.obj
 0001:00069170       ?StoreInitialize@StringStore@CryptoPP@@EAEXABVNameValuePairs@2@@Z 0046a170 f   cryptlib:filters.obj
 0001:00069280       ?TransferTo2@Filter@CryptoPP@@UAEIAAVBufferedTransformation@2@AA_KABV?$basic_string@DU?$char_traits@D@std@@V?$allocator@D@2@@std@@_N@Z 0046a280 f   cryptlib:filters.obj
 0001:000692a0       ?TransferTo2@StringStore@CryptoPP@@UAEIAAVBufferedTransformation@2@AA_KABV?$basic_string@DU?$char_traits@D@std@@V?$allocator@D@2@@std@@_N@Z 0046a2a0 f   cryptlib:filters.obj
 0001:000692f0       ??$?RE@AlgorithmParameters@CryptoPP@@QAEAAV01@PBDABE@Z 0046a2f0 f i cryptlib:base64.obj
 0001:000693b0       ??$MakeParameters@PBE@CryptoPP@@YA?AVAlgorithmParameters@0@PBDABQBE_N@Z 0046a3b0 f i cryptlib:base64.obj
 0001:000694a0       ?AssignValue@?$AlgorithmParametersTemplate@E@CryptoPP@@UBEXPBDABVtype_info@@PAX@Z 0046a4a0 f i cryptlib:base64.obj
 0001:00069500       ?AssignValue@?$AlgorithmParametersTemplate@PBE@CryptoPP@@UBEXPBDABVtype_info@@PAX@Z 0046a500 f i cryptlib:base64.obj
 0001:00069560       ?GetDecodingLookupArray@Base64Decoder@CryptoPP@@CAPBHXZ 0046a560 f   cryptlib:base64.obj
 0001:00069570       ?IsolatedInitialize@Base64Decoder@CryptoPP@@UAEXABVNameValuePairs@2@@Z 0046a570 f   cryptlib:base64.obj
 0001:00069630       ?IsolatedInitialize@Base64Encoder@CryptoPP@@UAEXABVNameValuePairs@2@@Z 0046a630 f   cryptlib:base64.obj
 0001:00069840       ?MoveInto@?$AlgorithmParametersTemplate@E@CryptoPP@@UBEXPAX@Z 0046a840 f i cryptlib:base64.obj
 0001:000698e0       ?MoveInto@?$AlgorithmParametersTemplate@PBE@CryptoPP@@UBEXPAX@Z 0046a8e0 f i cryptlib:base64.obj
 0001:00069980       ?GetRequiredIntParameter@NameValuePairs@CryptoPP@@QBEXPBD0AAH@Z 0046a980 f i cryptlib:basecode.obj
 0001:00069a50       ?IsolatedInitialize@BaseN_Decoder@CryptoPP@@UAEXABVNameValuePairs@2@@Z 0046aa50 f   cryptlib:basecode.obj
 0001:00069bd0       ?IsolatedInitialize@BaseN_Encoder@CryptoPP@@UAEXABVNameValuePairs@2@@Z 0046abd0 f   cryptlib:basecode.obj
 0001:00069d80       ?IsolatedInitialize@Grouper@CryptoPP@@UAEXABVNameValuePairs@2@@Z 0046ad80 f   cryptlib:basecode.obj
 0001:00069f90       ?Put2@BaseN_Decoder@CryptoPP@@UAEIPBEIH_N@Z 0046af90 f   cryptlib:basecode.obj
 0001:0006a110       ?Put2@BaseN_Encoder@CryptoPP@@UAEIPBEIH_N@Z 0046b110 f   cryptlib:basecode.obj
 0001:0006a300       ?Put2@Grouper@CryptoPP@@UAEIPBEIH_N@Z 0046b300 f   cryptlib:basecode.obj
 0001:0006a460       ?AlignedAllocate@CryptoPP@@YAPAXI@Z 0046b460 f   cryptlib:misc.obj
 0001:0006a4c0       ?AlignedDeallocate@CryptoPP@@YAXPAX@Z 0046b4c0 f   cryptlib:misc.obj
 0001:0006a4d0       ?UnalignedAllocate@CryptoPP@@YAPAXI@Z 0046b4d0 f   cryptlib:misc.obj
 0001:0006a530       ?UnalignedDeallocate@CryptoPP@@YAXPAX@Z 0046b530 f   cryptlib:misc.obj
 0001:0006a530       ??3@YAXPAX@Z               0046b530 f   LIBCMT:delete_scalar.obj
 0001:0006a540       ?VerifyBufsEqual@CryptoPP@@YA_NPBE0I@Z 0046b540 f   cryptlib:misc.obj
 0001:0006a740       ?xorbuf@CryptoPP@@YAXPAEPBE1I@Z 0046b740 f   cryptlib:misc.obj
 0001:0006a9e0       ??0AlgorithmParameters@CryptoPP@@QAE@ABV01@@Z 0046b9e0 f   cryptlib:algparam.obj
 0001:0006aa60       ??0AlgorithmParameters@CryptoPP@@QAE@XZ 0046ba60 f   cryptlib:algparam.obj
 0001:0006aa80       ??_GAlgorithmParameters@CryptoPP@@UAEPAXI@Z 0046ba80 f i cryptlib:algparam.obj
 0001:0006aa80       ??_EAlgorithmParameters@CryptoPP@@UAEPAXI@Z 0046ba80 f i cryptlib:algparam.obj
 0001:0006aaf0       ?GetVoidValue@AlgorithmParameters@CryptoPP@@UBE_NPBDABVtype_info@@PAX@Z 0046baf0 f   cryptlib:algparam.obj
 0001:0006ab00       ?GetVoidValue@AlgorithmParametersBase@CryptoPP@@QBE_NPBDABVtype_info@@PAX@Z 0046bb00 f   cryptlib:algparam.obj
 0001:0006ac30       ?GetVoidValue@CombinedNameValuePairs@CryptoPP@@UBE_NPBDABVtype_info@@PAX@Z 0046bc30 f   cryptlib:algparam.obj
 0001:0006acc0       ?Baseline_Add@CryptoPP@@YIHIPAIPBI1@Z 0046bcc0 f   cryptlib:integer.obj
 0001:0006ad30       ?Baseline_Sub@CryptoPP@@YIHIPAIPBI1@Z 0046bd30 f   cryptlib:integer.obj
 0001:0006ada0       ??0BERDecodeErr@CryptoPP@@QAE@ABV01@@Z 0046bda0 f i cryptlib:integer.obj
 0001:0006ae30       ??0BERDecodeErr@CryptoPP@@QAE@XZ 0046be30 f i cryptlib:integer.obj
 0001:0006af00       ??0Integer@CryptoPP@@AAE@II@Z 0046bf00 f   cryptlib:integer.obj
 0001:0006afc0       ??0Integer@CryptoPP@@QAE@ABV01@@Z 0046bfc0 f   cryptlib:integer.obj
 0001:0006b0a0       ??0Integer@CryptoPP@@QAE@J@Z 0046c0a0 f   cryptlib:integer.obj
 0001:0006b110       ??0Integer@CryptoPP@@QAE@XZ 0046c110 f   cryptlib:integer.obj
 0001:0006b170       ??1Integer@CryptoPP@@UAE@XZ 0046c170 f i cryptlib:integer.obj
 0001:0006b1f0       ??4Integer@CryptoPP@@QAEAAV01@ABV01@@Z 0046c1f0 f   cryptlib:integer.obj
 0001:0006b270       ??GInteger@CryptoPP@@QBE?AV01@XZ 0046c270 f   cryptlib:integer.obj
 0001:0006b2c0       ??MCryptoPP@@YA_NABVInteger@0@0@Z 0046c2c0 f i cryptlib:integer.obj
 0001:0006b310       ??_EInteger@CryptoPP@@UAEPAXI@Z 0046c310 f i cryptlib:integer.obj
 0001:0006b310       ??_GInteger@CryptoPP@@UAEPAXI@Z 0046c310 f i cryptlib:integer.obj
 0001:0006b390       ?AnyRetrievable@ByteQueue@CryptoPP@@UBE_NXZ 0046c390 f i cryptlib:integer.obj
 0001:0006b3a0       ?AssignIntToInteger@CryptoPP@@YA_NABVtype_info@@PAXPBX@Z 0046c3a0 f   cryptlib:integer.obj
 0001:0006b460       ?BERDecode@Integer@CryptoPP@@UAEXAAVBufferedTransformation@2@@Z 0046c460 f   cryptlib:integer.obj
 0001:0006b510       ?BERDecodeError@CryptoPP@@YAXXZ 0046c510 f i cryptlib:integer.obj
 0001:0006b540       ?BEREncode@ASN1Object@CryptoPP@@UBEXAAVBufferedTransformation@2@@Z 0046c540 f i cryptlib:integer.obj
 0001:0006b550       ?Baseline_Multiply2@CryptoPP@@YAXPAIPBI1@Z 0046c550 f   cryptlib:integer.obj
 0001:0006b5b0       ?Baseline_Multiply4@CryptoPP@@YAXPAIPBI1@Z 0046c5b0 f   cryptlib:integer.obj
 0001:0006b720       ?Baseline_Multiply8@CryptoPP@@YAXPAIPBI1@Z 0046c720 f   cryptlib:integer.obj
 0001:0006bcb0       ?Baseline_MultiplyBottom2@CryptoPP@@YAXPAIPBI1@Z 0046ccb0 f   cryptlib:integer.obj
 0001:0006bce0       ?Baseline_MultiplyBottom4@CryptoPP@@YAXPAIPBI1@Z 0046cce0 f   cryptlib:integer.obj
 0001:0006bd90       ?Baseline_MultiplyBottom8@CryptoPP@@YAXPAIPBI1@Z 0046cd90 f   cryptlib:integer.obj
 0001:0006c040       ?Baseline_MultiplyTop2@CryptoPP@@YAXPAIPBI1I@Z 0046d040 f   cryptlib:integer.obj
 0001:0006c0a0       ?Baseline_MultiplyTop4@CryptoPP@@YAXPAIPBI1I@Z 0046d0a0 f   cryptlib:integer.obj
 0001:0006c200       ?Baseline_MultiplyTop8@CryptoPP@@YAXPAIPBI1I@Z 0046d200 f   cryptlib:integer.obj
 0001:0006c620       ?Baseline_Square2@CryptoPP@@YAXPAIPBI@Z 0046d620 f   cryptlib:integer.obj
 0001:0006c690       ?Baseline_Square4@CryptoPP@@YAXPAIPBI@Z 0046d690 f   cryptlib:integer.obj
 0001:0006c840       ?Baseline_Square8@CryptoPP@@YAXPAIPBI@Z 0046d840 f   cryptlib:integer.obj
 0001:0006cdc0       ?ByteCount@Integer@CryptoPP@@QBEIXZ 0046ddc0 f   cryptlib:integer.obj
 0001:0006ce30       ?CleanNew@?$SecBlock@IV?$AllocatorWithCleanup@I$00@CryptoPP@@@CryptoPP@@QAEXI@Z 0046de30 f i cryptlib:integer.obj
 0001:0006cee0       ?DEREncode@Integer@CryptoPP@@UBEXAAVBufferedTransformation@2@@Z 0046dee0 f   cryptlib:integer.obj
 0001:0006d020       ?Decode@Integer@CryptoPP@@QAEXAAVBufferedTransformation@2@IW4Signedness@12@@Z 0046e020 f   cryptlib:integer.obj
 0001:0006d210       ?Encode@Integer@CryptoPP@@QBEXAAVBufferedTransformation@2@IW4Signedness@12@@Z 0046e210 f   cryptlib:integer.obj
 0001:0006d350       ?MaxRetrievable@ByteQueue@CryptoPP@@UBE_KXZ 0046e350 f i cryptlib:integer.obj
 0001:0006d360       ?New@?$SecBlock@IV?$AllocatorWithCleanup@I$00@CryptoPP@@@CryptoPP@@QAEXI@Z 0046e360 f i cryptlib:integer.obj
 0001:0006d3b0       ?Plus@Integer@CryptoPP@@QBE?AV12@ABV12@@Z 0046e3b0 f   cryptlib:integer.obj
 0001:0006d460       ?PositiveAdd@CryptoPP@@YAXAAVInteger@1@ABV21@1@Z 0046e460 f   cryptlib:integer.obj
 0001:0006d5b0       ?PositiveCompare@Integer@CryptoPP@@ABEHABV12@@Z 0046e5b0 f   cryptlib:integer.obj
 0001:0006d620       ?PositiveSubtract@CryptoPP@@YAXAAVInteger@1@ABV21@1@Z 0046e620 f   cryptlib:integer.obj
 0001:0006d790       ?Power2@Integer@CryptoPP@@SA?AV12@I@Z 0046e790 f   cryptlib:integer.obj
 0001:0006d8b0       ?SSE2_Add@CryptoPP@@YIHIPAIPBI1@Z 0046e8b0 f   cryptlib:integer.obj
 0001:0006d950       ?SSE2_Multiply16@CryptoPP@@YAXPAIPBI1@Z 0046e950 f   cryptlib:integer.obj
 0001:0006e410       ?SSE2_Multiply32@CryptoPP@@YAXPAIPBI1@Z 0046f410 f   cryptlib:integer.obj
 0001:0006fa40       ?SSE2_Multiply4@CryptoPP@@YAXPAIPBI1@Z 00470a40 f   cryptlib:integer.obj
 0001:0006fcb0       ?SSE2_Multiply8@CryptoPP@@YAXPAIPBI1@Z 00470cb0 f   cryptlib:integer.obj
 0001:000701f0       ?SSE2_MultiplyBottom16@CryptoPP@@YAXPAIPBI1@Z 004711f0 f   cryptlib:integer.obj
 0001:000708e0       ?SSE2_MultiplyBottom32@CryptoPP@@YAXPAIPBI1@Z 004718e0 f   cryptlib:integer.obj
 0001:00071720       ?SSE2_MultiplyBottom4@CryptoPP@@YAXPAIPBI1@Z 00472720 f   cryptlib:integer.obj
 0001:00071880       ?SSE2_MultiplyBottom8@CryptoPP@@YAXPAIPBI1@Z 00472880 f   cryptlib:integer.obj
 0001:00071bc0       ?SSE2_MultiplyTop16@CryptoPP@@YAXPAIPBI1I@Z 00472bc0 f   cryptlib:integer.obj
 0001:00072350       ?SSE2_MultiplyTop32@CryptoPP@@YAXPAIPBI1I@Z 00473350 f   cryptlib:integer.obj
 0001:000731f0       ?SSE2_MultiplyTop8@CryptoPP@@YAXPAIPBI1I@Z 004741f0 f   cryptlib:integer.obj
 0001:000735f0       ?SSE2_Square16@CryptoPP@@YAXPAIPBI@Z 004745f0 f   cryptlib:integer.obj
 0001:00074260       ?SSE2_Square32@CryptoPP@@YAXPAIPBI@Z 00475260 f   cryptlib:integer.obj
 0001:00075cf0       ?SSE2_Square4@CryptoPP@@YAXPAIPBI@Z 00476cf0 f   cryptlib:integer.obj
 0001:00075f20       ?SSE2_Square8@CryptoPP@@YAXPAIPBI@Z 00476f20 f   cryptlib:integer.obj
 0001:000764b0       ?SSE2_Sub@CryptoPP@@YIHIPAIPBI1@Z 004774b0 f   cryptlib:integer.obj
 0001:00076730       ?allocate@?$allocator@I@std@@QAEPAII@Z 00477730 f i cryptlib:integer.obj
 0001:00076790       ?reallocate@?$AllocatorWithCleanup@I$00@CryptoPP@@QAEPAIPAIII_N@Z 00477790 f i cryptlib:integer.obj
 0001:00076900       ?IsolatedInitialize@HexEncoder@CryptoPP@@UAEXABVNameValuePairs@2@@Z 00477900 f   cryptlib:hex.obj
 0001:00076a90       ??$ByteReverse@I@CryptoPP@@YAXPAIPBII@Z 00477a90 f i cryptlib:sha.obj
 0001:00076b80       ?AlgorithmProvider@SHA1@CryptoPP@@UBE?AV?$basic_string@DU?$char_traits@D@std@@V?$allocator@D@2@@std@@XZ 00477b80 f   cryptlib:sha.obj
 0001:00076c00       ?HashMultipleBlocks@SHA1@CryptoPP@@MAEIPBII@Z 00477c00 f   cryptlib:sha.obj
 0001:00076cb0       ?InitState@SHA1@CryptoPP@@SAXPAI@Z 00477cb0 f   cryptlib:sha.obj
 0001:00077d70       ?Transform@SHA1@CryptoPP@@SAXPAIPBI@Z 00478d70 f   cryptlib:sha.obj
 0001:00077db0       ??$ConditionalByteReverse@I@CryptoPP@@YAXW4ByteOrder@0@PAIPBII@Z 00478db0 f i cryptlib:iterhash.obj
 0001:00077e00       ??0HashInputTooLong@CryptoPP@@QAE@ABV01@@Z 00478e00 f i cryptlib:iterhash.obj
 0001:00077e90       ??0HashInputTooLong@CryptoPP@@QAE@ABV?$basic_string@DU?$char_traits@D@std@@V?$allocator@D@2@@std@@@Z 00478e90 f i cryptlib:iterhash.obj
 0001:00077fb0       ?CreateUpdateSpace@?$IteratedHashBase@IVHashTransformation@CryptoPP@@@CryptoPP@@UAEPAEAAI@Z 00478fb0 f i cryptlib:iterhash.obj
 0001:00077ff0       ?Restart@?$IteratedHashBase@IVHashTransformation@CryptoPP@@@CryptoPP@@UAEXXZ 00478ff0 f i cryptlib:iterhash.obj
 0001:00078010       ?TruncatedFinal@?$IteratedHashBase@IVHashTransformation@CryptoPP@@@CryptoPP@@UAEXPAEI@Z 00479010 f i cryptlib:iterhash.obj
 0001:00078170       ?Update@?$IteratedHashBase@IVHashTransformation@CryptoPP@@@CryptoPP@@UAEXPBEI@Z 00479170 f i cryptlib:iterhash.obj
 0001:00078330       ?allocate@?$AllocatorWithCleanup@I$0A@@CryptoPP@@QAEPAIIPBX@Z 00479330 f i cryptlib:iterhash.obj
 0001:00078360       ?ProcessData@CBC_Decryption@CryptoPP@@UAEXPAEPBEI@Z 00479360 f   cryptlib:modes.obj
 0001:000783f0       ?ProcessData@CBC_Encryption@CryptoPP@@UAEXPAEPBEI@Z 004793f0 f   cryptlib:modes.obj
 0001:00078460       ?ResizeBuffers@BlockOrientedCipherModeBase@CryptoPP@@MAEXXZ 00479460 f   cryptlib:modes.obj
 0001:000784c0       ?ResizeBuffers@CBC_Decryption@CryptoPP@@MAEXXZ 004794c0 f   cryptlib:modes.obj
 0001:00078560       ?ResizeBuffers@CipherModeBase@CryptoPP@@MAEXXZ 00479560 f   cryptlib:modes.obj
 0001:000785c0       ?UncheckedSetKey@BlockOrientedCipherModeBase@CryptoPP@@UAEXPBEIABVNameValuePairs@2@@Z 004795c0 f   cryptlib:modes.obj
 0001:0007860a       ??$?RI@?$GetBlock@IU?$EnumToType@W4ByteOrder@CryptoPP@@$0A@@CryptoPP@@$0A@@CryptoPP@@QAEAAV01@AAI@Z 0047960a f i cryptlib:rijndael.obj
 0001:0007866b       ??$?RI@?$PutBlock@IU?$EnumToType@W4ByteOrder@CryptoPP@@$0A@@CryptoPP@@$0A@@CryptoPP@@QAEAAV01@I@Z 0047966b f i cryptlib:rijndael.obj
 0001:00078701       ??$GetUserKey@I@CryptoPP@@YAXW4ByteOrder@0@PAIIPBEI@Z 00479701 f i cryptlib:rijndael.obj
 0001:000787a0       ??$IsPowerOf2@I@CryptoPP@@YA_NABI@Z 004797a0 f i cryptlib:rijndael.obj
 0001:000787c0       ??$ModPowerOf2@II@CryptoPP@@YAIABI0@Z 004797c0 f i cryptlib:rijndael.obj
 0001:000787e5       ??$RoundUpToMultipleOf@II@CryptoPP@@YAIABI0@Z 004797e5 f i cryptlib:rijndael.obj
 0001:000788bd       ?AdvancedProcessBlocks@Dec@Rijndael@CryptoPP@@UBEIPBE0PAEII@Z 004798bd f   cryptlib:rijndael.obj
 0001:00078917       ?AdvancedProcessBlocks@Enc@Rijndael@CryptoPP@@UBEIPBE0PAEII@Z 00479917 f   cryptlib:rijndael.obj
 0001:00078bb2       ?AlgorithmProvider@Base@Rijndael@CryptoPP@@UBE?AV?$basic_string@DU?$char_traits@D@std@@V?$allocator@D@2@@std@@XZ 00479bb2 f   cryptlib:rijndael.obj
 0001:00078ce0       ?ByteReverse@CryptoPP@@YAII@Z 00479ce0 f i cryptlib:rijndael.obj
 0001:00078ce7       ?FillDecTable@Base@Rijndael@CryptoPP@@KAXXZ 00479ce7 f   cryptlib:rijndael.obj
 0001:00078ef8       ?FillEncTable@Base@Rijndael@CryptoPP@@KAXXZ 00479ef8 f   cryptlib:rijndael.obj
 0001:00078fd0       ?GetCacheLineSize@CryptoPP@@YAHXZ 00479fd0 f i cryptlib:rijndael.obj
 0001:00079000       ?HasAESNI@CryptoPP@@YA_NXZ 0047a000 f i cryptlib:rijndael.obj
 0001:00079020       ?HasSSE2@CryptoPP@@YA_NXZ  0047a020 f i cryptlib:rijndael.obj
 0001:00079040       ?HasSSE41@CryptoPP@@YA_NXZ 0047a040 f i cryptlib:rijndael.obj
 0001:00079060       ?NativeByteOrderIs@CryptoPP@@YA_NW4ByteOrder@1@@Z 0047a060 f i cryptlib:rijndael.obj
 0001:00079069       ?OptimalDataAlignment@Base@Rijndael@CryptoPP@@UBEIXZ 0047a069 f   cryptlib:rijndael.obj
 0001:0007908b       ?ProcessAndXorBlock@Dec@Rijndael@CryptoPP@@UBEXPBE0PAE@Z 0047a08b f   cryptlib:rijndael.obj
 0001:000799f4       ?ProcessAndXorBlock@Enc@Rijndael@CryptoPP@@UBEXPBE0PAE@Z 0047a9f4 f   cryptlib:rijndael.obj
 0001:0007a33d       ?Rijndael_Enc_AdvancedProcessBlocks_SSE2@CryptoPP@@YIXPAXPBI@Z 0047b33d f   cryptlib:rijndael.obj
 0001:0007a9a4       ?UncheckedSetKey@Base@Rijndael@CryptoPP@@UAEXPBEIABVNameValuePairs@3@@Z 0047b9a4 f   cryptlib:rijndael.obj
 0001:0007b6f0       ?memset_z@CryptoPP@@YAPAXPAXHI@Z 0047c6f0 f i cryptlib:rijndael.obj
 0001:0007b700       ??0ByteQueue@CryptoPP@@QAE@I@Z 0047c700 f   cryptlib:queue.obj
 0001:0007b7f0       ??0Walker@ByteQueue@CryptoPP@@QAE@ABV12@@Z 0047c7f0 f i cryptlib:queue.obj
 0001:0007b850       ??1ByteQueue@CryptoPP@@UAE@XZ 0047c850 f   cryptlib:queue.obj
 0001:0007b893       ??_EByteQueue@CryptoPP@@W3AEPAXI@Z 0047c893 f i cryptlib:queue.obj
 0001:0007b89b       ??_EWalker@ByteQueue@CryptoPP@@W3AEPAXI@Z 0047c89b f i cryptlib:queue.obj
 0001:0007b8b0       ??_GByteQueue@CryptoPP@@UAEPAXI@Z 0047c8b0 f i cryptlib:queue.obj
 0001:0007b8b0       ??_EByteQueue@CryptoPP@@UAEPAXI@Z 0047c8b0 f i cryptlib:queue.obj
 0001:0007b920       ??_GWalker@ByteQueue@CryptoPP@@UAEPAXI@Z 0047c920 f i cryptlib:queue.obj
 0001:0007b920       ??_EWalker@ByteQueue@CryptoPP@@UAEPAXI@Z 0047c920 f i cryptlib:queue.obj
 0001:0007b940       ?CleanupUsedNodes@ByteQueue@CryptoPP@@AAEXXZ 0047c940 f   cryptlib:queue.obj
 0001:0007b9f0       ?Clear@ByteQueue@CryptoPP@@QAEXXZ 0047c9f0 f   cryptlib:queue.obj
 0001:0007baa0       ?CopyRangeTo2@ByteQueue@CryptoPP@@UBEIAAVBufferedTransformation@2@AA_K_KABV?$basic_string@DU?$char_traits@D@std@@V?$allocator@D@2@@std@@_N@Z 0047caa0 f   cryptlib:queue.obj
 0001:0007bb80       ?CopyRangeTo2@Walker@ByteQueue@CryptoPP@@UBEIAAVBufferedTransformation@3@AA_K_KABV?$basic_string@DU?$char_traits@D@std@@V?$allocator@D@2@@std@@_N@Z 0047cb80 f   cryptlib:queue.obj
 0001:0007bc40       ?CreatePutSpace@ByteQueue@CryptoPP@@UAEPAEAAI@Z 0047cc40 f   cryptlib:queue.obj
 0001:0007bd20       ?CurrentSize@ByteQueue@CryptoPP@@QBE_KXZ 0047cd20 f   cryptlib:queue.obj
 0001:0007bd60       ?Destroy@ByteQueue@CryptoPP@@AAEXXZ 0047cd60 f   cryptlib:queue.obj
 0001:0007bdf0       ?Get@ByteQueue@CryptoPP@@UAEIAAE@Z 0047cdf0 f   cryptlib:queue.obj
 0001:0007be70       ?Get@Walker@ByteQueue@CryptoPP@@UAEIPAEI@Z 0047ce70 f   cryptlib:queue.obj
 0001:0007be70       ?Get@ByteQueue@CryptoPP@@UAEIPAEI@Z 0047ce70 f   cryptlib:queue.obj
 0001:0007bf20       ?Get@Walker@ByteQueue@CryptoPP@@UAEIAAE@Z 0047cf20 f   cryptlib:queue.obj
 0001:0007bfd0       ?IsEmpty@ByteQueue@CryptoPP@@QBE_NXZ 0047cfd0 f   cryptlib:queue.obj
 0001:0007c000       ?IsolatedInitialize@ByteQueue@CryptoPP@@UAEXABVNameValuePairs@2@@Z 0047d000 f   cryptlib:queue.obj
 0001:0007c040       ?IsolatedInitialize@Walker@ByteQueue@CryptoPP@@UAEXABVNameValuePairs@3@@Z 0047d040 f   cryptlib:queue.obj
 0001:0007c070       ?MaxRetrievable@Walker@ByteQueue@CryptoPP@@UBE_KXZ 0047d070 f i cryptlib:queue.obj
 0001:0007c0c0       ?Peek@ByteQueue@CryptoPP@@UBEIAAE@Z 0047d0c0 f   cryptlib:queue.obj
 0001:0007c100       ?Peek@ByteQueue@CryptoPP@@UBEIPAEI@Z 0047d100 f   cryptlib:queue.obj
 0001:0007c100       ?Peek@Walker@ByteQueue@CryptoPP@@UBEIPAEI@Z 0047d100 f   cryptlib:queue.obj
 0001:0007c1a0       ?Peek@Walker@ByteQueue@CryptoPP@@UBEIAAE@Z 0047d1a0 f   cryptlib:queue.obj
 0001:0007c240       ?Put2@ByteQueue@CryptoPP@@UAEIPBEIH_N@Z 0047d240 f   cryptlib:queue.obj
 0001:0007c3b0       ?TransferTo2@ByteQueue@CryptoPP@@UAEIAAVBufferedTransformation@2@AA_KABV?$basic_string@DU?$char_traits@D@std@@V?$allocator@D@2@@std@@_N@Z 0047d3b0 f   cryptlib:queue.obj
 0001:0007c510       ?TransferTo2@Walker@ByteQueue@CryptoPP@@UAEIAAVBufferedTransformation@3@AA_KABV?$basic_string@DU?$char_traits@D@std@@V?$allocator@D@2@@std@@_N@Z 0047d510 f   cryptlib:queue.obj
 0001:0007c650       ?GetPowerUpSelfTestStatus@CryptoPP@@YA?AW4PowerUpSelfTestStatus@1@XZ 0047d650 f   cryptlib:fips140.obj
 0001:0007c660       ??$fill@V?$_Deque_iterator@V?$_Deque_val@U?$_Deque_simple_types@I@std@@@std@@@std@@I@std@@YAXV?$_Deque_iterator@V?$_Deque_val@U?$_Deque_simple_types@I@std@@@std@@@0@0ABI@Z 0047d660 f i cryptlib:mqueue.obj
 0001:0007c6b0       ??$fill@V?$_Deque_iterator@V?$_Deque_val@U?$_Deque_simple_types@_K@std@@@std@@@std@@_K@std@@YAXV?$_Deque_iterator@V?$_Deque_val@U?$_Deque_simple_types@_K@std@@@std@@@0@0AB_K@Z 0047d6b0 f i cryptlib:mqueue.obj
 0001:0007c700       ??$move@V?$_Deque_iterator@V?$_Deque_val@U?$_Deque_simple_types@I@std@@@std@@@std@@V12@@std@@YA?AV?$_Deque_iterator@V?$_Deque_val@U?$_Deque_simple_types@I@std@@@std@@@0@V10@00@Z 0047d700 f i cryptlib:mqueue.obj
 0001:0007c7c0       ??$move@V?$_Deque_iterator@V?$_Deque_val@U?$_Deque_simple_types@_K@std@@@std@@@std@@V12@@std@@YA?AV?$_Deque_iterator@V?$_Deque_val@U?$_Deque_simple_types@_K@std@@@std@@@0@V10@00@Z 0047d7c0 f i cryptlib:mqueue.obj
 0001:0007c880       ??$move_backward@V?$_Deque_iterator@V?$_Deque_val@U?$_Deque_simple_types@I@std@@@std@@@std@@V12@@std@@YA?AV?$_Deque_iterator@V?$_Deque_val@U?$_Deque_simple_types@I@std@@@std@@@0@V10@00@Z 0047d880 f i cryptlib:mqueue.obj
 0001:0007c940       ??$move_backward@V?$_Deque_iterator@V?$_Deque_val@U?$_Deque_simple_types@_K@std@@@std@@@std@@V12@@std@@YA?AV?$_Deque_iterator@V?$_Deque_val@U?$_Deque_simple_types@_K@std@@@std@@@0@V10@00@Z 0047d940 f i cryptlib:mqueue.obj
 0001:0007ca10       ??0MessageQueue@CryptoPP@@QAE@I@Z 0047da10 f   cryptlib:mqueue.obj
 0001:0007cb40       ??1?$_Deque_alloc@U?$_Deque_base_types@_KV?$allocator@_K@std@@@std@@@std@@QAE@XZ 0047db40 f i cryptlib:mqueue.obj
 0001:0007cb40       ??1?$_Deque_alloc@U?$_Deque_base_types@IV?$allocator@I@std@@@std@@@std@@QAE@XZ 0047db40 f i cryptlib:mqueue.obj
 0001:0007cb60       ??1?$deque@_KV?$allocator@_K@std@@@std@@QAE@XZ 0047db60 f i cryptlib:mqueue.obj
 0001:0007cb80       ??H?$_Deque_iterator@V?$_Deque_val@U?$_Deque_simple_types@I@std@@@std@@@std@@QBE?AV01@H@Z 0047db80 f i cryptlib:mqueue.obj
 0001:0007cb80       ??H?$_Deque_iterator@V?$_Deque_val@U?$_Deque_simple_types@_K@std@@@std@@@std@@QBE?AV01@H@Z 0047db80 f i cryptlib:mqueue.obj
 0001:0007cbbe       ??_EMessageQueue@CryptoPP@@W3AEPAXI@Z 0047dbbe f i cryptlib:mqueue.obj
 0001:0007cbd0       ??_EMessageQueue@CryptoPP@@UAEPAXI@Z 0047dbd0 f i cryptlib:mqueue.obj
 0001:0007cbd0       ??_GMessageQueue@CryptoPP@@UAEPAXI@Z 0047dbd0 f i cryptlib:mqueue.obj
 0001:0007cc30       ?AnyRetrievable@MessageQueue@CryptoPP@@UBE_NXZ 0047dc30 f i cryptlib:mqueue.obj
 0001:0007cc70       ?CopyRangeTo2@MessageQueue@CryptoPP@@UBEIAAVBufferedTransformation@2@AA_K_KABV?$basic_string@DU?$char_traits@D@std@@V?$allocator@D@2@@std@@_N@Z 0047dc70 f   cryptlib:mqueue.obj
 0001:0007cce0       ?GetNextMessage@MessageQueue@CryptoPP@@UAE_NXZ 0047dce0 f   cryptlib:mqueue.obj
 0001:0007cd80       ?IsolatedInitialize@MessageQueue@CryptoPP@@UAEXABVNameValuePairs@2@@Z 0047dd80 f i cryptlib:mqueue.obj
 0001:0007cef0       ?IsolatedMessageSeriesEnd@MessageQueue@CryptoPP@@UAE_N_N@Z 0047def0 f i cryptlib:mqueue.obj
 0001:0007cf80       ?MaxRetrievable@MessageQueue@CryptoPP@@UBE_KXZ 0047df80 f i cryptlib:mqueue.obj
 0001:0007cfb0       ?NumberOfMessageSeries@MessageQueue@CryptoPP@@UBEIXZ 0047dfb0 f i cryptlib:mqueue.obj
 0001:0007cfc0       ?NumberOfMessages@MessageQueue@CryptoPP@@UBEIXZ 0047dfc0 f i cryptlib:mqueue.obj
 0001:0007cfd0       ?NumberOfMessagesInThisSeries@MessageQueue@CryptoPP@@UBEIXZ 0047dfd0 f i cryptlib:mqueue.obj
 0001:0007d020       ?Put2@MessageQueue@CryptoPP@@UAEIPBEIH_N@Z 0047e020 f i cryptlib:mqueue.obj
 0001:0007d160       ?SetAutoSignalPropagation@?$AutoSignaling@VBufferedTransformation@CryptoPP@@@CryptoPP@@UAEXH@Z 0047e160 f i cryptlib:mqueue.obj
 0001:0007d170       ?TotalBytesRetrievable@MessageQueue@CryptoPP@@UBE_KXZ 0047e170 f i cryptlib:mqueue.obj
 0001:0007d180       ?TransferTo2@MessageQueue@CryptoPP@@UAEIAAVBufferedTransformation@2@AA_KABV?$basic_string@DU?$char_traits@D@std@@V?$allocator@D@2@@std@@_N@Z 0047e180 f   cryptlib:mqueue.obj
 0001:0007d200       ?_Construct_n@?$deque@IV?$allocator@I@std@@@std@@QAEXIABI@Z 0047e200 f i cryptlib:mqueue.obj
 0001:0007d2f0       ?_Construct_n@?$deque@_KV?$allocator@_K@std@@@std@@QAEXIAB_K@Z 0047e2f0 f i cryptlib:mqueue.obj
 0001:0007d3f0       ?_Growmap@?$deque@IV?$allocator@I@std@@@std@@IAEXI@Z 0047e3f0 f i cryptlib:mqueue.obj
 0001:0007d590       ?_Growmap@?$deque@_KV?$allocator@_K@std@@@std@@IAEXI@Z 0047e590 f i cryptlib:mqueue.obj
 0001:0007d730       ?_Insert_n@?$deque@IV?$allocator@I@std@@@std@@IAEXV?$_Deque_const_iterator@V?$_Deque_val@U?$_Deque_simple_types@I@std@@@std@@@2@IABI@Z 0047e730 f i cryptlib:mqueue.obj
 0001:0007dfd0       ?_Insert_n@?$deque@_KV?$allocator@_K@std@@@std@@IAEXV?$_Deque_const_iterator@V?$_Deque_val@U?$_Deque_simple_types@_K@std@@@std@@@2@IAB_K@Z 0047efd0 f i cryptlib:mqueue.obj
 0001:0007e8a0       ?_Tidy@?$deque@_KV?$allocator@_K@std@@@std@@IAEXXZ 0047f8a0 f i cryptlib:mqueue.obj
 0001:0007e8a0       ?_Tidy@?$deque@IV?$allocator@I@std@@@std@@IAEXXZ 0047f8a0 f i cryptlib:mqueue.obj
 0001:0007e940       ?allocate@?$allocator@_K@std@@QAEPA_KI@Z 0047f940 f i cryptlib:mqueue.obj
 0001:0007e9a0       ?erase@?$deque@IV?$allocator@I@std@@@std@@QAE?AV?$_Deque_iterator@V?$_Deque_val@U?$_Deque_simple_types@I@std@@@std@@@2@V?$_Deque_const_iterator@V?$_Deque_val@U?$_Deque_simple_types@I@std@@@std@@@2@0@Z 0047f9a0 f i cryptlib:mqueue.obj
 0001:0007eb40       ?erase@?$deque@_KV?$allocator@_K@std@@@std@@QAE?AV?$_Deque_iterator@V?$_Deque_val@U?$_Deque_simple_types@_K@std@@@std@@@2@V?$_Deque_const_iterator@V?$_Deque_val@U?$_Deque_simple_types@_K@std@@@std@@@2@0@Z 0047fb40 f i cryptlib:mqueue.obj
 0001:0007ece0       ?pop_back@?$deque@_KV?$allocator@_K@std@@@std@@QAEXXZ 0047fce0 f i cryptlib:mqueue.obj
 0001:0007ece0       ?pop_back@?$deque@IV?$allocator@I@std@@@std@@QAEXXZ 0047fce0 f i cryptlib:mqueue.obj
 0001:0007ecf0       ?pop_front@?$deque@_KV?$allocator@_K@std@@@std@@QAEXXZ 0047fcf0 f i cryptlib:mqueue.obj
 0001:0007ecf0       ?pop_front@?$deque@IV?$allocator@I@std@@@std@@QAEXXZ 0047fcf0 f i cryptlib:mqueue.obj
 0001:0007ed10       ??1ECPPoint@CryptoPP@@UAE@XZ 0047fd10 f i cryptlib:dll.obj
 0001:0007edc0       ??1PolynomialMod2@CryptoPP@@QAE@XZ 0047fdc0 f i cryptlib:dll.obj
 0001:0007ee20       ??_EEC2NPoint@CryptoPP@@UAEPAXI@Z 0047fe20 f i cryptlib:dll.obj
 0001:0007ee20       ??_GEC2NPoint@CryptoPP@@UAEPAXI@Z 0047fe20 f i cryptlib:dll.obj
 0001:0007eec0       ??_GECPPoint@CryptoPP@@UAEPAXI@Z 0047fec0 f i cryptlib:dll.obj
 0001:0007eec0       ??_EECPPoint@CryptoPP@@UAEPAXI@Z 0047fec0 f i cryptlib:dll.obj
 0001:0007eee0       ??$BytePrecision@_K@CryptoPP@@YAIAB_K@Z 0047fee0 f i cryptlib:asn.obj
 0001:0007ef40       ??0BERGeneralDecoder@CryptoPP@@QAE@AAVBufferedTransformation@1@E@Z 0047ff40 f   cryptlib:asn.obj
 0001:0007efc0       ??0DERGeneralEncoder@CryptoPP@@QAE@AAVBufferedTransformation@1@E@Z 0047ffc0 f   cryptlib:asn.obj
 0001:0007f000       ??1BERGeneralDecoder@CryptoPP@@UAE@XZ 00480000 f   cryptlib:asn.obj
 0001:0007f0a0       ??1DERGeneralEncoder@CryptoPP@@UAE@XZ 004800a0 f   cryptlib:asn.obj
 0001:0007f117       ??_EBERGeneralDecoder@CryptoPP@@W3AEPAXI@Z 00480117 f i cryptlib:asn.obj
 0001:0007f11f       ??_EDERGeneralEncoder@CryptoPP@@W3AEPAXI@Z 0048011f f i cryptlib:asn.obj
 0001:0007f130       ??_EBERGeneralDecoder@CryptoPP@@UAEPAXI@Z 00480130 f i cryptlib:asn.obj
 0001:0007f130       ??_GBERGeneralDecoder@CryptoPP@@UAEPAXI@Z 00480130 f i cryptlib:asn.obj
 0001:0007f150       ??_GDERGeneralEncoder@CryptoPP@@UAEPAXI@Z 00480150 f i cryptlib:asn.obj
 0001:0007f150       ??_EDERGeneralEncoder@CryptoPP@@UAEPAXI@Z 00480150 f i cryptlib:asn.obj
 0001:0007f170       ?BERLengthDecode@CryptoPP@@YA_NAAVBufferedTransformation@1@AA_KAA_N@Z 00480170 f   cryptlib:asn.obj
 0001:0007f250       ?CopyRangeTo2@BERGeneralDecoder@CryptoPP@@UBEIAAVBufferedTransformation@2@AA_K_KABV?$basic_string@DU?$char_traits@D@std@@V?$allocator@D@2@@std@@_N@Z 00480250 f   cryptlib:asn.obj
 0001:0007f2a0       ?DERLengthEncode@CryptoPP@@YAIAAVBufferedTransformation@1@_K@Z 004802a0 f   cryptlib:asn.obj
 0001:0007f370       ?MessageEnd@BERGeneralDecoder@CryptoPP@@QAEXXZ 00480370 f   cryptlib:asn.obj
 0001:0007f3b0       ?MessageEnd@DERGeneralEncoder@CryptoPP@@QAEXXZ 004803b0 f   cryptlib:asn.obj
 0001:0007f430       ?TransferTo2@BERGeneralDecoder@CryptoPP@@UAEIAAVBufferedTransformation@2@AA_KABV?$basic_string@DU?$char_traits@D@std@@V?$allocator@D@2@@std@@_N@Z 00480430 f   cryptlib:asn.obj
 0001:0007f4b0       ?DetectX86Features@CryptoPP@@YAXXZ 004804b0 f   cryptlib:cpu.obj
 0001:0007f840       ?SHA1_HashMultipleBlocks_SHANI@CryptoPP@@YAXPAIPBIIW4ByteOrder@1@@Z 00480840 f   cryptlib:sha_simd.obj
 0001:0007fae0       ??$AdvancedProcessBlocks128_4x1_SSE@P6AXAAT__m128i@@PBII@ZP6AX00001I@ZI@CryptoPP@@YAIP6AXAAT__m128i@@PBII@ZP6AX00001I@Z1IPBE4PAEII@Z 00480ae0 f i cryptlib:rijndael_simd.obj
 0001:00080030       ?Rijndael_Dec_AdvancedProcessBlocks_AESNI@CryptoPP@@YAIPBIIPBE1PAEII@Z 00481030 f   cryptlib:rijndael_simd.obj
 0001:00080060       ?Rijndael_Enc_AdvancedProcessBlocks_AESNI@CryptoPP@@YAIPBIIPBE1PAEII@Z 00481060 f   cryptlib:rijndael_simd.obj
 0001:00080090       ?Rijndael_UncheckedSetKeyRev_AESNI@CryptoPP@@YAXPAII@Z 00481090 f   cryptlib:rijndael_simd.obj
 0001:000800f0       ?Rijndael_UncheckedSetKey_SSE4_AESNI@CryptoPP@@YAXPBEIPAI@Z 004810f0 f   cryptlib:rijndael_simd.obj
 0001:00080280       ??0PolynomialMod2@CryptoPP@@QAE@XZ 00481280 f   cryptlib:gf2n.obj
 0001:000802b0       ?CPU_ProbeSSE2@CryptoPP@@YA_NXZ 004812b0 f   cryptlib:sse_simd.obj
 0001:0008032d       @__security_check_cookie@4 0048132d f   LIBCMT:secchk.obj
 0001:0008033e       ??$__crt_fast_encode_pointer@P6GHPAU_RTL_CONDITION_VARIABLE@@PAU_RTL_CRITICAL_SECTION@@K@Z@@YAP6GHPAU_RTL_CONDITION_VARIABLE@@PAU_RTL_CRITICAL_SECTION@@K@ZQ6GH01K@Z@Z 0048133e f i LIBCMT:thread_safe_statics.obj
 0001:0008033e       ??$__crt_fast_encode_pointer@PAP6AXXZ@@YAPAP6AXXZQAP6AXXZ@Z 0048133e f i LIBCMT:utility.obj
 0001:0008033e       ??$__crt_fast_encode_pointer@P6GXPAU_RTL_CONDITION_VARIABLE@@@Z@@YAP6GXPAU_RTL_CONDITION_VARIABLE@@@ZQ6GX0@Z@Z 0048133e f i LIBCMT:thread_safe_statics.obj
 0001:0008033e       ??$__crt_fast_encode_pointer@PAX@@YAPAXQAX@Z 0048133e f i libvcruntime:winapi_downlevel.obj
 0001:0008039f       ___scrt_acquire_startup_lock 0048139f f   LIBCMT:utility.obj
 0001:000803d1       ___scrt_initialize_crt     004813d1 f   LIBCMT:utility.obj
 0001:0008040a       ___scrt_initialize_onexit_tables 0048140a f   LIBCMT:utility.obj
 0001:000804af       ___scrt_is_nonwritable_in_current_image 004814af f   LIBCMT:utility.obj
 0001:00080543       ___scrt_release_startup_lock 00481543 f   LIBCMT:utility.obj
 0001:00080560       ___scrt_uninitialize_crt   00481560 f   LIBCMT:utility.obj
 0001:00080588       __onexit                   00481588 f   LIBCMT:utility.obj
 0001:000805c3       _atexit                    004815c3 f   LIBCMT:utility.obj
 0001:000805d8       ??3@YAXPAXI@Z              004815d8 f   LIBCMT:delete_scalar_size.obj
 0001:000805e6       ??2@YAPAXI@Z               004815e6 f   LIBCMT:new_scalar.obj
 0001:00080616       ??_U@YAPAXI@Z              00481616 f   LIBCMT:new_array.obj
 0001:00080860       _wWinMainCRTStartup        00481860 f   LIBCMT:exe_wwinmain.obj
 0001:0008086a       ??_V@YAXPAX@Z              0048186a f   LIBCMT:delete_array.obj
 0001:000809a1       __Init_thread_abort        004819a1 f   LIBCMT:thread_safe_statics.obj
 0001:000809c5       __Init_thread_footer       004819c5 f   LIBCMT:thread_safe_statics.obj
 0001:00080a0f       __Init_thread_header       00481a0f f   LIBCMT:thread_safe_statics.obj
 0001:00080a61       __Init_thread_notify       00481a61 f   LIBCMT:thread_safe_statics.obj
 0001:00080aa3       __Init_thread_wait         00481aa3 f   LIBCMT:thread_safe_statics.obj
 0001:00080b03       ??_L@YGXPAXIIP6EX0@Z1@Z    00481b03 f   LIBCMT:ehvecctr.obj
 0001:00080b77       ??_M@YGXPAXIIP6EX0@Z@Z     00481b77 f   LIBCMT:ehvecdtr.obj
 0001:00080bfc       ?__ArrayUnwind@@YGXPAXIIP6EX0@Z@Z 00481bfc f   LIBCMT:ehvecdtr.obj
 0001:00080c75       ??_Etype_info@@UAEPAXI@Z   00481c75 f i LIBCMT:std_type_info_static.obj
 0001:00080c75       ??_Gtype_info@@UAEPAXI@Z   00481c75 f i LIBCMT:std_type_info_static.obj
 0001:00080c98       ?__scrt_initialize_type_info@@YAXXZ 00481c98 f   LIBCMT:tncleanup.obj
 0001:00080ca4       __EH_epilog3               00481ca4 f   LIBCMT:ehprolg3.obj
 0001:00080cb9       __EH_epilog3_GS            00481cb9 f   LIBCMT:ehprolg3.obj
 0001:00080cca       __EH_prolog3               00481cca f   LIBCMT:ehprolg3.obj
 0001:00080cfe       __EH_prolog3_GS            00481cfe f   LIBCMT:ehprolg3.obj
 0001:00080d35       __EH_prolog3_catch         00481d35 f   LIBCMT:ehprolg3.obj
 0001:00080d70       __aulldvrm                 00481d70 f   LIBCMT:ulldvrm.obj
 0001:00080e05       ___isa_available_init      00481e05 f   LIBCMT:cpu_disp.obj
 0001:00080fa0       __alloca_probe_16          00481fa0 f   LIBCMT:alloca16.obj
 0001:00080fb6       __alloca_probe_8           00481fb6     LIBCMT:alloca16.obj
 0001:00080fd0       __allmul                   00481fd0 f   LIBCMT:llmul.obj
 0001:00081010       __aulldiv                  00482010 f   LIBCMT:ulldiv.obj
 0001:00081080       __alldiv                   00482080 f   LIBCMT:lldiv.obj
 0001:0008112a       ___raise_securityfailure   0048212a f   LIBCMT:gs_report.obj
 0001:00081152       ___report_gsfailure        00482152 f   LIBCMT:gs_report.obj
 0001:0008124b       ___report_rangecheckfailure 0048224b f   LIBCMT:gs_report.obj
 0001:00081257       ___report_securityfailure  00482257 f   LIBCMT:gs_report.obj
 0001:00081330       __alloca_probe             00482330 f   LIBCMT:chkstk.obj
 0001:00081330       __chkstk                   00482330 f   LIBCMT:chkstk.obj
 0001:00081360       __ftoui3                   00482360 f   LIBCMT:ftol3.obj
 0001:00081396       __ftoul3                   00482396 f   LIBCMT:ftol3.obj
 0001:000813e5       __ftol3                    004823e5 f   LIBCMT:ftol3.obj
 0001:0008142f       __dtoui3                   0048242f f   LIBCMT:ftol3.obj
 0001:00081493       __dtoul3                   00482493 f   LIBCMT:ftol3.obj
 0001:00081517       __dtol3                    00482517 f   LIBCMT:ftol3.obj
 0001:000815b0       __ultod3                   004825b0 f   LIBCMT:ftol3.obj
 0001:000815f0       __ltod3                    004825f0 f   LIBCMT:ftol3.obj
 0001:00081620       __allrem                   00482620 f   LIBCMT:llrem.obj
 0001:000816e0       __allshl                   004826e0 f   LIBCMT:llshl.obj
 0001:00081700       __aullrem                  00482700 f   LIBCMT:ullrem.obj
 0001:00081780       __aullshr                  00482780 f   LIBCMT:ullshr.obj
 0001:0008179f       __get_startup_argv_mode    0048279f f   LIBCMT:argv_mode.obj
 0001:0008179f       ?length@charNode@@UBEHXZ   0048279f f   libvcruntime:undname.obj
 0001:000817a3       ___scrt_is_ucrt_dll_in_use 004827a3 f   LIBCMT:ucrt_detection.obj
 0001:000817af       ___scrt_fastfail           004827af f   LIBCMT:utility_desktop.obj
 0001:000818c9       ___scrt_get_show_window_mode 004828c9 f   LIBCMT:utility_desktop.obj
 0001:000818fa       ___scrt_initialize_mta     004828fa f   LIBCMT:utility_desktop.obj
 0001:000818ff       ___scrt_is_managed_app     004828ff f   LIBCMT:utility_desktop.obj
 0001:00081942       ___scrt_set_unhandled_exception_filter 00482942 f   LIBCMT:utility_desktop.obj
 0001:0008194e       ___scrt_unhandled_exception_filter@4 0048294e f   LIBCMT:utility_desktop.obj
 0001:0008198f       __crt_debugger_hook        0048298f f   LIBCMT:utility_desktop.obj
 0001:000819a0       __SEH_prolog4              004829a0 f   LIBCMT:sehprolg4.obj
 0001:000819e6       __SEH_epilog4              004829e6 f   LIBCMT:sehprolg4.obj
 0001:000819fb       ??0bad_array_new_length@std@@QAE@ABV01@@Z 004829fb f i LIBCMT:throw_bad_alloc.obj
 0001:00081a16       ??0bad_array_new_length@std@@QAE@XZ 00482a16 f i LIBCMT:throw_bad_alloc.obj
 0001:00081a2e       ?__scrt_throw_std_bad_array_new_length@@YAXXZ 00482a2e f   LIBCMT:throw_bad_alloc.obj
 0001:00081a98       ___security_init_cookie    00482a98 f   LIBCMT:gs_support.obj
 0001:00081ae3       __get_startup_file_mode    00482ae3 f   LIBCMT:file_mode.obj
 0001:00081ae9       __initialize_default_precision 00482ae9 f   LIBCMT:default_precision.obj
 0001:00081b0a       ___scrt_initialize_default_local_stdio_options 00482b0a f   LIBCMT:default_local_stdio_options.obj
 0001:00081b27       ___scrt_is_user_matherr_present 00482b27 f   LIBCMT:matherr_detection.obj
 0001:00081b33       ___scrt_get_dyn_tls_init_callback 00482b33 f   LIBCMT:dyn_tls_init.obj
 0001:00081b39       ___scrt_get_dyn_tls_dtor_callback 00482b39 f   LIBCMT:dyn_tls_dtor.obj
 0001:00081b3f       __RTC_Initialize           00482b3f f   LIBCMT:initsect.obj
 0001:00081b6b       __RTC_Terminate            00482b6b f   LIBCMT:initsect.obj
 0001:00081b97       ??1_NonReentrantBlockingLock@details@Concurrency@@QAE@XZ 00482b97 f   libconcrt:rtlocks.obj
 0001:00081b9f       ??1DefaultWaiterPool@platform@details@Concurrency@@QAE@XZ 00482b9f f i libconcrt:Platform.obj
 0001:00081bc4       ??1WaiterThreadPool@platform@details@Concurrency@@QAE@XZ 00482bc4 f i libconcrt:Platform.obj
 0001:00081be6       ?__TlsFree@platform@details@Concurrency@@YAXK@Z 00482be6 f   libconcrt:Platform.obj
 0001:00081bf4       ?notify@WaiterThread@platform@details@Concurrency@@AAEX_N@Z 00482bf4 f i libconcrt:Platform.obj
 0001:00081c28       __concrt_static_cleanup    00482c28 f   libconcrt:utils.obj
 0001:00081c36       ?InitializeCookie@Security@details@Concurrency@@SAKXZ 00482c36 f   libconcrt:utils.obj
 0001:00081c82       ?CheckOneShotStaticDestruction@SchedulerBase@details@Concurrency@@SAXXZ 00482c82 f   libconcrt:SchedulerBase.obj
 0001:00081ca8       ?OneShotStaticDestruction@SchedulerBase@details@Concurrency@@CAXXZ 00482ca8 f   libconcrt:SchedulerBase.obj
 0001:00081cc1       ?OneShotStaticDestruction@UMSThreadScheduler@details@Concurrency@@SAXXZ 00482cc1 f   libconcrt:UMSThreadScheduler.obj
 0001:00081cd5       ?GetRangeOfTrysToCheck@__FrameHandler3@@SA?AU?$pair@Viterator@TryBlockMap@__FrameHandler3@@V123@@std@@AAVTryBlockMap@1@HPAXPBU_s_FuncInfo@@H@Z 00482cd5 f   libvcruntime:trnsctrl.obj
 0001:00081d45       ?_CallCatchBlock2@@YAPAXPAUEHRegistrationNode@@PBU_s_FuncInfo@@PAXHK@Z 00482d45 f   libvcruntime:trnsctrl.obj
 0001:00081da3       ?_CallSETranslator@@YAHPAUEHExceptionRecord@@PAUEHRegistrationNode@@PAX2PBU_s_FuncInfo@@H1@Z 00482da3 f   libvcruntime:trnsctrl.obj
 0001:00081e89       ?_JumpToContinuation@@YGXPAXPAUEHRegistrationNode@@@Z 00482e89 f   libvcruntime:trnsctrl.obj
 0001:00081eb9       ?_UnwindNestedFrames@@YGXPAUEHRegistrationNode@@PAUEHExceptionRecord@@@Z 00482eb9 f   libvcruntime:trnsctrl.obj
 0001:00081f0c       __CatchGuardHandler        00482f0c f   libvcruntime:trnsctrl.obj
 0001:00081f3d       __CreateFrameInfo          00482f3d f   libvcruntime:trnsctrl.obj
 0001:00081f61       __FindAndUnlinkFrame       00482f61 f   libvcruntime:trnsctrl.obj
 0001:00081fa9       __TranslatorGuardHandler   00482fa9 f   libvcruntime:trnsctrl.obj
 0001:00082046       ___CxxFrameHandler3        00483046 f   libvcruntime:trnsctrl.obj
 0001:0008207c       ___DestructExceptionObject 0048307c f   libvcruntime:ehhelpers.obj
 0001:0008211c       ?_CallMemberFunction0@@YGXQAX0@Z 0048311c f i libvcruntime:ehhelpers.obj
 0001:00082129       __IsExceptionObjectToBeDestroyed 00483129 f   libvcruntime:ehhelpers.obj
 0001:0008214f       ___AdjustPointer           0048314f f   libvcruntime:ehhelpers.obj
 0001:00082174       ___FrameUnwindFilter       00483174 f   libvcruntime:ehhelpers.obj
 0001:000821b9       ___std_terminate           004831b9 f   libvcruntime:ehhelpers.obj
 0001:000821be       ___std_exception_copy      004831be f   libvcruntime:std_exception.obj
 0001:00082221       ___std_exception_destroy   00483221 f   libvcruntime:std_exception.obj
 0001:00082240       __get_purecall_handler     00483240 f   libvcruntime:purevirt.obj
 0001:00082255       __purecall                 00483255 f   libvcruntime:purevirt.obj
 0001:0008227a       ___std_type_info_compare   0048327a f   libvcruntime:std_type_info.obj
 0001:000822b6       ___std_type_info_name      004832b6 f   libvcruntime:std_type_info.obj
 0001:000823c0       __except_handler4          004833c0 f   libvcruntime:chandler4.obj
 0001:0008251e       __CxxThrowException@8      0048351e f   libvcruntime:throw.obj
 0001:00082590       _memcpy                    00483590 f   libvcruntime:memcpy.obj
 0001:00082b10       _memmove                   00483b10 f   libvcruntime:memmove.obj
 0001:00083090       _memset                    00484090 f   libvcruntime:memset.obj
 0001:000831ea       ___uncaught_exception      004841ea f   libvcruntime:uncaught_exception.obj
 0001:000831fe       ___uncaught_exceptions     004841fe f   libvcruntime:uncaught_exceptions.obj
 0001:00083210       _memchr                    00484210 f   libvcruntime:memchr.obj
 0001:000832bd       _memcmp                    004842bd f   libvcruntime:memcmp.obj
 0001:00084270       _strchr                    00485270 f   libvcruntime:strchr.obj
 0001:000842de       ___from_strstr_to_strchr   004852de     libvcruntime:strchr.obj
 0001:000843a0       _strrchr                   004853a0 f   libvcruntime:strrchr.obj
 0001:000844e0       _strstr                    004854e0 f   libvcruntime:strstr.obj
 0001:00084743       ??0__non_rtti_object@std@@QAE@ABV01@@Z 00485743 f i libvcruntime:rtti.obj
 0001:0008475e       ??0bad_typeid@std@@QAE@ABV01@@Z 0048575e f i libvcruntime:rtti.obj
 0001:00084b1c       ?__construct_from_string_literal@__non_rtti_object@std@@SA?AV12@QBD@Z 00485b1c f i libvcruntime:rtti.obj
 0001:00084b38       ?__construct_from_string_literal@bad_cast@std@@SA?AV12@QBD@Z 00485b38 f i libvcruntime:rtti.obj
 0001:00084b54       ___RTDynamicCast           00485b54 f   libvcruntime:rtti.obj
 0001:00084c47       ___vcrt_initialize         00485c47 f   libvcruntime:initialization.obj
 0001:00084c70       ___vcrt_uninitialize       00485c70 f   libvcruntime:initialization.obj
 0001:00084c8f       ___vcrt_freefls@4          00485c8f f   libvcruntime:per_thread_data.obj
 0001:00084cab       ___vcrt_getptd             00485cab f   libvcruntime:per_thread_data.obj
 0001:00084cb9       ___vcrt_getptd_noexit      00485cb9 f   libvcruntime:per_thread_data.obj
 0001:00084d4b       ___vcrt_getptd_noinit      00485d4b f   libvcruntime:per_thread_data.obj
 0001:00084d82       ___vcrt_initialize_ptd     00485d82 f   libvcruntime:per_thread_data.obj
 0001:00084db5       ___vcrt_uninitialize_ptd   00485db5 f   libvcruntime:per_thread_data.obj
 0001:000854fd       ??$TypeMatchHelper@V__FrameHandler3@@@@YAHPBU_s_HandlerType@@PBU_s_CatchableType@@PBU_s_ThrowInfo@@@Z 004864fd f i libvcruntime:frame.obj
 0001:0008558b       ??$__InternalCxxFrameHandler@V__FrameHandler3@@@@YA?AW4_EXCEPTION_DISPOSITION@@PAUEHExceptionRecord@@PAUEHRegistrationNode@@PAU_CONTEXT@@PAXPBU_s_FuncInfo@@H1E@Z 0048658b f i libvcruntime:frame.obj
 0001:0008568d       ??0bad_exception@std@@QAE@ABV01@@Z 0048668d f i libvcruntime:frame.obj
 0001:000856a8       ??0bad_exception@std@@QAE@XZ 004866a8 f i libvcruntime:frame.obj
 0001:00085908       ?FrameUnwindToEmptyState@__FrameHandler3@@SAXPAUEHRegistrationNode@@PAXPBU_s_FuncInfo@@@Z 00486908 f   libvcruntime:frame.obj
 0001:00085920       ?FrameUnwindToState@__FrameHandler3@@SAXPAUEHRegistrationNode@@PAXPBU_s_FuncInfo@@H@Z 00486920 f   libvcruntime:frame.obj
 0001:00085aa2       ?_CallMemberFunction1@@YGXQAX00@Z 00486aa2 f i libvcruntime:frame.obj
 0001:00085ab2       ?_CallMemberFunction2@@YGXQAX00H@Z 00486ab2 f i libvcruntime:frame.obj
 0001:00085ac5       ?getESTypes@__FrameHandler3@@SAPBU_s_ESTypeList@@PBU_s_FuncInfo@@@Z 00486ac5 f i libvcruntime:frame.obj
 0001:00085ad0       __CallSettingFrame@12      00486ad0 f   libvcruntime:lowhelpr.obj
 0001:00085af7       __NLG_Return               00486af7     libvcruntime:lowhelpr.obj
 0001:00085b1c       ___except_validate_context_record 00486b1c f   libvcruntime:jbcxrval.obj
 0001:00085b4c       ___except_validate_jump_buffer 00486b4c f   libvcruntime:jbcxrval.obj
 0001:00085b79       ___vcrt_initialize_pure_virtual_call_handler 00486b79 f   libvcruntime:purevirt_data.obj
 0001:00085b84       ??0DName@@QAE@AAPBDD@Z     00486b84 f   libvcruntime:undname.obj
 0001:00085c36       ??0DName@@QAE@D@Z          00486c36 f   libvcruntime:undname.obj
 0001:00085c36       ??4DName@@QAEAAV0@D@Z      00486c36 f   libvcruntime:undname.obj
 0001:00085c5b       ??0DName@@QAE@PAV0@@Z      00486c5b f   libvcruntime:undname.obj
 0001:00085ca3       ??0DName@@QAE@PBD@Z        00486ca3 f   libvcruntime:undname.obj
 0001:00085cd6       ??0DName@@QAE@W4DNameStatus@@@Z 00486cd6 f   libvcruntime:undname.obj
 0001:00085d16       ??0DName@@QAE@_J@Z         00486d16 f   libvcruntime:undname.obj
 0001:00085da2       ??0DName@@QAE@_K@Z         00486da2 f   libvcruntime:undname.obj
 0001:00085e08       ??0UnDecorator@@QAE@PBDP6APADJ@ZK@Z 00486e08 f i libvcruntime:undname.obj
 0001:00085e54       ??0pDNameNode@@QAE@PAVDName@@@Z 00486e54 f   libvcruntime:undname.obj
 0001:00085e7c       ??0pcharNode@@QAE@PBDH@Z   00486e7c f   libvcruntime:undname.obj
 0001:00085edc       ??4DName@@QAEAAV0@PBD@Z    00486edc f   libvcruntime:undname.obj
 0001:00085f07       ??4DName@@QAEAAV0@W4DNameStatus@@@Z 00486f07 f   libvcruntime:undname.obj
 0001:00085f39       ??AReplicator@@QBE?AVDName@@H@Z 00486f39 f   libvcruntime:undname.obj
 0001:00085f7f       ??H@YA?AVDName@@DABV0@@Z   00486f7f f i libvcruntime:undname.obj
 0001:00085fa1       ??H@YA?AVDName@@PBDABV0@@Z 00486fa1 f i libvcruntime:undname.obj
 0001:00085fc3       ??H@YA?AVDName@@W4DNameStatus@@ABV0@@Z 00486fc3 f i libvcruntime:undname.obj
 0001:00085fe5       ??HDName@@QBE?AV0@ABV0@@Z  00486fe5 f   libvcruntime:undname.obj
 0001:00086007       ??HDName@@QBE?AV0@D@Z      00487007 f   libvcruntime:undname.obj
 0001:00086029       ??HDName@@QBE?AV0@PBD@Z    00487029 f   libvcruntime:undname.obj
 0001:0008604b       ??HDName@@QBE?AV0@W4DNameStatus@@@Z 0048704b f   libvcruntime:undname.obj
 0001:0008606d       ??YDName@@QAEAAV0@ABV0@@Z  0048706d f   libvcruntime:undname.obj
 0001:000860ae       ??YDName@@QAEAAV0@D@Z      004870ae f   libvcruntime:undname.obj
 0001:000860fe       ??YDName@@QAEAAV0@PBD@Z    004870fe f   libvcruntime:undname.obj
 0001:0008615f       ??YDName@@QAEAAV0@W4DNameStatus@@@Z 0048715f f   libvcruntime:undname.obj
 0001:0008619f       ??YReplicator@@QAEAAV0@ABVDName@@@Z 0048719f f   libvcruntime:undname.obj
 0001:000861e9       ??_5DName@@QAEAAV0@ABV0@@Z 004871e9 f   libvcruntime:undname.obj
 0001:00086205       ?Destructor@_HeapManager@@QAEXXZ 00487205 f i libvcruntime:undname.obj
 0001:0008623d       ?UScore@UnDecorator@@SAPBDW4Tokens@@@Z 0048723d f   libvcruntime:undname.obj
 0001:0008625c       ?append@DName@@AAEXPBVDNameNode@@@Z 0048725c f   libvcruntime:undname.obj
 0001:000862a2       ?composeDeclaration@UnDecorator@@CA?AVDName@@ABV2@@Z 004872a2 f i libvcruntime:undname.obj
 0001:00086f7f       ?doPchar@DName@@AAEXPBDH@Z 00487f7f f   libvcruntime:undname.obj
 0001:00087005       ?getArgumentList@UnDecorator@@CA?AVDName@@XZ 00488005 f   libvcruntime:undname.obj
 0001:000870fb       ?getArgumentTypes@UnDecorator@@CA?AVDName@@XZ 004880fb f   libvcruntime:undname.obj
 0001:000871c5       ?getArrayType@UnDecorator@@CA?AVDName@@ABV2@@Z 004881c5 f i libvcruntime:undname.obj
 0001:00087376       ?getBasedType@UnDecorator@@CA?AVDName@@XZ 00488376 f   libvcruntime:undname.obj
 0001:0008740e       ?getBasicDataType@UnDecorator@@CA?AVDName@@ABV2@@Z 0048840e f   libvcruntime:undname.obj
 0001:000877ed       ?getCallingConvention@UnDecorator@@CA?AVDName@@XZ 004887ed f   libvcruntime:undname.obj
 0001:000878c0       ?getDataIndirectType@UnDecorator@@CA?AVDName@@ABV2@PBD0H@Z 004888c0 f   libvcruntime:undname.obj
 0001:00087eaa       ?getDataIndirectType@UnDecorator@@CA?AVDName@@XZ 00488eaa f i libvcruntime:undname.obj
 0001:00087edc       ?getDataType@UnDecorator@@CA?AVDName@@PAV2@@Z 00488edc f   libvcruntime:undname.obj
 0001:00087fa1       ?getDecoratedName@UnDecorator@@CA?AVDName@@XZ 00488fa1 f   libvcruntime:undname.obj
 0001:000881e3       ?getDimension@UnDecorator@@CA?AVDName@@_N@Z 004891e3 f   libvcruntime:undname.obj
 0001:000882fc       ?getDispatchTarget@UnDecorator@@CA?AVDName@@XZ 004892fc f   libvcruntime:undname.obj
 0001:00088350       ?getECSUDataType@UnDecorator@@CA?AVDName@@XZ 00489350 f   libvcruntime:undname.obj
 0001:00088468       ?getEnumType@UnDecorator@@CA?AVDName@@XZ 00489468 f i libvcruntime:undname.obj
 0001:00088558       ?getExtendedDataIndirectType@UnDecorator@@CA?AVDName@@AAPBDAA_NH@Z 00489558 f   libvcruntime:undname.obj
 0001:0008870f       ?getExternalDataType@UnDecorator@@CA?AVDName@@ABV2@@Z 0048970f f i libvcruntime:undname.obj
 0001:00088776       ?getFunctionIndirectType@UnDecorator@@CA?AVDName@@ABV2@@Z 00489776 f   libvcruntime:undname.obj
 0001:00088b4e       ?getLastChar@DName@@QBEDXZ 00489b4e f i libvcruntime:undname.obj
 0001:00088b6e       ?getLastChar@DNameStatusNode@@UBEDXZ 00489b6e f i libvcruntime:undname.obj
 0001:00088b7a       ?getLastChar@charNode@@UBEDXZ 00489b7a f i libvcruntime:undname.obj
 0001:00088b7e       ?getLastChar@pDNameNode@@UBEDXZ 00489b7e f i libvcruntime:undname.obj
 0001:00088b8c       ?getLastChar@pairNode@@UBEDXZ 00489b8c f i libvcruntime:undname.obj
 0001:00088bc1       ?getLastChar@pcharNode@@UBEDXZ 00489bc1 f i libvcruntime:undname.obj
 0001:00088bd3       ?getLexicalFrame@UnDecorator@@CA?AVDName@@XZ 00489bd3 f i libvcruntime:undname.obj
 0001:00088c12       ?getMemory@_HeapManager@@QAEPAXIH@Z 00489c12 f   libvcruntime:undname.obj
 0001:00088c99       ?getNoexcept@UnDecorator@@CA?AVDName@@XZ 00489c99 f   libvcruntime:undname.obj
 0001:00088cde       ?getNumberOfDimensions@UnDecorator@@CAHXZ 00489cde f   libvcruntime:undname.obj
 0001:00088d3f       ?getOperatorName@UnDecorator@@CA?AVDName@@_NPA_N@Z 00489d3f f i libvcruntime:undname.obj
 0001:00089398       ?getPrimaryDataType@UnDecorator@@CA?AVDName@@ABV2@@Z 0048a398 f   libvcruntime:undname.obj
 0001:0008957c       ?getPtrRefDataType@UnDecorator@@CA?AVDName@@ABV2@H@Z 0048a57c f   libvcruntime:undname.obj
 0001:000896a5       ?getPtrRefType@UnDecorator@@CA?AVDName@@ABV2@0PBD@Z 0048a6a5 f   libvcruntime:undname.obj
 0001:0008979f       ?getRestrictionSpec@UnDecorator@@CA?AVDName@@XZ 0048a79f f   libvcruntime:undname.obj
 0001:00089898       ?getReturnType@UnDecorator@@CA?AVDName@@PAV2@@Z 0048a898 f   libvcruntime:undname.obj
 0001:000898c7       ?getScope@UnDecorator@@CA?AVDName@@XZ 0048a8c7 f   libvcruntime:undname.obj
 0001:00089c5b       ?getScopedName@UnDecorator@@CA?AVDName@@XZ 0048ac5b f   libvcruntime:undname.obj
 0001:00089d2f       ?getSignedDimension@UnDecorator@@CA?AVDName@@XZ 0048ad2f f   libvcruntime:undname.obj
 0001:00089d80       ?getString@DName@@QBEPADPAD0@Z 0048ad80 f i libvcruntime:undname.obj
 0001:00089dad       ?getString@DName@@QBEPADPADH@Z 0048adad f i libvcruntime:undname.obj
 0001:00089e03       ?getString@DNameStatusNode@@UBEPADPAD0@Z 0048ae03 f i libvcruntime:undname.obj
 0001:00089e2a       ?getString@charNode@@UBEPADPAD0@Z 0048ae2a f i libvcruntime:undname.obj
 0001:00089e3f       ?getString@pDNameNode@@UBEPADPAD0@Z 0048ae3f f i libvcruntime:undname.obj
 0001:00089e56       ?getString@pairNode@@UBEPADPAD0@Z 0048ae56 f i libvcruntime:undname.obj
 0001:00089e9c       ?getString@pcharNode@@UBEPADPAD0@Z 0048ae9c f i libvcruntime:undname.obj
 0001:00089eb7       ?getStringEncoding@UnDecorator@@CA?AVDName@@PBDH@Z 0048aeb7 f   libvcruntime:undname.obj
 0001:00089f67       ?getStringHelper@@YAPADPADPBD1H@Z 0048af67 f i libvcruntime:undname.obj
 0001:00089f9e       ?getSymbolName@UnDecorator@@CA?AVDName@@XZ 0048af9e f i libvcruntime:undname.obj
 0001:00089fe7       ?getTemplateArgumentList@UnDecorator@@CA?AVDName@@XZ 0048afe7 f   libvcruntime:undname.obj
 0001:0008a16c       ?getTemplateName@UnDecorator@@CA?AVDName@@_N@Z 0048b16c f   libvcruntime:undname.obj
 0001:0008a2ce       ?getTemplateNonTypeArgument@UnDecorator@@CA?AVDName@@XZ 0048b2ce f   libvcruntime:undname.obj
 0001:0008a624       ?getTemplateTypeArgument@UnDecorator@@CA?AVDName@@XZ 0048b624 f   libvcruntime:undname.obj
 0001:0008a6fd       ?getThisType@UnDecorator@@CA?AVDName@@XZ 0048b6fd f i libvcruntime:undname.obj
 0001:0008a730       ?getThrowTypes@UnDecorator@@CA?AVDName@@XZ 0048b730 f   libvcruntime:undname.obj
 0001:0008a753       ?getTypeEncoding@UnDecorator@@CAHXZ 0048b753 f i libvcruntime:undname.obj
 0001:0008aa7b       ?getUndecoratedName@UnDecorator@@QAEPADPADH@Z 0048ba7b f i libvcruntime:undname.obj
 0001:0008ab3f       ?getVCallThunkType@UnDecorator@@CA?AVDName@@XZ 0048bb3f f i libvcruntime:undname.obj
 0001:0008ab86       ?getVdispMapType@UnDecorator@@CA?AVDName@@ABV2@@Z 0048bb86 f i libvcruntime:undname.obj
 0001:0008abda       ?getVfTableType@UnDecorator@@CA?AVDName@@ABV2@@Z 0048bbda f i libvcruntime:undname.obj
 0001:0008ad3d       ?getZName@UnDecorator@@CA?AVDName@@_N0@Z 0048bd3d f   libvcruntime:undname.obj
 0001:0008af3c       ?length@DName@@QBEHXZ      0048bf3c f i libvcruntime:undname.obj
 0001:0008af5b       ?length@pcharNode@@UBEHXZ  0048bf5b f i libvcruntime:undname.obj
 0001:0008af5b       ?length@DNameStatusNode@@UBEHXZ 0048bf5b f i libvcruntime:undname.obj
 0001:0008af5f       ?length@pDNameNode@@UBEHXZ 0048bf5f f i libvcruntime:undname.obj
 0001:0008af6d       ?length@pairNode@@UBEHXZ   0048bf6d f i libvcruntime:undname.obj
 0001:0008afb3       ?make@DNameStatusNode@@SAPBV1@W4DNameStatus@@@Z 0048bfb3 f i libvcruntime:undname.obj
 0001:0008afcf       ?parseDecoratedName@UnDecorator@@CA?AVDName@@XZ 0048bfcf f   libvcruntime:undname.obj
 0001:0008b0ee       ___unDName                 0048c0ee f   libvcruntime:undname.obj
 0001:0008b111       ___unDNameEx               0048c111 f   libvcruntime:undname.obj
 0001:0008b1b0       __local_unwind4            0048c1b0 f   libvcruntime:exsup4.obj
 0001:0008b288       __seh_longjmp_unwind4@4    0048c288 f   libvcruntime:exsup4.obj
 0001:0008b2b0       @_EH4_CallFilterFunc@8     0048c2b0 f   libvcruntime:exsup4.obj
 0001:0008b2c8       @_EH4_TransferToHandler@8  0048c2c8 f   libvcruntime:exsup4.obj
 0001:0008b2e4       @_EH4_GlobalUnwind2@8      0048c2e4 f   libvcruntime:exsup4.obj
 0001:0008b300       @_EH4_LocalUnwind@16       0048c300 f   libvcruntime:exsup4.obj
 0001:0008b317       ___vcrt_initialize_locks   0048c317 f   libvcruntime:locks.obj
 0001:0008b353       ___vcrt_lock               0048c353 f   libvcruntime:locks.obj
 0001:0008b368       ___vcrt_uninitialize_locks 0048c368 f   libvcruntime:locks.obj
 0001:0008b397       ___vcrt_unlock             0048c397 f   libvcruntime:locks.obj
 0001:0008b4df       ___vcrt_FlsAlloc           0048c4df f   libvcruntime:winapi_downlevel.obj
 0001:0008b51a       ___vcrt_FlsFree            0048c51a f   libvcruntime:winapi_downlevel.obj
 0001:0008b555       ___vcrt_FlsGetValue        0048c555 f   libvcruntime:winapi_downlevel.obj
 0001:0008b590       ___vcrt_FlsSetValue        0048c590 f   libvcruntime:winapi_downlevel.obj
 0001:0008b5ce       ___vcrt_InitializeCriticalSectionEx 0048c5ce f   libvcruntime:winapi_downlevel.obj
 0001:0008b615       ___vcrt_initialize_winapi_thunks 0048c615 f   libvcruntime:winapi_downlevel.obj
 0001:0008b63e       ___vcrt_uninitialize_winapi_thunks 0048c63e f   libvcruntime:winapi_downlevel.obj
 0001:0008b670       _unexpected                0048c670 f   libvcruntime:unexpected.obj
 0001:0008b68d       ?GetCurrentState@__FrameHandler3@@SAHPAUEHRegistrationNode@@PAXPBU_s_FuncInfo@@@Z 0048c68d f   libvcruntime:ehstate.obj
 0001:0008b6aa       ?SetState@__FrameHandler3@@SAXPAUEHRegistrationNode@@PBU_s_FuncInfo@@H@Z 0048c6aa f   libvcruntime:ehstate.obj
 0001:0008b6c0       __global_unwind2           0048c6c0 f   libvcruntime:exsup.obj
 0001:0008b726       __local_unwind2            0048c726 f   libvcruntime:exsup.obj
 0001:0008b7aa       __abnormal_termination     0048c7aa f   libvcruntime:exsup.obj
 0001:0008b7d0       __NLG_Notify1              0048c7d0 f   libvcruntime:exsup.obj
 0001:0008b7dc       __NLG_Notify               0048c7dc f   libvcruntime:exsup.obj
 0001:0008b7f3       __NLG_Dispatch             0048c7f3     libvcruntime:exsup.obj
 0001:0008b7f3       __NLG_Dispatch2            0048c7f3     libvcruntime:exsup.obj
 0001:0008b7fb       __NLG_Call                 0048c7fb f   libvcruntime:exsup.obj
 0001:0008b7fd       __NLG_Return2              0048c7fd     libvcruntime:exsup.obj
 0001:0008b7fe       ___acrt_call_reportfault   0048c7fe f   libucrt:invalid_parameter.obj
 0001:0008b939       ___acrt_initialize_invalid_parameter_handler 0048c939 f   libucrt:invalid_parameter.obj
 0001:0008b948       __invalid_parameter        0048c948 f   libucrt:invalid_parameter.obj
 0001:0008b9c3       __invalid_parameter_noinfo 0048c9c3 f   libucrt:invalid_parameter.obj
 0001:0008b9d3       __invalid_parameter_noinfo_noreturn 0048c9d3 f   libucrt:invalid_parameter.obj
 0001:0008b9f0       __invoke_watson            0048c9f0 f   libucrt:invalid_parameter.obj
 0001:0008ba23       _malloc                    0048ca23 f   libucrt:malloc.obj
 0001:0008ba2e       _terminate                 0048ca2e f   libucrt:terminate.obj
 0001:0008be61       __dupenv_s                 0048ce61 f   libucrt:getenv.obj
 0001:0008be7f       __wgetenv                  0048ce7f f   libucrt:getenv.obj
 0001:0008be8a       _getenv                    0048ce8a f   libucrt:getenv.obj
 0001:0008be95       _getenv_s                  0048ce95 f   libucrt:getenv.obj
 0001:0008bf21       __time64                   0048cf21 f   libucrt:time.obj
 0001:0008bf63       ??0_LocaleUpdate@@QAE@QAU__crt_locale_pointers@@@Z 0048cf63 f i libucrt:strftime.obj
 0001:0008bfe6       ??$?RV<lambda_80d7abc6eae2375db70be92ccaaf9b57>@@AAV<lambda_df52180bf14694d51fdefd82613e8f07>@@V<lambda_4fa1155033dff2042363dba4e2dc3802>@@@?$__crt_seh_guarded_call@H@@QAEH$$QAV<lambda_80d7abc6eae2375db70be92ccaaf9b57>@@AAV<lambda_df52180bf14694d51fdefd82613e8f07>@@$$QAV<lambda_4fa1155033dff2042363dba4e2dc3802>@@@Z 0048cfe6 f i libucrt:output.obj
 0001:0008c037       ??$__acrt_lock_stream_and_call@V<lambda_df52180bf14694d51fdefd82613e8f07>@@@@YAHQAU_iobuf@@$$QAV<lambda_df52180bf14694d51fdefd82613e8f07>@@@Z 0048d037 f i libucrt:output.obj
 0001:0008c560       ??$count@D@formatting_buffer@__crt_stdio_output@@QBEIXZ 0048d560 f i libucrt:output.obj
 0001:0008c578       ??$count@_W@formatting_buffer@__crt_stdio_output@@QBEIXZ 0048d578 f i libucrt:output.obj
 0001:0008c591       ??$ensure_buffer_is_big_enough@D@formatting_buffer@__crt_stdio_output@@QAE_NI@Z 0048d591 f i libucrt:output.obj
 0001:0008c617       ??$is_wide_character_specifier@D@__crt_stdio_output@@YA_N_KDW4length_modifier@0@@Z 0048d617 f i libucrt:output.obj
 0001:0008c657       ??$is_wide_character_specifier@_W@__crt_stdio_output@@YA_N_K_WW4length_modifier@0@@Z 0048d657 f i libucrt:output.obj
 0001:0008c6a6       ??$scratch_data@D@formatting_buffer@__crt_stdio_output@@QAEPADXZ 0048d6a6 f i libucrt:output.obj
 0001:0008c6c4       ??$type_case_integer_parse_into_buffer@I@?$output_processor@DV?$string_output_adapter@D@__crt_stdio_output@@V?$format_validation_base@DV?$string_output_adapter@D@__crt_stdio_output@@@2@@__crt_stdio_output@@AAEXII_N@Z 0048d6c4 f i libucrt:output.obj
 0001:0008c6c4       ??$type_case_integer_parse_into_buffer@I@?$output_processor@DV?$string_output_adapter@D@__crt_stdio_output@@V?$standard_base@DV?$string_output_adapter@D@__crt_stdio_output@@@2@@__crt_stdio_output@@AAEXII_N@Z 0048d6c4 f i libucrt:output.obj
 0001:0008c6c4       ??$type_case_integer_parse_into_buffer@I@?$output_processor@DV?$stream_output_adapter@D@__crt_stdio_output@@V?$standard_base@DV?$stream_output_adapter@D@__crt_stdio_output@@@2@@__crt_stdio_output@@AAEXII_N@Z 0048d6c4 f i libucrt:output.obj
 0001:0008c736       ??$type_case_integer_parse_into_buffer@I@?$output_processor@_WV?$string_output_adapter@_W@__crt_stdio_output@@V?$standard_base@_WV?$string_output_adapter@_W@__crt_stdio_output@@@2@@__crt_stdio_output@@AAEXII_N@Z 0048d736 f i libucrt:output.obj
 0001:0008c7bc       ??$type_case_integer_parse_into_buffer@_K@?$output_processor@DV?$string_output_adapter@D@__crt_stdio_output@@V?$format_validation_base@DV?$string_output_adapter@D@__crt_stdio_output@@@2@@__crt_stdio_output@@AAEX_KI_N@Z 0048d7bc f i libucrt:output.obj
 0001:0008c7bc       ??$type_case_integer_parse_into_buffer@_K@?$output_processor@DV?$string_output_adapter@D@__crt_stdio_output@@V?$standard_base@DV?$string_output_adapter@D@__crt_stdio_output@@@2@@__crt_stdio_output@@AAEX_KI_N@Z 0048d7bc f i libucrt:output.obj
 0001:0008c7bc       ??$type_case_integer_parse_into_buffer@_K@?$output_processor@DV?$stream_output_adapter@D@__crt_stdio_output@@V?$standard_base@DV?$stream_output_adapter@D@__crt_stdio_output@@@2@@__crt_stdio_output@@AAEX_KI_N@Z 0048d7bc f i libucrt:output.obj
 0001:0008c843       ??$type_case_integer_parse_into_buffer@_K@?$output_processor@_WV?$string_output_adapter@_W@__crt_stdio_output@@V?$standard_base@_WV?$string_output_adapter@_W@__crt_stdio_output@@@2@@__crt_stdio_output@@AAEX_KI_N@Z 0048d843 f i libucrt:output.obj
 0001:0008c8de       ??$write_multiple_characters@V?$stream_output_adapter@D@__crt_stdio_output@@D@__crt_stdio_output@@YAXABV?$stream_output_adapter@D@0@DHQAH@Z 0048d8de f i libucrt:output.obj
 0001:0008c90a       ??$write_multiple_characters@V?$string_output_adapter@D@__crt_stdio_output@@D@__crt_stdio_output@@YAXABV?$string_output_adapter@D@0@DHQAH@Z 0048d90a f i libucrt:output.obj
 0001:0008c936       ??$write_multiple_characters@V?$string_output_adapter@_W@__crt_stdio_output@@D@__crt_stdio_output@@YAXABV?$string_output_adapter@_W@0@DHQAH@Z 0048d936 f i libucrt:output.obj
 0001:0008c967       ??0?$common_data@D@__crt_stdio_output@@IAE@XZ 0048d967 f i libucrt:output.obj
 0001:0008c9ae       ??0?$common_data@_W@__crt_stdio_output@@IAE@XZ 0048d9ae f i libucrt:output.obj
 0001:0008c9fa       ??0?$output_adapter_data@DV?$string_output_adapter@D@__crt_stdio_output@@@__crt_stdio_output@@IAE@ABV?$string_output_adapter@D@1@_KQBDQAU__crt_locale_pointers@@QAD@Z 0048d9fa f i libucrt:output.obj
 0001:0008c9fa       ??0?$output_adapter_data@DV?$stream_output_adapter@D@__crt_stdio_output@@@__crt_stdio_output@@IAE@ABV?$stream_output_adapter@D@1@_KQBDQAU__crt_locale_pointers@@QAD@Z 0048d9fa f i libucrt:output.obj
 0001:0008ca36       ??0?$output_adapter_data@_WV?$string_output_adapter@_W@__crt_stdio_output@@@__crt_stdio_output@@IAE@ABV?$string_output_adapter@_W@1@_KQB_WQAU__crt_locale_pointers@@QAD@Z 0048da36 f i libucrt:output.obj
 0001:0008ca72       ??1formatting_buffer@__crt_stdio_output@@QAE@XZ 0048da72 f i libucrt:output.obj
 0001:0008ca8c       ??4?$__crt_unique_heap_ptr@DU__crt_internal_free_policy@@@@QAEAAV0@$$QAV0@@Z 0048da8c f i libucrt:output.obj
 0001:0008cb71       ?crop_zeroes@__crt_stdio_output@@YAXPADQAU__crt_locale_pointers@@@Z 0048db71 f i libucrt:output.obj
 0001:0008cbc8       ?find_next_state@?$output_processor@DV?$string_output_adapter@D@__crt_stdio_output@@V?$standard_base@DV?$string_output_adapter@D@__crt_stdio_output@@@2@@__crt_stdio_output@@ABE?AW4state@2@DW432@@Z 0048dbc8 f i libucrt:output.obj
 0001:0008cbc8       ?find_next_state@?$output_processor@DV?$stream_output_adapter@D@__crt_stdio_output@@V?$standard_base@DV?$stream_output_adapter@D@__crt_stdio_output@@@2@@__crt_stdio_output@@ABE?AW4state@2@DW432@@Z 0048dbc8 f i libucrt:output.obj
 0001:0008cbfa       ?find_next_state@?$output_processor@DV?$string_output_adapter@D@__crt_stdio_output@@V?$format_validation_base@DV?$string_output_adapter@D@__crt_stdio_output@@@2@@__crt_stdio_output@@ABE?AW4state@2@DW432@@Z 0048dbfa f i libucrt:output.obj
 0001:0008cc2f       ?find_next_state@?$output_processor@_WV?$string_output_adapter@_W@__crt_stdio_output@@V?$standard_base@_WV?$string_output_adapter@_W@__crt_stdio_output@@@2@@__crt_stdio_output@@ABE?AW4state@2@_WW432@@Z 0048dc2f f i libucrt:output.obj
 0001:0008cc63       ?force_decimal_point@__crt_stdio_output@@YAXPADQAU__crt_locale_pointers@@@Z 0048dc63 f i libucrt:output.obj
 0001:0008ccbf       ?parse_int_from_format_string@?$output_processor@DV?$string_output_adapter@D@__crt_stdio_output@@V?$format_validation_base@DV?$string_output_adapter@D@__crt_stdio_output@@@2@@__crt_stdio_output@@AAE_NQAH@Z 0048dcbf f i libucrt:output.obj
 0001:0008ccbf       ?parse_int_from_format_string@?$output_processor@DV?$stream_output_adapter@D@__crt_stdio_output@@V?$standard_base@DV?$stream_output_adapter@D@__crt_stdio_output@@@2@@__crt_stdio_output@@AAE_NQAH@Z 0048dcbf f i libucrt:output.obj
 0001:0008ccbf       ?parse_int_from_format_string@?$output_processor@DV?$string_output_adapter@D@__crt_stdio_output@@V?$standard_base@DV?$string_output_adapter@D@__crt_stdio_output@@@2@@__crt_stdio_output@@AAE_NQAH@Z 0048dcbf f i libucrt:output.obj
 0001:0008cd37       ?parse_int_from_format_string@?$output_processor@_WV?$string_output_adapter@_W@__crt_stdio_output@@V?$standard_base@_WV?$string_output_adapter@_W@__crt_stdio_output@@@2@@__crt_stdio_output@@AAE_NQAH@Z 0048dd37 f i libucrt:output.obj
 0001:0008cdb1       ?process@?$output_processor@DV?$stream_output_adapter@D@__crt_stdio_output@@V?$standard_base@DV?$stream_output_adapter@D@__crt_stdio_output@@@2@@__crt_stdio_output@@QAEHXZ 0048ddb1 f i libucrt:output.obj
 0001:0008cecd       ?process@?$output_processor@DV?$string_output_adapter@D@__crt_stdio_output@@V?$format_validation_base@DV?$string_output_adapter@D@__crt_stdio_output@@@2@@__crt_stdio_output@@QAEHXZ 0048decd f i libucrt:output.obj
 0001:0008cff5       ?process@?$output_processor@DV?$string_output_adapter@D@__crt_stdio_output@@V?$standard_base@DV?$string_output_adapter@D@__crt_stdio_output@@@2@@__crt_stdio_output@@QAEHXZ 0048dff5 f i libucrt:output.obj
 0001:0008d111       ?process@?$output_processor@_WV?$string_output_adapter@_W@__crt_stdio_output@@V?$standard_base@_WV?$string_output_adapter@_W@__crt_stdio_output@@@2@@__crt_stdio_output@@QAEHXZ 0048e111 f i libucrt:output.obj
 0001:0008d231       ?state_case_flag@?$output_processor@DV?$string_output_adapter@D@__crt_stdio_output@@V?$standard_base@DV?$string_output_adapter@D@__crt_stdio_output@@@2@@__crt_stdio_output@@AAE_NXZ 0048e231 f i libucrt:output.obj
 0001:0008d231       ?state_case_flag@?$output_processor@DV?$string_output_adapter@D@__crt_stdio_output@@V?$format_validation_base@DV?$string_output_adapter@D@__crt_stdio_output@@@2@@__crt_stdio_output@@AAE_NXZ 0048e231 f i libucrt:output.obj
 0001:0008d231       ?state_case_flag@?$output_processor@DV?$stream_output_adapter@D@__crt_stdio_output@@V?$standard_base@DV?$stream_output_adapter@D@__crt_stdio_output@@@2@@__crt_stdio_output@@AAE_NXZ 0048e231 f i libucrt:output.obj
 0001:0008d26e       ?state_case_flag@?$output_processor@_WV?$string_output_adapter@_W@__crt_stdio_output@@V?$standard_base@_WV?$string_output_adapter@_W@__crt_stdio_output@@@2@@__crt_stdio_output@@AAE_NXZ 0048e26e f i libucrt:output.obj
 0001:0008d2ab       ?state_case_normal@?$output_processor@DV?$stream_output_adapter@D@__crt_stdio_output@@V?$standard_base@DV?$stream_output_adapter@D@__crt_stdio_output@@@2@@__crt_stdio_output@@AAE_NXZ 0048e2ab f i libucrt:output.obj
 0001:0008d2ca       ?state_case_normal@?$output_processor@DV?$string_output_adapter@D@__crt_stdio_output@@V?$format_validation_base@DV?$string_output_adapter@D@__crt_stdio_output@@@2@@__crt_stdio_output@@AAE_NXZ 0048e2ca f i libucrt:output.obj
 0001:0008d2ca       ?state_case_normal@?$output_processor@DV?$string_output_adapter@D@__crt_stdio_output@@V?$standard_base@DV?$string_output_adapter@D@__crt_stdio_output@@@2@@__crt_stdio_output@@AAE_NXZ 0048e2ca f i libucrt:output.obj
 0001:0008d2e9       ?state_case_normal@?$output_processor@_WV?$string_output_adapter@_W@__crt_stdio_output@@V?$standard_base@_WV?$string_output_adapter@_W@__crt_stdio_output@@@2@@__crt_stdio_output@@AAE_NXZ 0048e2e9 f i libucrt:output.obj
 0001:0008d308       ?state_case_normal_common@?$output_processor@DV?$stream_output_adapter@D@__crt_stdio_output@@V?$standard_base@DV?$stream_output_adapter@D@__crt_stdio_output@@@2@@__crt_stdio_output@@AAE_NXZ 0048e308 f i libucrt:output.obj
 0001:0008d332       ?state_case_normal_common@?$output_processor@DV?$string_output_adapter@D@__crt_stdio_output@@V?$standard_base@DV?$string_output_adapter@D@__crt_stdio_output@@@2@@__crt_stdio_output@@AAE_NXZ 0048e332 f i libucrt:output.obj
 0001:0008d332       ?state_case_normal_common@?$output_processor@DV?$string_output_adapter@D@__crt_stdio_output@@V?$format_validation_base@DV?$string_output_adapter@D@__crt_stdio_output@@@2@@__crt_stdio_output@@AAE_NXZ 0048e332 f i libucrt:output.obj
 0001:0008d35c       ?state_case_normal_common@?$output_processor@_WV?$string_output_adapter@_W@__crt_stdio_output@@V?$standard_base@_WV?$string_output_adapter@_W@__crt_stdio_output@@@2@@__crt_stdio_output@@AAE_NXZ 0048e35c f i libucrt:output.obj
 0001:0008d377       ?state_case_normal_tchar@?$output_processor@DV?$stream_output_adapter@D@__crt_stdio_output@@V?$standard_base@DV?$stream_output_adapter@D@__crt_stdio_output@@@2@@__crt_stdio_output@@AAE_ND@Z 0048e377 f i libucrt:output.obj
 0001:0008d3d8       ?state_case_normal_tchar@?$output_processor@DV?$string_output_adapter@D@__crt_stdio_output@@V?$format_validation_base@DV?$string_output_adapter@D@__crt_stdio_output@@@2@@__crt_stdio_output@@AAE_ND@Z 0048e3d8 f i libucrt:output.obj
 0001:0008d3d8       ?state_case_normal_tchar@?$output_processor@DV?$string_output_adapter@D@__crt_stdio_output@@V?$standard_base@DV?$string_output_adapter@D@__crt_stdio_output@@@2@@__crt_stdio_output@@AAE_ND@Z 0048e3d8 f i libucrt:output.obj
 0001:0008d439       ?state_case_precision@?$output_processor@DV?$string_output_adapter@D@__crt_stdio_output@@V?$format_validation_base@DV?$string_output_adapter@D@__crt_stdio_output@@@2@@__crt_stdio_output@@AAE_NXZ 0048e439 f i libucrt:output.obj
 0001:0008d439       ?state_case_precision@?$output_processor@DV?$string_output_adapter@D@__crt_stdio_output@@V?$standard_base@DV?$string_output_adapter@D@__crt_stdio_output@@@2@@__crt_stdio_output@@AAE_NXZ 0048e439 f i libucrt:output.obj
 0001:0008d439       ?state_case_precision@?$output_processor@DV?$stream_output_adapter@D@__crt_stdio_output@@V?$standard_base@DV?$stream_output_adapter@D@__crt_stdio_output@@@2@@__crt_stdio_output@@AAE_NXZ 0048e439 f i libucrt:output.obj
 0001:0008d461       ?state_case_precision@?$output_processor@_WV?$string_output_adapter@_W@__crt_stdio_output@@V?$standard_base@_WV?$string_output_adapter@_W@__crt_stdio_output@@@2@@__crt_stdio_output@@AAE_NXZ 0048e461 f i libucrt:output.obj
 0001:0008d48a       ?state_case_size@?$output_processor@DV?$stream_output_adapter@D@__crt_stdio_output@@V?$standard_base@DV?$stream_output_adapter@D@__crt_stdio_output@@@2@@__crt_stdio_output@@AAE_NXZ 0048e48a f i libucrt:output.obj
 0001:0008d5f3       ?state_case_size@?$output_processor@DV?$string_output_adapter@D@__crt_stdio_output@@V?$standard_base@DV?$string_output_adapter@D@__crt_stdio_output@@@2@@__crt_stdio_output@@AAE_NXZ 0048e5f3 f i libucrt:output.obj
 0001:0008d5f3       ?state_case_size@?$output_processor@DV?$string_output_adapter@D@__crt_stdio_output@@V?$format_validation_base@DV?$string_output_adapter@D@__crt_stdio_output@@@2@@__crt_stdio_output@@AAE_NXZ 0048e5f3 f i libucrt:output.obj
 0001:0008d75c       ?state_case_size@?$output_processor@_WV?$string_output_adapter@_W@__crt_stdio_output@@V?$standard_base@_WV?$string_output_adapter@_W@__crt_stdio_output@@@2@@__crt_stdio_output@@AAE_NXZ 0048e75c f i libucrt:output.obj
 0001:0008d8d8       ?state_case_type@?$output_processor@DV?$stream_output_adapter@D@__crt_stdio_output@@V?$standard_base@DV?$stream_output_adapter@D@__crt_stdio_output@@@2@@__crt_stdio_output@@AAE_NXZ 0048e8d8 f i libucrt:output.obj
 0001:0008db08       ?state_case_type@?$output_processor@DV?$string_output_adapter@D@__crt_stdio_output@@V?$format_validation_base@DV?$string_output_adapter@D@__crt_stdio_output@@@2@@__crt_stdio_output@@AAE_NXZ 0048eb08 f i libucrt:output.obj
 0001:0008db08       ?state_case_type@?$output_processor@DV?$string_output_adapter@D@__crt_stdio_output@@V?$standard_base@DV?$string_output_adapter@D@__crt_stdio_output@@@2@@__crt_stdio_output@@AAE_NXZ 0048eb08 f i libucrt:output.obj
 0001:0008dd38       ?state_case_type@?$output_processor@_WV?$string_output_adapter@_W@__crt_stdio_output@@V?$standard_base@_WV?$string_output_adapter@_W@__crt_stdio_output@@@2@@__crt_stdio_output@@AAE_NXZ 0048ed38 f i libucrt:output.obj
 0001:0008df96       ?state_case_width@?$output_processor@DV?$string_output_adapter@D@__crt_stdio_output@@V?$standard_base@DV?$string_output_adapter@D@__crt_stdio_output@@@2@@__crt_stdio_output@@AAE_NXZ 0048ef96 f i libucrt:output.obj
 0001:0008df96       ?state_case_width@?$output_processor@DV?$stream_output_adapter@D@__crt_stdio_output@@V?$standard_base@DV?$stream_output_adapter@D@__crt_stdio_output@@@2@@__crt_stdio_output@@AAE_NXZ 0048ef96 f i libucrt:output.obj
 0001:0008df96       ?state_case_width@?$output_processor@DV?$string_output_adapter@D@__crt_stdio_output@@V?$format_validation_base@DV?$string_output_adapter@D@__crt_stdio_output@@@2@@__crt_stdio_output@@AAE_NXZ 0048ef96 f i libucrt:output.obj
 0001:0008dfc1       ?state_case_width@?$output_processor@_WV?$string_output_adapter@_W@__crt_stdio_output@@V?$standard_base@_WV?$string_output_adapter@_W@__crt_stdio_output@@@2@@__crt_stdio_output@@AAE_NXZ 0048efc1 f i libucrt:output.obj
 0001:0008dff0       ?to_integer_size@__crt_stdio_output@@YAIW4length_modifier@1@@Z 0048eff0 f i libucrt:output.obj
 0001:0008e04c       ?type_case_Z@?$output_processor@DV?$string_output_adapter@D@__crt_stdio_output@@V?$standard_base@DV?$string_output_adapter@D@__crt_stdio_output@@@2@@__crt_stdio_output@@AAE_NXZ 0048f04c f i libucrt:output.obj
 0001:0008e04c       ?type_case_Z@?$output_processor@DV?$stream_output_adapter@D@__crt_stdio_output@@V?$standard_base@DV?$stream_output_adapter@D@__crt_stdio_output@@@2@@__crt_stdio_output@@AAE_NXZ 0048f04c f i libucrt:output.obj
 0001:0008e04c       ?type_case_Z@?$output_processor@DV?$string_output_adapter@D@__crt_stdio_output@@V?$format_validation_base@DV?$string_output_adapter@D@__crt_stdio_output@@@2@@__crt_stdio_output@@AAE_NXZ 0048f04c f i libucrt:output.obj
 0001:0008e0af       ?type_case_Z@?$output_processor@_WV?$string_output_adapter@_W@__crt_stdio_output@@V?$standard_base@_WV?$string_output_adapter@_W@__crt_stdio_output@@@2@@__crt_stdio_output@@AAE_NXZ 0048f0af f i libucrt:output.obj
 0001:0008e112       ?type_case_a@?$output_processor@DV?$stream_output_adapter@D@__crt_stdio_output@@V?$standard_base@DV?$stream_output_adapter@D@__crt_stdio_output@@@2@@__crt_stdio_output@@AAE_NXZ 0048f112 f i libucrt:output.obj
 0001:0008e112       ?type_case_a@?$output_processor@DV?$string_output_adapter@D@__crt_stdio_output@@V?$standard_base@DV?$string_output_adapter@D@__crt_stdio_output@@@2@@__crt_stdio_output@@AAE_NXZ 0048f112 f i libucrt:output.obj
 0001:0008e112       ?type_case_a@?$output_processor@DV?$string_output_adapter@D@__crt_stdio_output@@V?$format_validation_base@DV?$string_output_adapter@D@__crt_stdio_output@@@2@@__crt_stdio_output@@AAE_NXZ 0048f112 f i libucrt:output.obj
 0001:0008e26c       ?type_case_a@?$output_processor@_WV?$string_output_adapter@_W@__crt_stdio_output@@V?$standard_base@_WV?$string_output_adapter@_W@__crt_stdio_output@@@2@@__crt_stdio_output@@AAE_NXZ 0048f26c f i libucrt:output.obj
 0001:0008e3de       ?type_case_c_tchar@?$output_processor@DV?$string_output_adapter@D@__crt_stdio_output@@V?$standard_base@DV?$string_output_adapter@D@__crt_stdio_output@@@2@@__crt_stdio_output@@AAE_ND@Z 0048f3de f i libucrt:output.obj
 0001:0008e3de       ?type_case_c_tchar@?$output_processor@DV?$string_output_adapter@D@__crt_stdio_output@@V?$format_validation_base@DV?$string_output_adapter@D@__crt_stdio_output@@@2@@__crt_stdio_output@@AAE_ND@Z 0048f3de f i libucrt:output.obj
 0001:0008e3de       ?type_case_c_tchar@?$output_processor@DV?$stream_output_adapter@D@__crt_stdio_output@@V?$standard_base@DV?$stream_output_adapter@D@__crt_stdio_output@@@2@@__crt_stdio_output@@AAE_ND@Z 0048f3de f i libucrt:output.obj
 0001:0008e46e       ?type_case_c_tchar@?$output_processor@_WV?$string_output_adapter@_W@__crt_stdio_output@@V?$standard_base@_WV?$string_output_adapter@_W@__crt_stdio_output@@@2@@__crt_stdio_output@@AAE_N_W@Z 0048f46e f i libucrt:output.obj
 0001:0008e506       ?type_case_integer@?$output_processor@DV?$string_output_adapter@D@__crt_stdio_output@@V?$format_validation_base@DV?$string_output_adapter@D@__crt_stdio_output@@@2@@__crt_stdio_output@@AAE_NI_N@Z 0048f506 f i libucrt:output.obj
 0001:0008e506       ?type_case_integer@?$output_processor@DV?$stream_output_adapter@D@__crt_stdio_output@@V?$standard_base@DV?$stream_output_adapter@D@__crt_stdio_output@@@2@@__crt_stdio_output@@AAE_NI_N@Z 0048f506 f i libucrt:output.obj
 0001:0008e506       ?type_case_integer@?$output_processor@DV?$string_output_adapter@D@__crt_stdio_output@@V?$standard_base@DV?$string_output_adapter@D@__crt_stdio_output@@@2@@__crt_stdio_output@@AAE_NI_N@Z 0048f506 f i libucrt:output.obj
 0001:0008e654       ?type_case_integer@?$output_processor@_WV?$string_output_adapter@_W@__crt_stdio_output@@V?$standard_base@_WV?$string_output_adapter@_W@__crt_stdio_output@@@2@@__crt_stdio_output@@AAE_NI_N@Z 0048f654 f i libucrt:output.obj
 0001:0008e7a6       ?type_case_n@?$output_processor@_WV?$string_output_adapter@_W@__crt_stdio_output@@V?$standard_base@_WV?$string_output_adapter@_W@__crt_stdio_output@@@2@@__crt_stdio_output@@AAE_NXZ 0048f7a6 f i libucrt:output.obj
 0001:0008e7a6       ?type_case_n@?$output_processor@DV?$string_output_adapter@D@__crt_stdio_output@@V?$format_validation_base@DV?$string_output_adapter@D@__crt_stdio_output@@@2@@__crt_stdio_output@@AAE_NXZ 0048f7a6 f i libucrt:output.obj
 0001:0008e7a6       ?type_case_n@?$output_processor@DV?$string_output_adapter@D@__crt_stdio_output@@V?$standard_base@DV?$string_output_adapter@D@__crt_stdio_output@@@2@@__crt_stdio_output@@AAE_NXZ 0048f7a6 f i libucrt:output.obj
 0001:0008e7a6       ?type_case_n@?$output_processor@DV?$stream_output_adapter@D@__crt_stdio_output@@V?$standard_base@DV?$stream_output_adapter@D@__crt_stdio_output@@@2@@__crt_stdio_output@@AAE_NXZ 0048f7a6 f i libucrt:output.obj
 0001:0008e81a       ?type_case_o@?$output_processor@DV?$stream_output_adapter@D@__crt_stdio_output@@V?$standard_base@DV?$stream_output_adapter@D@__crt_stdio_output@@@2@@__crt_stdio_output@@AAE_NXZ 0048f81a f i libucrt:output.obj
 0001:0008e81a       ?type_case_o@?$output_processor@DV?$string_output_adapter@D@__crt_stdio_output@@V?$format_validation_base@DV?$string_output_adapter@D@__crt_stdio_output@@@2@@__crt_stdio_output@@AAE_NXZ 0048f81a f i libucrt:output.obj
 0001:0008e81a       ?type_case_o@?$output_processor@DV?$string_output_adapter@D@__crt_stdio_output@@V?$standard_base@DV?$string_output_adapter@D@__crt_stdio_output@@@2@@__crt_stdio_output@@AAE_NXZ 0048f81a f i libucrt:output.obj
 0001:0008e839       ?type_case_o@?$output_processor@_WV?$string_output_adapter@_W@__crt_stdio_output@@V?$standard_base@_WV?$string_output_adapter@_W@__crt_stdio_output@@@2@@__crt_stdio_output@@AAE_NXZ 0048f839 f i libucrt:output.obj
 0001:0008e858       ?type_case_p@?$output_processor@DV?$string_output_adapter@D@__crt_stdio_output@@V?$standard_base@DV?$string_output_adapter@D@__crt_stdio_output@@@2@@__crt_stdio_output@@AAE_NXZ 0048f858 f i libucrt:output.obj
 0001:0008e858       ?type_case_p@?$output_processor@DV?$stream_output_adapter@D@__crt_stdio_output@@V?$standard_base@DV?$stream_output_adapter@D@__crt_stdio_output@@@2@@__crt_stdio_output@@AAE_NXZ 0048f858 f i libucrt:output.obj
 0001:0008e858       ?type_case_p@?$output_processor@DV?$string_output_adapter@D@__crt_stdio_output@@V?$format_validation_base@DV?$string_output_adapter@D@__crt_stdio_output@@@2@@__crt_stdio_output@@AAE_NXZ 0048f858 f i libucrt:output.obj
 0001:0008e870       ?type_case_p@?$output_processor@_WV?$string_output_adapter@_W@__crt_stdio_output@@V?$standard_base@_WV?$string_output_adapter@_W@__crt_stdio_output@@@2@@__crt_stdio_output@@AAE_NXZ 0048f870 f i libucrt:output.obj
 0001:0008e888       ?type_case_s@?$output_processor@DV?$stream_output_adapter@D@__crt_stdio_output@@V?$standard_base@DV?$stream_output_adapter@D@__crt_stdio_output@@@2@@__crt_stdio_output@@AAE_NXZ 0048f888 f i libucrt:output.obj
 0001:0008e888       ?type_case_s@?$output_processor@DV?$string_output_adapter@D@__crt_stdio_output@@V?$format_validation_base@DV?$string_output_adapter@D@__crt_stdio_output@@@2@@__crt_stdio_output@@AAE_NXZ 0048f888 f i libucrt:output.obj
 0001:0008e888       ?type_case_s@?$output_processor@DV?$string_output_adapter@D@__crt_stdio_output@@V?$standard_base@DV?$string_output_adapter@D@__crt_stdio_output@@@2@@__crt_stdio_output@@AAE_NXZ 0048f888 f i libucrt:output.obj
 0001:0008e8fb       ?type_case_s@?$output_processor@_WV?$string_output_adapter@_W@__crt_stdio_output@@V?$standard_base@_WV?$string_output_adapter@_W@__crt_stdio_output@@@2@@__crt_stdio_output@@AAE_NXZ 0048f8fb f i libucrt:output.obj
 0001:0008e96f       ?type_case_s_compute_narrow_string_length@?$output_processor@_WV?$string_output_adapter@_W@__crt_stdio_output@@V?$standard_base@_WV?$string_output_adapter@_W@__crt_stdio_output@@@2@@__crt_stdio_output@@ABEHH_W@Z 0048f96f f i libucrt:output.obj
 0001:0008e9af       ?validate@?$stream_output_adapter@D@__crt_stdio_output@@QBE_NXZ 0048f9af f i libucrt:output.obj
 0001:0008e9d0       ?validate@?$string_output_adapter@_W@__crt_stdio_output@@QBE_NXZ 0048f9d0 f i libucrt:output.obj
 0001:0008e9d0       ?validate@?$c_string_character_source@_W@__crt_strtox@@QBE_NXZ 0048f9d0 f i libucrt:strtod.obj
 0001:0008e9d0       ?validate@?$string_output_adapter@D@__crt_stdio_output@@QBE_NXZ 0048f9d0 f i libucrt:output.obj
 0001:0008e9d0       ?validate@?$c_string_character_source@D@__crt_strtox@@QBE_NXZ 0048f9d0 f i libucrt:strtod.obj
 0001:0008e9eb       ?validate_and_update_state_at_end_of_format_string@?$format_validation_base@DV?$string_output_adapter@D@__crt_stdio_output@@@__crt_stdio_output@@IBE_NXZ 0048f9eb f i libucrt:output.obj
 0001:0008ea0d       ?validate_stream_is_ansi_if_required@?$__acrt_stdio_char_traits@D@@SA_NQAU_iobuf@@@Z 0048fa0d f i libucrt:output.obj
 0001:0008ea8f       ?write_character@?$stream_output_adapter@D@__crt_stdio_output@@QBEXDQAH@Z 0048fa8f f i libucrt:output.obj
 0001:0008eacc       ?write_character@?$string_output_adapter@D@__crt_stdio_output@@QBE_NDQAH@Z 0048facc f i libucrt:output.obj
 0001:0008eb0e       ?write_character@?$string_output_adapter@_W@__crt_stdio_output@@QBE_N_WQAH@Z 0048fb0e f i libucrt:output.obj
 0001:0008eb53       ?write_stored_string_tchar@?$output_processor@DV?$stream_output_adapter@D@__crt_stdio_output@@V?$standard_base@DV?$stream_output_adapter@D@__crt_stdio_output@@@2@@__crt_stdio_output@@AAE_ND@Z 0048fb53 f i libucrt:output.obj
 0001:0008ebfc       ?write_stored_string_tchar@?$output_processor@DV?$string_output_adapter@D@__crt_stdio_output@@V?$format_validation_base@DV?$string_output_adapter@D@__crt_stdio_output@@@2@@__crt_stdio_output@@AAE_ND@Z 0048fbfc f i libucrt:output.obj
 0001:0008ebfc       ?write_stored_string_tchar@?$output_processor@DV?$string_output_adapter@D@__crt_stdio_output@@V?$standard_base@DV?$string_output_adapter@D@__crt_stdio_output@@@2@@__crt_stdio_output@@AAE_ND@Z 0048fbfc f i libucrt:output.obj
 0001:0008eca5       ?write_stored_string_tchar@?$output_processor@_WV?$string_output_adapter@_W@__crt_stdio_output@@V?$standard_base@_WV?$string_output_adapter@_W@__crt_stdio_output@@@2@@__crt_stdio_output@@AAE_N_W@Z 0048fca5 f i libucrt:output.obj
 0001:0008ed31       ?write_string@?$stream_output_adapter@D@__crt_stdio_output@@QBEXQBDHQAHAAV__crt_deferred_errno_cache@@@Z 0048fd31 f i libucrt:output.obj
 0001:0008ede7       ?write_string@?$string_output_adapter@D@__crt_stdio_output@@QBEXQBDHQAHAAV__crt_deferred_errno_cache@@@Z 0048fde7 f i libucrt:output.obj
 0001:0008ee4e       ?write_string@?$string_output_adapter@_W@__crt_stdio_output@@QBEXQB_WHQAHAAV__crt_deferred_errno_cache@@@Z 0048fe4e f i libucrt:output.obj
 0001:0008eec1       ___stdio_common_vfprintf   0048fec1 f   libucrt:output.obj
 0001:0008ef38       ___stdio_common_vsprintf   0048ff38 f   libucrt:output.obj
 0001:0008ef5c       ___stdio_common_vsprintf_s 0048ff5c f   libucrt:output.obj
 0001:0008ef80       ___stdio_common_vswprintf  0048ff80 f   libucrt:output.obj
 0001:0008efa4       ___acrt_errno_from_os_error 0048ffa4 f   libucrt:errno.obj
 0001:0008efe7       ___acrt_errno_map_os_error 0048ffe7 f   libucrt:errno.obj
 0001:0008f00a       ___doserrno                0049000a f   libucrt:errno.obj
 0001:0008f01d       __errno                    0049001d f   libucrt:errno.obj
 0001:0008f030       _realloc                   00490030 f   libucrt:realloc.obj
 0001:0008f03b       _free                      0049003b f   libucrt:free.obj
 0001:0008f058       _calloc                    00490058 f   libucrt:calloc.obj
 0001:0008f063       _localeconv                00490063 f   libucrt:localeconv.obj
 0001:0008f090       _strcspn                   00490090 f   libucrt:strcspn.obj
 0001:0008f0d6       _frexp                     004900d6 f   libucrt:frexp.obj
 0001:0008f1d2       ??$assemble_floating_point_ind@N@__crt_strtox@@YAXAAN@Z 004901d2 f i libucrt:strtod.obj
 0001:0008f201       ??$assemble_floating_point_infinity@N@__crt_strtox@@YAX_NAAN@Z 00490201 f i libucrt:strtod.obj
 0001:0008f240       ??$assemble_floating_point_qnan@N@__crt_strtox@@YAX_NAAN@Z 00490240 f i libucrt:strtod.obj
 0001:0008f27f       ??$assemble_floating_point_snan@N@__crt_strtox@@YAX_NAAN@Z 0049027f f i libucrt:strtod.obj
 0001:0008f2c3       ??$assemble_floating_point_value_t@M@__crt_strtox@@YA?AW4SLD_STATUS@@_NH_KAAM@Z 004902c3 f i libucrt:strtod.obj
 0001:0008f2f3       ??$assemble_floating_point_value_t@N@__crt_strtox@@YA?AW4SLD_STATUS@@_NH_KAAN@Z 004902f3 f i libucrt:strtod.obj
 0001:0008f352       ??$assemble_floating_point_zero@N@__crt_strtox@@YAX_NAAN@Z 00490352 f i libucrt:strtod.obj
 0001:0008f41c       ??$convert_decimal_string_to_floating_type@M@__crt_strtox@@YA?AW4SLD_STATUS@@ABUfloating_point_string@0@AAM@Z 0049041c f i libucrt:strtod.obj
 0001:0008f43f       ??$convert_decimal_string_to_floating_type@N@__crt_strtox@@YA?AW4SLD_STATUS@@ABUfloating_point_string@0@AAN@Z 0049043f f i libucrt:strtod.obj
 0001:0008f462       ??$convert_hexadecimal_string_to_floating_type@M@__crt_strtox@@YA?AW4SLD_STATUS@@ABUfloating_point_string@0@AAM@Z 00490462 f i libucrt:strtod.obj
 0001:0008f485       ??$convert_hexadecimal_string_to_floating_type@N@__crt_strtox@@YA?AW4SLD_STATUS@@ABUfloating_point_string@0@AAN@Z 00490485 f i libucrt:strtod.obj
 0001:0008f4a8       ??$make_c_string_character_source@D$$T@__crt_strtox@@YA?AV?$c_string_character_source@D@0@QBD$$T@Z 004904a8 f i libucrt:atox.obj
 0001:0008f4a8       ??$make_c_string_character_source@DPAPAD@__crt_strtox@@YA?AV?$c_string_character_source@D@0@QBDQAPAD@Z 004904a8 f i libucrt:strtod.obj
 0001:0008f4a8       ??$make_c_string_character_source@_W$$T@__crt_strtox@@YA?AV?$c_string_character_source@_W@0@QB_W$$T@Z 004904a8 f i libucrt:atox.obj
 0001:0008f4a8       ??$make_c_string_character_source@_WPAPA_W@__crt_strtox@@YA?AV?$c_string_character_source@_W@0@QB_WQAPA_W@Z 004904a8 f i libucrt:strtod.obj
 0001:0008f4c3       ??$parse_floating_point@V?$c_string_character_source@D@__crt_strtox@@N@__crt_strtox@@YA?AW4SLD_STATUS@@QAU__crt_locale_pointers@@V?$c_string_character_source@D@0@QAN@Z 004904c3 f i libucrt:strtod.obj
 0001:0008f539       ??$parse_floating_point_from_source@V?$c_string_character_source@D@__crt_strtox@@@__crt_strtox@@YA?AW4floating_point_parse_result@0@QAU__crt_locale_pointers@@AAV?$c_string_character_source@D@0@AAUfloating_point_string@0@@Z 00490539 f i libucrt:strtod.obj
 0001:0008f916       ??$parse_floating_point_possible_infinity@DV?$c_string_character_source@D@__crt_strtox@@PBD@__crt_strtox@@YA?AW4floating_point_parse_result@0@AADAAV?$c_string_character_source@D@0@PBD@Z 00490916 f i libucrt:strtod.obj
 0001:0008f9b0       ??$parse_floating_point_possible_nan@DV?$c_string_character_source@D@__crt_strtox@@PBD@__crt_strtox@@YA?AW4floating_point_parse_result@0@AADAAV?$c_string_character_source@D@0@PBD@Z 004909b0 f i libucrt:strtod.obj
 0001:0008facb       ??$parse_floating_point_possible_nan_is_ind@DV?$c_string_character_source@D@__crt_strtox@@@__crt_strtox@@YA_NAADAAV?$c_string_character_source@D@0@@Z 00490acb f i libucrt:strtod.obj
 0001:0008fb07       ??$parse_floating_point_possible_nan_is_snan@DV?$c_string_character_source@D@__crt_strtox@@@__crt_strtox@@YA_NAADAAV?$c_string_character_source@D@0@@Z 00490b07 f i libucrt:strtod.obj
 0001:0008fb43       ??$parse_floating_point_write_result@M@__crt_strtox@@YA?AW4SLD_STATUS@@W4floating_point_parse_result@0@ABUfloating_point_string@0@QAM@Z 00490b43 f i libucrt:strtod.obj
 0001:0008fc53       ??$parse_floating_point_write_result@N@__crt_strtox@@YA?AW4SLD_STATUS@@W4floating_point_parse_result@0@ABUfloating_point_string@0@QAN@Z 00490c53 f i libucrt:strtod.obj
 0001:0008fd7d       ?as_double@floating_point_value@__crt_strtox@@QBEAANXZ 00490d7d f i libucrt:strtod.obj
 0001:0008fda2       ?as_float@floating_point_value@__crt_strtox@@QBEAAMXZ 00490da2 f i libucrt:strtod.obj
 0001:0008fdc7       ?assemble_floating_point_infinity@__crt_strtox@@YAX_NABVfloating_point_value@1@@Z 00490dc7 f i libucrt:strtod.obj
 0001:0008fe01       ?assemble_floating_point_value@__crt_strtox@@YA?AW4SLD_STATUS@@_KH_N1ABVfloating_point_value@1@@Z 00490e01 f i libucrt:strtod.obj
 0001:00090149       ?assemble_floating_point_value_from_big_integer@__crt_strtox@@YA?AW4SLD_STATUS@@ABUbig_integer@1@I_N1ABVfloating_point_value@1@@Z 00491149 f i libucrt:strtod.obj
 0001:000902d7       ?assemble_floating_point_zero@__crt_strtox@@YAX_NABVfloating_point_value@1@@Z 004912d7 f i libucrt:strtod.obj
 0001:0009030b       ?convert_decimal_string_to_floating_type_common@__crt_strtox@@YA?AW4SLD_STATUS@@ABUfloating_point_string@1@ABVfloating_point_value@1@@Z 0049130b f i libucrt:strtod.obj
 0001:000920ce       ?convert_hexadecimal_string_to_floating_type_common@__crt_strtox@@YA?AW4SLD_STATUS@@ABUfloating_point_string@1@ABVfloating_point_value@1@@Z 004930ce f i libucrt:strtod.obj
 0001:0009217a       ?denormal_mantissa_mask@floating_point_value@__crt_strtox@@QBE_KXZ 0049317a f i libucrt:strtod.obj
 0001:000921a0       ?divide@__crt_strtox@@YA_KAAUbig_integer@1@ABU21@@Z 004931a0 f i libucrt:strtod.obj
 0001:0009264e       ?normal_mantissa_mask@floating_point_value@__crt_strtox@@QBE_KXZ 0049364e f i libucrt:strtod.obj
 0001:00092665       ?unget@?$c_string_character_source@D@__crt_strtox@@QAEXD@Z 00493665 f i libucrt:strtod.obj
 0001:0009268d       ?unget@?$c_string_character_source@_W@__crt_strtox@@QAEX_W@Z 0049368d f i libucrt:strtod.obj
 0001:000926b9       __chvalidchk_l             004936b9 f i libucrt:strtod.obj
 0001:000926e3       __ischartype_l             004936e3 f i libucrt:strtod.obj
 0001:00092797       _strtod                    00493797 f   libucrt:strtod.obj
 0001:000927ae       ??$is_overflow_condition@K@__crt_strtox@@YA_NIK@Z 004937ae f i libucrt:strtox.obj
 0001:000927e1       ??$is_overflow_condition@_K@__crt_strtox@@YA_NI_K@Z 004937e1 f i libucrt:strtox.obj
 0001:00092824       ??$parse_integer@KV?$c_string_character_source@D@__crt_strtox@@@__crt_strtox@@YAKQAU__crt_locale_pointers@@V?$c_string_character_source@D@0@H_N@Z 00493824 f i libucrt:strtox.obj
 0001:00092a4c       ??$parse_integer@KV?$c_string_character_source@_W@__crt_strtox@@@__crt_strtox@@YAKQAU__crt_locale_pointers@@V?$c_string_character_source@_W@0@H_N@Z 00493a4c f i libucrt:strtox.obj
 0001:00093131       ??$parse_integer@_KV?$c_string_character_source@D@__crt_strtox@@@__crt_strtox@@YA_KQAU__crt_locale_pointers@@V?$c_string_character_source@D@0@H_N@Z 00494131 f i libucrt:strtox.obj
 0001:000933d9       _strtol                    004943d9 f   libucrt:strtox.obj
 0001:00093405       _strtoll                   00494405 f   libucrt:strtox.obj
 0001:00093431       _strtoul                   00494431 f   libucrt:strtox.obj
 0001:0009345d       _strtoull                  0049445d f   libucrt:strtox.obj
 0001:00093489       _wcstol                    00494489 f   libucrt:strtox.obj
 0001:000934b5       __dtest                    004944b5 f   libucrt:_test.obj
 0001:00093519       __dsign                    00494519 f   libucrt:nan.obj
 0001:000936ab       __wfopen                   004946ab f   libucrt:fopen.obj
 0001:000936c2       __wfsopen                  004946c2 f   libucrt:fopen.obj
 0001:000936cd       _fopen                     004946cd f   libucrt:fopen.obj
 0001:000936e4       ?LongLongSub@@YAJ_J0PA_J@Z 004946e4 f i libucrt:fseek.obj
 0001:0009399e       __fseeki64                 0049499e f   libucrt:fseek.obj
 0001:000939b9       _fseek                     004949b9 f   libucrt:fseek.obj
 0001:0009401a       __ftelli64                 0049501a f   libucrt:ftell.obj
 0001:00094025       __ftelli64_nolock          00495025 f   libucrt:ftell.obj
 0001:00094030       _ftell                     00495030 f   libucrt:ftell.obj
 0001:0009403b       _rewind                    0049503b f   libucrt:rewind.obj
 0001:00094109       __fread_nolock_s           00495109 f   libucrt:fread.obj
 0001:000942e3       _fread                     004952e3 f   libucrt:fread.obj
 0001:00094300       _fread_s                   00495300 f   libucrt:fread.obj
 0001:00094393       __fclose_nolock            00495393 f   libucrt:fclose.obj
 0001:00094409       _fclose                    00495409 f   libucrt:fclose.obj
 0001:00094489       ??$?RV<lambda_cd3bfd923e8d1349099e544c97b1bd8e>@@AAV<lambda_54dcfcba6f8e0c549fa430f4d53fb7dd>@@V<lambda_5e1d0fa2aa2b73b187bf8b7e1d30c7f8>@@@?$__crt_seh_guarded_call@I@@QAEI$$QAV<lambda_cd3bfd923e8d1349099e544c97b1bd8e>@@AAV<lambda_54dcfcba6f8e0c549fa430f4d53fb7dd>@@$$QAV<lambda_5e1d0fa2aa2b73b187bf8b7e1d30c7f8>@@@Z 00495489 f i libucrt:fwrite.obj
 0001:000944da       ??$__acrt_lock_stream_and_call@V<lambda_54dcfcba6f8e0c549fa430f4d53fb7dd>@@@@YAIQAU_iobuf@@$$QAV<lambda_54dcfcba6f8e0c549fa430f4d53fb7dd>@@@Z 004954da f i libucrt:fwrite.obj
 0001:00094548       __fwrite_nolock            00495548 f   libucrt:fwrite.obj
 0001:000946c1       _fwrite                    004956c1 f   libucrt:fwrite.obj
 0001:00094719       ??$?RV<lambda_2866be3712abc81a800a822484c830d8>@@AAV<lambda_39ca0ed439415581b5b15c265174cece>@@V<lambda_2b24c74d71094a6cd0cb82e44167d71b>@@@?$__crt_seh_guarded_call@X@@QAEX$$QAV<lambda_2866be3712abc81a800a822484c830d8>@@AAV<lambda_39ca0ed439415581b5b15c265174cece>@@$$QAV<lambda_2b24c74d71094a6cd0cb82e44167d71b>@@@Z 00495719 f i libucrt:fflush.obj
 0001:0009479a       ??$?RV<lambda_2cc53f568c5a2bb6f192f930a45d44ea>@@AAV<lambda_ab61a845afdef5b7c387490eaf3616ee>@@V<lambda_c2ffc0b7726aa6be21d5f0026187e748>@@@?$__crt_seh_guarded_call@X@@QAEX$$QAV<lambda_2cc53f568c5a2bb6f192f930a45d44ea>@@AAV<lambda_ab61a845afdef5b7c387490eaf3616ee>@@$$QAV<lambda_c2ffc0b7726aa6be21d5f0026187e748>@@@Z 0049579a f i libucrt:fflush.obj
 0001:0009482d       ??$?RV<lambda_6d20deecaf4856105ebacbad442d1079>@@AAV<lambda_9a32fed5bf61b6b509b2d3f6003082a1>@@V<lambda_63ea2239ed67c638ddbae41947fdf875>@@@?$__crt_seh_guarded_call@H@@QAEH$$QAV<lambda_6d20deecaf4856105ebacbad442d1079>@@AAV<lambda_9a32fed5bf61b6b509b2d3f6003082a1>@@$$QAV<lambda_63ea2239ed67c638ddbae41947fdf875>@@@Z 0049582d f i libucrt:fflush.obj
 0001:00094883       ??$__acrt_lock_and_call@V<lambda_ab61a845afdef5b7c387490eaf3616ee>@@@@YAXW4__acrt_lock_id@@$$QAV<lambda_ab61a845afdef5b7c387490eaf3616ee>@@@Z 00495883 f i libucrt:fflush.obj
 0001:000948ab       ??$__acrt_lock_stream_and_call@V<lambda_39ca0ed439415581b5b15c265174cece>@@@@YAXQAU_iobuf@@$$QAV<lambda_39ca0ed439415581b5b15c265174cece>@@@Z 004958ab f i libucrt:fflush.obj
 0001:000948d3       ??$__acrt_lock_stream_and_call@V<lambda_9a32fed5bf61b6b509b2d3f6003082a1>@@@@YAHQAU_iobuf@@$$QAV<lambda_9a32fed5bf61b6b509b2d3f6003082a1>@@@Z 004958d3 f i libucrt:fflush.obj
 0001:0009498f       ___acrt_stdio_flush_nolock 0049598f f   libucrt:fflush.obj
 0001:000949f2       __fflush_nolock            004959f2 f   libucrt:fflush.obj
 0001:00094a39       __flushall                 00495a39 f   libucrt:fflush.obj
 0001:00094a42       _fflush                    00495a42 f   libucrt:fflush.obj
 0001:00094a85       ??$?RV<lambda_70c0770dcc4f6ec6272bb01dc82d3c91>@@AAV<lambda_ca71763b3c0644891230e4f79ea54fa6>@@V<lambda_ca266f0f09348b8765c113e3a39a2bc1>@@@?$__crt_seh_guarded_call@H@@QAEH$$QAV<lambda_70c0770dcc4f6ec6272bb01dc82d3c91>@@AAV<lambda_ca71763b3c0644891230e4f79ea54fa6>@@$$QAV<lambda_ca266f0f09348b8765c113e3a39a2bc1>@@@Z 00495a85 f i libucrt:setvbuf.obj
 0001:00094ad6       ??$__acrt_lock_stream_and_call@V<lambda_ca71763b3c0644891230e4f79ea54fa6>@@@@YAHQAU_iobuf@@$$QAV<lambda_ca71763b3c0644891230e4f79ea54fa6>@@@Z 00495ad6 f i libucrt:setvbuf.obj
 0001:00094bcb       _setvbuf                   00495bcb f   libucrt:setvbuf.obj
 0001:00094c41       _fsetpos                   00495c41 f   libucrt:fsetpos.obj
 0001:00094c7c       _fgetpos                   00495c7c f   libucrt:fgetpos.obj
 0001:00094cd7       __fgetc_nolock             00495cd7 f   libucrt:fgetc.obj
 0001:00094d13       __getc_nolock              00495d13 f   libucrt:fgetc.obj
 0001:00094d1e       _fgetc                     00495d1e f   libucrt:fgetc.obj
 0001:00094e20       __ungetc_nolock            00495e20 f   libucrt:ungetc.obj
 0001:00094f0f       _ungetc                    00495f0f f   libucrt:ungetc.obj
 0001:00094f7f       __fputc_nolock             00495f7f f   libucrt:fputc.obj
 0001:00094fa8       _fputc                     00495fa8 f   libucrt:fputc.obj
 0001:000950ac       ___acrt_initialize_stdio   004960ac f   libucrt:_file.obj
 0001:00095174       ___acrt_iob_func           00496174 f   libucrt:_file.obj
 0001:00095184       ___acrt_uninitialize_stdio 00496184 f   libucrt:_file.obj
 0001:000951d0       __get_stream_buffer_pointers 004961d0 f   libucrt:_file.obj
 0001:00095216       __lock_file                00496216 f   libucrt:_file.obj
 0001:0009522a       __unlock_file              0049622a f   libucrt:_file.obj
 0001:0009533e       _system                    0049633e f   libucrt:system.obj
 0001:000954b0       __tolower_l                004964b0 f   libucrt:tolower_toupper.obj
 0001:000954ca       _tolower                   004964ca f   libucrt:tolower_toupper.obj
 0001:000954fa       _abort                     004964fa f   libucrt:abort.obj
 0001:00095664       ?release@?$__crt_unique_heap_ptr@U__acrt_thread_parameter@@Uthread_parameter_free_policy@?A0x4e93fcdd@@@@QAEXXZ 00496664 f i libucrt:thread.obj
 0001:0009569b       __beginthreadex            0049669b f   libucrt:thread.obj
 0001:00095720       __endthreadex              00496720 f   libucrt:thread.obj
 0001:0009572e       ??$?RV<lambda_0fef6fff2b5e6b53303c9058db11ae1f>@@AAV<lambda_082c17da81b0962e08c0587ee0fac50c>@@V<lambda_fa6e051aed0a38726081083cc7c328e9>@@@?$__crt_seh_guarded_call@PAD@@QAEPAD$$QAV<lambda_0fef6fff2b5e6b53303c9058db11ae1f>@@AAV<lambda_082c17da81b0962e08c0587ee0fac50c>@@$$QAV<lambda_fa6e051aed0a38726081083cc7c328e9>@@@Z 0049672e f i libucrt:setlocale.obj
 0001:0009577f       ??$__acrt_lock_and_call@V<lambda_082c17da81b0962e08c0587ee0fac50c>@@@@YAPADW4__acrt_lock_id@@$$QAV<lambda_082c17da81b0962e08c0587ee0fac50c>@@@Z 0049677f f i libucrt:setlocale.obj
 0001:000959ae       _setlocale                 004969ae f   libucrt:setlocale.obj
 0001:000959d7       ___acrt_initialize_locks   004969d7 f   libucrt:locks.obj
 0001:00095a18       ___acrt_lock               00496a18 f   libucrt:locks.obj
 0001:00095a2f       ___acrt_uninitialize_locks 00496a2f f   libucrt:locks.obj
 0001:00095a60       ___acrt_unlock             00496a60 f   libucrt:locks.obj
 0001:00095a77       __lock_locales             00496a77 f   libucrt:locks.obj
 0001:00095a80       __unlock_locales           00496a80 f   libucrt:locks.obj
 0001:00095a89       ____lc_codepage_func       00496a89 f   libucrt:initctype.obj
 0001:00095ab0       ____lc_locale_name_func    00496ab0 f   libucrt:initctype.obj
 0001:00095ad9       ____mb_cur_max_func        00496ad9 f   libucrt:initctype.obj
 0001:00095b00       ___acrt_locale_initialize_ctype 00496b00 f   libucrt:initctype.obj
 0001:00095e9e       ___pctype_func             00496e9e f   libucrt:ctype.obj
 0001:00095ec4       __isdigit_l                00496ec4 f i libucrt:_ctype.obj
 0001:00095efc       __islower_l                00496efc f i libucrt:_ctype.obj
 0001:00095f34       __isspace_l                00496f34 f i libucrt:_ctype.obj
 0001:00095f6c       __isupper_l                00496f6c f i libucrt:_ctype.obj
 0001:00095fa4       __isxdigit_l               00496fa4 f i libucrt:_ctype.obj
 0001:00095fe0       _isdigit                   00496fe0 f i libucrt:_ctype.obj
 0001:0009600d       _islower                   0049700d f i libucrt:_ctype.obj
 0001:0009603a       _isspace                   0049703a f i libucrt:_ctype.obj
 0001:00096067       _isupper                   00497067 f i libucrt:_ctype.obj
 0001:00096094       _isxdigit                  00497094 f i libucrt:_ctype.obj
 0001:000960c3       __wcsdup                   004970c3 f   libucrt:wcsdup.obj
 0001:00096124       ??$?RV<lambda_a1190e0d6749e14c62ee25fff18a7c64>@@AAV<lambda_c24b6d9e7c4576f9a5efdbd124f9441f>@@V<lambda_7c61bf524a6603d45d07015f3e907db5>@@@?$__crt_seh_guarded_call@H@@QAEH$$QAV<lambda_a1190e0d6749e14c62ee25fff18a7c64>@@AAV<lambda_c24b6d9e7c4576f9a5efdbd124f9441f>@@$$QAV<lambda_7c61bf524a6603d45d07015f3e907db5>@@@Z 00497124 f i libucrt:fputs.obj
 0001:00096175       ??$__acrt_lock_stream_and_call@V<lambda_c24b6d9e7c4576f9a5efdbd124f9441f>@@@@YAHQAU_iobuf@@$$QAV<lambda_c24b6d9e7c4576f9a5efdbd124f9441f>@@@Z 00497175 f i libucrt:fputs.obj
 0001:000961eb       _fputs                     004971eb f   libucrt:fputs.obj
 0001:000962d0       _pow                       004972d0 f   libucrt:pow.obj
 0001:00096310       __CIpow                    00497310 f   libucrt:pow.obj
 0001:0009634b       __CIpow_default            0049734b f   libucrt:pow.obj
 0001:00096364       __pow_default              00497364     libucrt:pow.obj
 0001:00096559       ___strncnt                 00497559 f   libucrt:strncnt.obj
 0001:00096575       _strnlen                   00497575 f   libucrt:strnlen.obj
 0001:0009669c       _wcsnlen                   0049769c f   libucrt:strnlen.obj
 0001:00096853       ??$__crt_time_is_leap_year@H@@YA_NH@Z 00497853 f i libucrt:wcsftime.obj
 0001:00096894       _wcscpy_s                  00497894 f   libucrt:wcscpy_s.obj
 0001:000969bd       _fgets                     004979bd f   libucrt:fgets.obj
 0001:00096a7e       ??$make_input_adapter_character_source@V?$string_input_adapter@D@__crt_stdio_input@@@__crt_strtox@@YA?AV?$input_adapter_character_source@V?$string_input_adapter@D@__crt_stdio_input@@@0@QAV?$string_input_adapter@D@__crt_stdio_input@@_KQA_N@Z 00497a7e f i libucrt:input.obj
 0001:00096a9c       ??$parse_floating_point@V?$input_adapter_character_source@V?$string_input_adapter@D@__crt_stdio_input@@@__crt_strtox@@M@__crt_strtox@@YA?AW4SLD_STATUS@@QAU__crt_locale_pointers@@V?$input_adapter_character_source@V?$string_input_adapter@D@__crt_stdio_input@@@0@QAM@Z 00497a9c f i libucrt:input.obj
 0001:00096b17       ??$parse_floating_point@V?$input_adapter_character_source@V?$string_input_adapter@D@__crt_stdio_input@@@__crt_strtox@@N@__crt_strtox@@YA?AW4SLD_STATUS@@QAU__crt_locale_pointers@@V?$input_adapter_character_source@V?$string_input_adapter@D@__crt_stdio_input@@@0@QAN@Z 00497b17 f i libucrt:input.obj
 0001:00096b92       ??$parse_floating_point_from_source@V?$input_adapter_character_source@V?$string_input_adapter@D@__crt_stdio_input@@@__crt_strtox@@@__crt_strtox@@YA?AW4floating_point_parse_result@0@QAU__crt_locale_pointers@@AAV?$input_adapter_character_source@V?$string_input_adapter@D@__crt_stdio_input@@@0@AAUfloating_point_string@0@@Z 00497b92 f i libucrt:input.obj
 0001:00096ff9       ??$parse_floating_point_possible_infinity@DV?$input_adapter_character_source@V?$string_input_adapter@D@__crt_stdio_input@@@__crt_strtox@@_K@__crt_strtox@@YA?AW4floating_point_parse_result@0@AADAAV?$input_adapter_character_source@V?$string_input_adapter@D@__crt_stdio_input@@@0@_K@Z 00497ff9 f i libucrt:input.obj
 0001:000970ba       ??$parse_floating_point_possible_nan@DV?$input_adapter_character_source@V?$string_input_adapter@D@__crt_stdio_input@@@__crt_strtox@@_K@__crt_strtox@@YA?AW4floating_point_parse_result@0@AADAAV?$input_adapter_character_source@V?$string_input_adapter@D@__crt_stdio_input@@@0@_K@Z 004980ba f i libucrt:input.obj
 0001:000971cc       ??$parse_floating_point_possible_nan_is_ind@DV?$input_adapter_character_source@V?$string_input_adapter@D@__crt_stdio_input@@@__crt_strtox@@@__crt_strtox@@YA_NAADAAV?$input_adapter_character_source@V?$string_input_adapter@D@__crt_stdio_input@@@0@@Z 004981cc f i libucrt:input.obj
 0001:00097206       ??$parse_floating_point_possible_nan_is_snan@DV?$input_adapter_character_source@V?$string_input_adapter@D@__crt_stdio_input@@@__crt_strtox@@@__crt_strtox@@YA_NAADAAV?$input_adapter_character_source@V?$string_input_adapter@D@__crt_stdio_input@@@0@@Z 00498206 f i libucrt:input.obj
 0001:00097240       ??$parse_integer@_KV?$input_adapter_character_source@V?$string_input_adapter@D@__crt_stdio_input@@@__crt_strtox@@@__crt_strtox@@YA_KQAU__crt_locale_pointers@@V?$input_adapter_character_source@V?$string_input_adapter@D@__crt_stdio_input@@@0@H_N@Z 00498240 f i libucrt:input.obj
 0001:000974f3       ??$process_floating_point_specifier_t@M@?$input_processor@DV?$string_input_adapter@D@__crt_stdio_input@@@__crt_stdio_input@@AAE_NXZ 004984f3 f i libucrt:input.obj
 0001:0009755b       ??$process_floating_point_specifier_t@N@?$input_processor@DV?$string_input_adapter@D@__crt_stdio_input@@@__crt_stdio_input@@AAE_NXZ 0049855b f i libucrt:input.obj
 0001:000975c3       ??$process_string_specifier_tchar@D@?$input_processor@DV?$string_input_adapter@D@__crt_stdio_input@@@__crt_stdio_input@@AAE_NW4conversion_mode@1@D@Z 004985c3 f i libucrt:input.obj
 0001:00097725       ??$process_string_specifier_tchar@_W@?$input_processor@DV?$string_input_adapter@D@__crt_stdio_input@@@__crt_stdio_input@@AAE_NW4conversion_mode@1@_W@Z 00498725 f i libucrt:input.obj
 0001:00097891       ??$skip_whitespace@Vstring_input_adapter@__crt_stdio_input@@D@__crt_stdio_input@@YAHAAV?$string_input_adapter@D@0@QAU__crt_locale_pointers@@@Z 00498891 f i libucrt:input.obj
 0001:000978c0       ??$write_floating_point@M@?$input_processor@DV?$string_input_adapter@D@__crt_stdio_input@@@__crt_stdio_input@@AAE_NABM@Z 004988c0 f i libucrt:input.obj
 0001:000978f7       ??$write_floating_point@N@?$input_processor@DV?$string_input_adapter@D@__crt_stdio_input@@@__crt_stdio_input@@AAE_NABN@Z 004988f7 f i libucrt:input.obj
 0001:00097934       ??0?$format_string_parser@D@__crt_stdio_input@@QAE@_KQBE@Z 00498934 f i libucrt:input.obj
 0001:0009797e       ??0?$input_adapter_character_source@V?$string_input_adapter@D@__crt_stdio_input@@@__crt_strtox@@QAE@QAV?$string_input_adapter@D@__crt_stdio_input@@_KQA_N@Z 0049897e f i libucrt:input.obj
 0001:000979af       ??0?$input_processor@DV?$string_input_adapter@D@__crt_stdio_input@@@__crt_stdio_input@@QAE@ABV?$string_input_adapter@D@1@_KQBDQAU__crt_locale_pointers@@QAD@Z 004989af f i libucrt:input.obj
 0001:00097a21       ?advance@?$format_string_parser@D@__crt_stdio_input@@QAE_NXZ 00498a21 f i libucrt:input.obj
 0001:00097b41       ?get@?$input_adapter_character_source@V?$string_input_adapter@D@__crt_stdio_input@@@__crt_strtox@@QAEDXZ 00498b41 f i libucrt:input.obj
 0001:00097b7b       ?get@?$string_input_adapter@D@__crt_stdio_input@@QAEHXZ 00498b7b f i libucrt:input.obj
 0001:00097b91       ?invert@?$scanset_buffer@E@__crt_stdio_input@@QAEXXZ 00498b91 f i libucrt:input.obj
 0001:00097baf       ?is_character_allowed_in_string@?$input_processor@DV?$string_input_adapter@D@__crt_stdio_input@@@__crt_stdio_input@@ABE_NW4conversion_mode@2@H@Z 00498baf f i libucrt:input.obj
 0001:00097bf5       ?length@?$format_string_parser@D@__crt_stdio_input@@QBEIXZ 00498bf5 f i libucrt:input.obj
 0001:00097c36       ?process@?$input_processor@DV?$string_input_adapter@D@__crt_stdio_input@@@__crt_stdio_input@@QAEHXZ 00498c36 f i libucrt:input.obj
 0001:00097cbb       ?process_character_count_specifier@?$input_processor@DV?$string_input_adapter@D@__crt_stdio_input@@@__crt_stdio_input@@AAE_NXZ 00498cbb f i libucrt:input.obj
 0001:00097cd5       ?process_conversion_specifier@?$input_processor@DV?$string_input_adapter@D@__crt_stdio_input@@@__crt_stdio_input@@AAE_NXZ 00498cd5 f i libucrt:input.obj
 0001:00097d49       ?process_floating_point_specifier@?$input_processor@DV?$string_input_adapter@D@__crt_stdio_input@@@__crt_stdio_input@@AAE_NXZ 00498d49 f i libucrt:input.obj
 0001:00097d79       ?process_integer_specifier@?$input_processor@DV?$string_input_adapter@D@__crt_stdio_input@@@__crt_stdio_input@@AAE_NI_N@Z 00498d79 f i libucrt:input.obj
 0001:00097ddf       ?process_literal_character@?$input_processor@DV?$string_input_adapter@D@__crt_stdio_input@@@__crt_stdio_input@@AAE_NXZ 00498ddf f i libucrt:input.obj
 0001:00097e15       ?process_literal_character_tchar@?$input_processor@DV?$string_input_adapter@D@__crt_stdio_input@@@__crt_stdio_input@@AAE_ND@Z 00498e15 f i libucrt:input.obj
 0001:00097e6b       ?process_state@?$input_processor@DV?$string_input_adapter@D@__crt_stdio_input@@@__crt_stdio_input@@AAE_NXZ 00498e6b f i libucrt:input.obj
 0001:00097ea1       ?process_string_specifier@?$input_processor@DV?$string_input_adapter@D@__crt_stdio_input@@@__crt_stdio_input@@AAE_NW4conversion_mode@2@@Z 00498ea1 f i libucrt:input.obj
 0001:00097ee9       ?process_whitespace@?$input_processor@DV?$string_input_adapter@D@__crt_stdio_input@@@__crt_stdio_input@@AAE_NXZ 00498ee9 f i libucrt:input.obj
 0001:00097f06       ?restore_state@?$input_adapter_character_source@V?$string_input_adapter@D@__crt_stdio_input@@@__crt_strtox@@QAE_N_K@Z 00498f06 f i libucrt:input.obj
 0001:00097f2b       ?scan_conversion_specifier@?$format_string_parser@D@__crt_stdio_input@@AAE_NXZ 00498f2b f i libucrt:input.obj
 0001:00098096       ?scan_optional_field_width@?$format_string_parser@D@__crt_stdio_input@@AAE_NXZ 00499096 f i libucrt:input.obj
 0001:00098135       ?scan_optional_length_modifier@?$format_string_parser@D@__crt_stdio_input@@AAEXXZ 00499135 f i libucrt:input.obj
 0001:00098255       ?scan_optional_literal_character_trail_bytes_tchar@?$format_string_parser@D@__crt_stdio_input@@AAE_ND@Z 00499255 f i libucrt:input.obj
 0001:000982aa       ?scan_optional_wide_modifier@?$format_string_parser@D@__crt_stdio_input@@AAEXXZ 004992aa f i libucrt:input.obj
 0001:000982c8       ?scan_scanset_range@?$format_string_parser@D@__crt_stdio_input@@AAE_NXZ 004992c8 f i libucrt:input.obj
 0001:000983d3       ?set@?$scanset_buffer@E@__crt_stdio_input@@QAEXE@Z 004993d3 f i libucrt:input.obj
 0001:000983fe       ?set_wide_for_c_s_or_scanset@?$format_string_parser@D@__crt_stdio_input@@AAEXXZ 004993fe f i libucrt:input.obj
 0001:0009841e       ?test@?$scanset_buffer@E@__crt_stdio_input@@QBE_NE@Z 0049941e f i libucrt:input.obj
 0001:0009844f       ?to_floating_point_length@__crt_stdio_input@@YAIW4length_modifier@1@@Z 0049944f f i libucrt:input.obj
 0001:00098472       ?to_integer_length@__crt_stdio_input@@YAIW4length_modifier@1@@Z 00499472 f i libucrt:input.obj
 0001:000984ca       ?unget@?$input_adapter_character_source@V?$string_input_adapter@D@__crt_stdio_input@@@__crt_strtox@@QAEXD@Z 004994ca f i libucrt:input.obj
 0001:0009850b       ?unget@?$string_input_adapter@D@__crt_stdio_input@@QAEXH@Z 0049950b f i libucrt:input.obj
 0001:0009852a       ?validate@?$format_string_parser@D@__crt_stdio_input@@QBE_NXZ 0049952a f i libucrt:input.obj
 0001:00098546       ?validate@?$input_adapter_character_source@V?$string_input_adapter@D@__crt_stdio_input@@@__crt_strtox@@QBE_NXZ 00499546 f i libucrt:input.obj
 0001:00098567       ?validate@?$string_input_adapter@D@__crt_stdio_input@@QAE_NXZ 00499567 f i libucrt:input.obj
 0001:00098589       ?write_character@?$input_processor@DV?$string_input_adapter@D@__crt_stdio_input@@@__crt_stdio_input@@AAE_NQA_WIAAPA_WAAID@Z 00499589 f i libucrt:input.obj
 0001:000985fa       ?write_integer@?$input_processor@DV?$string_input_adapter@D@__crt_stdio_input@@@__crt_stdio_input@@AAE_N_K_N@Z 004995fa f i libucrt:input.obj
 0001:00098671       ___stdio_common_vsscanf    00499671 f   libucrt:input.obj
 0001:000986a0       _strncmp                   004996a0 f   libucrt:strncmp.obj
 0001:00098800       _qsort                     00499800 f   libucrt:qsort.obj
 0001:00098b9a       ??$?RV<lambda_15bf9711507a956a9b92b72103417415>@@AAV<lambda_030c500d7a5b6af83e89b8f90c8f8b77>@@V<lambda_1b62051d9a25440eb0692d614a6db7e2>@@@?$__crt_seh_guarded_call@H@@QAEH$$QAV<lambda_15bf9711507a956a9b92b72103417415>@@AAV<lambda_030c500d7a5b6af83e89b8f90c8f8b77>@@$$QAV<lambda_1b62051d9a25440eb0692d614a6db7e2>@@@Z 00499b9a f i libucrt:stat.obj
 0001:00098beb       ??$?RV<lambda_3fbdc05a7b75ad3345997c5c88b25055>@@AAV<lambda_c178ad9533f203a2ba4f364d49dc5113>@@V<lambda_f8575de5a9e054d22965e38bf6e91640>@@@?$__crt_seh_guarded_call@H@@QAEH$$QAV<lambda_3fbdc05a7b75ad3345997c5c88b25055>@@AAV<lambda_c178ad9533f203a2ba4f364d49dc5113>@@$$QAV<lambda_f8575de5a9e054d22965e38bf6e91640>@@@Z 00499beb f i libucrt:stat.obj
 0001:00098c3c       ??$__acrt_lowio_lock_fh_and_call@V<lambda_030c500d7a5b6af83e89b8f90c8f8b77>@@@@YAHH$$QAV<lambda_030c500d7a5b6af83e89b8f90c8f8b77>@@@Z 00499c3c f i libucrt:stat.obj
 0001:00098c64       ??$__acrt_lowio_lock_fh_and_call@V<lambda_c178ad9533f203a2ba4f364d49dc5113>@@@@YAHH$$QAV<lambda_c178ad9533f203a2ba4f364d49dc5113>@@@Z 00499c64 f i libucrt:stat.obj
 0001:0009946d       ??$loctotime@AAGAAGAAGAAGAAGAAGH@?$__crt_integer_traits@_J@@SA_JAAG00000$$QAH@Z 0049a46d f i libucrt:stat.obj
 0001:00099997       __fstat64                  0049a997 f   libucrt:stat.obj
 0001:000999a2       __fstat64i32               0049a9a2 f   libucrt:stat.obj
 0001:000999ad       __stat64                   0049a9ad f   libucrt:stat.obj
 0001:00099a0d       __stat64i32                0049aa0d f   libucrt:stat.obj
 0001:00099a70       _strncpy                   0049aa70 f   libucrt:strncpy.obj
 0001:00099b94       __wtol                     0049ab94 f   libucrt:atox.obj
 0001:00099bbe       _atoi                      0049abbe f   libucrt:atox.obj
 0001:00099bbe       _atol                      0049abbe f   libucrt:atox.obj
 0001:00099be8       ??$__crt_time_elapsed_leap_years@H@@YAHH@Z 0049abe8 f i libucrt:gmtime.obj
 0001:00099e13       ___getgmtimebuf            0049ae13 f   libucrt:gmtime.obj
 0001:00099e51       __gmtime64                 0049ae51 f   libucrt:gmtime.obj
 0001:0009a1c1       __lseek                    0049b1c1 f   libucrt:lseek.obj
 0001:0009a1cc       __lseeki64                 0049b1cc f   libucrt:lseek.obj
 0001:0009a1e7       __lseeki64_nolock          0049b1e7 f   libucrt:lseek.obj
 0001:0009a202       __getpid                   0049b202 f   libucrt:getpid.obj
 0001:0009a210       _strspn                    0049b210 f   libucrt:strspn.obj
 0001:0009a2d2       __get_sys_err_msg          0049b2d2 f i libucrt:strerror.obj
 0001:0009a2f6       _strerror                  0049b2f6 f   libucrt:strerror.obj
 0001:0009a301       _strerror_s                0049b301 f   libucrt:strerror.obj
 0001:0009a366       ___sys_errlist             0049b366 f   libucrt:syserr.obj
 0001:0009a36c       ___sys_nerr                0049b36c f   libucrt:syserr.obj
 0001:0009a372       __mbspbrk                  0049b372 f   libucrt:mbspbrk.obj
 0001:0009a389       __mbspbrk_l                0049b389 f   libucrt:mbspbrk.obj
 0001:0009a460       _strpbrk                   0049b460 f   libucrt:strpbrk.obj
 0001:0009a4a0       __aligned_free             0049b4a0 f   libucrt:align.obj
 0001:0009a4a5       __aligned_free_base        0049b4a5 f   libucrt:align.obj
 0001:0009a4bf       __aligned_malloc           0049b4bf f   libucrt:align.obj
 0001:0009a4ca       __aligned_malloc_base      0049b4ca f   libucrt:align.obj
 0001:0009a4e1       __aligned_offset_malloc_base 0049b4e1 f   libucrt:align.obj
 0001:0009a6e4       __mbstowcs_s_l             0049b6e4 f   libucrt:mbstowcs.obj
 0001:0009a7c7       _mbstowcs_s                0049b7c7 f   libucrt:mbstowcs.obj
 0001:0009aa68       __wcstombs_s_l             0049ba68 f   libucrt:wcstombs.obj
 0001:0009ab40       __libm_sse2_log_precise    0049bb40 f   libucrt:log_sse2_precise.obj
 0001:0009add0       __libm_sse2_pow_precise    0049bdd0 f   libucrt:pow_sse2_precise.obj
 0001:0009b920       ___acrt_initialize_clock   0049c920 f   libucrt:clock.obj
 0001:0009b986       __seh_filter_exe           0049c986 f   libucrt:exception_filter.obj
 0001:0009baf9       ??$?RV<lambda_03b1d95aef87969028cfba75ccab2455>@@AAV<lambda_6e4b09c48022b2350581041d5f6b0c4c>@@V<lambda_22bdf7517842c4b3e53723af5aa32b9e>@@@?$__crt_seh_guarded_call@X@@QAEX$$QAV<lambda_03b1d95aef87969028cfba75ccab2455>@@AAV<lambda_6e4b09c48022b2350581041d5f6b0c4c>@@$$QAV<lambda_22bdf7517842c4b3e53723af5aa32b9e>@@@Z 0049caf9 f i libucrt:exit.obj
 0001:0009bb3c       ??$__acrt_lock_and_call@V<lambda_6e4b09c48022b2350581041d5f6b0c4c>@@@@YAXW4__acrt_lock_id@@$$QAV<lambda_6e4b09c48022b2350581041d5f6b0c4c>@@@Z 0049cb3c f i libucrt:exit.obj
 0001:0009bb64       ??$__crt_fast_encode_pointer@P6AHXZ@@YAP6AHXZQ6AHXZ@Z 0049cb64 f i libucrt:onexit.obj
 0001:0009bb64       ??$__crt_fast_encode_pointer@P6GXPAXK0@Z@@YAP6GXPAXK0@ZQ6GX0K0@Z@Z 0049cb64 f i libucrt:exit.obj
 0001:0009bb64       ??$__crt_fast_encode_pointer@P6AXH@Z@@YAP6AXH@ZQ6AXH@Z@Z 0049cb64 f i libucrt:signal.obj
 0001:0009bb64       ??$__crt_fast_encode_pointer@P6GHPA_WKJ@Z@@YAP6GHPA_WKJ@ZQ6GH0KJ@Z@Z 0049cb64 f i libucrt:winapi_thunks.obj
 0001:0009bb64       ??$__crt_fast_encode_pointer@P6AHI@Z@@YAP6AHI@ZQ6AHI@Z@Z 0049cb64 f i libucrt:new_handler.obj
 0001:0009bb64       ??$__crt_fast_encode_pointer@P6AHPAU_exception@@@Z@@YAP6AHPAU_exception@@@ZQ6AH0@Z@Z 0049cb64 f i libucrt:matherr.obj
 0001:0009bdb8       ___acrt_initialize_thread_local_exit_callback 0049cdb8 f   libucrt:exit.obj
 0001:0009bdc7       __c_exit                   0049cdc7 f   libucrt:exit.obj
 0001:0009bdd6       __cexit                    0049cdd6 f   libucrt:exit.obj
 0001:0009bde5       __exit                     0049cde5 f   libucrt:exit.obj
 0001:0009bdfb       __register_thread_local_exe_atexit_callback 0049cdfb f   libucrt:exit.obj
 0001:0009be33       _exit                      0049ce33 f   libucrt:exit.obj
 0001:0009c100       ___acrt_allocate_buffer_for_argv 0049d100 f   libucrt:argv_parsing.obj
 0001:0009c155       __configure_wide_argv      0049d155 f   libucrt:argv_parsing.obj
 0001:0009c557       ??$uninitialize@A6AXAAPAPA_W@Z@?$dual_state_global@PAPA_W@__crt_state_management@@QAEXA6AXAAPAPA_W@Z@Z 0049d557 f i libucrt:environment_initialization.obj
 0001:0009c557       ??$uninitialize@A6AXAAPAPAD@Z@?$dual_state_global@PAPAD@__crt_state_management@@QAEXA6AXAAPAPAD@Z@Z 0049d557 f i libucrt:environment_initialization.obj
 0001:0009c5cd       ?initialize@?$dual_state_global@PAU__crt_multibyte_data@@@__crt_state_management@@QAEXQAU__crt_multibyte_data@@@Z 0049d5cd f i libucrt:mbctype.obj
 0001:0009c5cd       ?initialize@?$dual_state_global@PAPA_W@__crt_state_management@@QAEXQAPA_W@Z 0049d5cd f i libucrt:environment_initialization.obj
 0001:0009c5cd       ?initialize@?$dual_state_global@PAU__crt_locale_data@@@__crt_state_management@@QAEXQAU__crt_locale_data@@@Z 0049d5cd f i libucrt:initialization.obj
 0001:0009c5cd       ?initialize@?$dual_state_global@P6AHI@Z@__crt_state_management@@QAEXQ6AHI@Z@Z 0049d5cd f i libucrt:new_handler.obj
 0001:0009c5cd       ?initialize@?$dual_state_global@J@__crt_state_management@@QAEXJ@Z 0049d5cd f i libucrt:timeset.obj
 0001:0009c5cd       ?initialize@?$dual_state_global@P6AXH@Z@__crt_state_management@@QAEXQ6AXH@Z@Z 0049d5cd f i libucrt:signal.obj
 0001:0009c5cd       ?initialize@?$dual_state_global@H@__crt_state_management@@QAEXH@Z 0049d5cd f i libucrt:timeset.obj
 0001:0009c5cd       ?initialize@?$dual_state_global@P6AHPAU_exception@@@Z@__crt_state_management@@QAEXQ6AHPAU_exception@@@Z@Z 0049d5cd f i libucrt:matherr.obj
 0001:0009c5cd       ?initialize@?$dual_state_global@PAPAD@__crt_state_management@@QAEXQAPAD@Z 0049d5cd f i libucrt:environment_initialization.obj
 0001:0009c5fe       ___dcrt_get_or_create_narrow_environment_nolock 0049d5fe f   libucrt:environment_initialization.obj
 0001:0009c603       ___dcrt_get_or_create_wide_environment_nolock 0049d603 f   libucrt:environment_initialization.obj
 0001:0009c608       ___dcrt_uninitialize_environments_nolock 0049d608 f   libucrt:environment_initialization.obj
 0001:0009c63f       __initialize_wide_environment 0049d63f f   libucrt:environment_initialization.obj
 0001:0009c644       ??$?RV<lambda_69a2805e680e0e292e8ba93315fe43a8>@@AAV<lambda_f03950bc5685219e0bcd2087efbe011e>@@V<lambda_03fcd07e894ec930e3f35da366ca99d6>@@@?$__crt_seh_guarded_call@H@@QAEH$$QAV<lambda_69a2805e680e0e292e8ba93315fe43a8>@@AAV<lambda_f03950bc5685219e0bcd2087efbe011e>@@$$QAV<lambda_03fcd07e894ec930e3f35da366ca99d6>@@@Z 0049d644 f i libucrt:onexit.obj
 0001:0009c695       ??$?RV<lambda_8e746cf0007f6ed984d6f78af1fec997>@@AAV<lambda_22ebabd17bc4fa466a2aca6d8deb888d>@@V<lambda_18ed0c0b38a6dc0daf1e7ac6d6adf05e>@@@?$__crt_seh_guarded_call@H@@QAEH$$QAV<lambda_8e746cf0007f6ed984d6f78af1fec997>@@AAV<lambda_22ebabd17bc4fa466a2aca6d8deb888d>@@$$QAV<lambda_18ed0c0b38a6dc0daf1e7ac6d6adf05e>@@@Z 0049d695 f i libucrt:onexit.obj
 0001:0009c6e6       ??$__acrt_lock_and_call@V<lambda_22ebabd17bc4fa466a2aca6d8deb888d>@@@@YAHW4__acrt_lock_id@@$$QAV<lambda_22ebabd17bc4fa466a2aca6d8deb888d>@@@Z 0049d6e6 f i libucrt:onexit.obj
 0001:0009c70e       ??$__acrt_lock_and_call@V<lambda_f03950bc5685219e0bcd2087efbe011e>@@@@YAHW4__acrt_lock_id@@$$QAV<lambda_f03950bc5685219e0bcd2087efbe011e>@@@Z 0049d70e f i libucrt:onexit.obj
 0001:0009c995       __crt_atexit               0049d995 f   libucrt:onexit.obj
 0001:0009c9ab       __execute_onexit_table     0049d9ab f   libucrt:onexit.obj
 0001:0009c9c8       __initialize_onexit_table  0049d9c8 f   libucrt:onexit.obj
 0001:0009ca05       __register_onexit_function 0049da05 f   libucrt:onexit.obj
 0001:0009cb35       ___acrt_initialize         0049db35 f   libucrt:initialization.obj
 0001:0009cb47       ___acrt_uninitialize       0049db47 f   libucrt:initialization.obj
 0001:0009cb59       ___acrt_initialize_new_handler 0049db59 f   libucrt:new_handler.obj
 0001:0009cb6d       __callnewh                 0049db6d f   libucrt:new_handler.obj
 0001:0009cbb1       __query_new_handler        0049dbb1 f   libucrt:new_handler.obj
 0001:0009cc03       __set_new_handler          0049dc03 f   libucrt:new_handler.obj
 0001:0009cc63       __query_app_type           0049dc63 f   libucrt:report_runtime_error.obj
 0001:0009cc69       __set_app_type             0049dc69 f   libucrt:report_runtime_error.obj
 0001:0009cc78       ___acrt_has_user_matherr   0049dc78 f   libucrt:matherr.obj
 0001:0009cc91       ___acrt_initialize_user_matherr 0049dc91 f   libucrt:matherr.obj
 0001:0009cca5       ___acrt_invoke_user_matherr 0049dca5 f   libucrt:matherr.obj
 0001:0009ccee       ___setusermatherr          0049dcee f   libucrt:matherr.obj
 0001:0009cd03       __get_wide_winmain_command_line 0049dd03 f   libucrt:argv_winmain.obj
 0001:0009cd49       __initterm                 0049dd49 f   libucrt:initterm.obj
 0001:0009cda5       __initterm_e               0049dda5 f   libucrt:initterm.obj
 0001:0009cdea       __get_fmode                0049ddea f   libucrt:setmode.obj
 0001:0009ce16       __set_fmode                0049de16 f   libucrt:setmode.obj
 0001:0009ce53       __setmode                  0049de53 f   libucrt:setmode.obj
 0001:0009cf61       __setmode_nolock           0049df61 f   libucrt:setmode.obj
 0001:0009d032       ??$?RV<lambda_303d0ad9bde654cb3f803a73716ce7a4>@@AAV<lambda_92fe181106aff629c9a2e25713a64969>@@V<lambda_184325e10b6cff6f771390cbceab281b>@@@?$__crt_seh_guarded_call@X@@QAEX$$QAV<lambda_303d0ad9bde654cb3f803a73716ce7a4>@@AAV<lambda_92fe181106aff629c9a2e25713a64969>@@$$QAV<lambda_184325e10b6cff6f771390cbceab281b>@@@Z 0049e032 f i libucrt:wsetlocale.obj
 0001:0009d075       ??$?RV<lambda_38c1253c7a74f5d2d430989951395d98>@@AAV<lambda_b163b37eafe0a13f2c371fafeb0365c9>@@AAV<lambda_8dff2cf36a5417162780cd64fa2883ef>@@@?$__crt_seh_guarded_call@X@@QAEX$$QAV<lambda_38c1253c7a74f5d2d430989951395d98>@@AAV<lambda_b163b37eafe0a13f2c371fafeb0365c9>@@AAV<lambda_8dff2cf36a5417162780cd64fa2883ef>@@@Z 0049e075 f i libucrt:wsetlocale.obj
 0001:0009d0b0       ??$?RV<lambda_e5124f882df8998aaf41531e079ba474>@@AAV<lambda_3e16ef9562a7dcce91392c22ab16ea36>@@V<lambda_e25ca0880e6ef98be67edffd8c599615>@@@?$__crt_seh_guarded_call@X@@QAEX$$QAV<lambda_e5124f882df8998aaf41531e079ba474>@@AAV<lambda_3e16ef9562a7dcce91392c22ab16ea36>@@$$QAV<lambda_e25ca0880e6ef98be67edffd8c599615>@@@Z 0049e0b0 f i libucrt:wsetlocale.obj
 0001:0009d0f9       ??$__acrt_lock_and_call@V<lambda_3e16ef9562a7dcce91392c22ab16ea36>@@@@YAXW4__acrt_lock_id@@$$QAV<lambda_3e16ef9562a7dcce91392c22ab16ea36>@@@Z 0049e0f9 f i libucrt:wsetlocale.obj
 0001:0009d121       ??$__acrt_lock_and_call@V<lambda_92fe181106aff629c9a2e25713a64969>@@@@YAXW4__acrt_lock_id@@$$QAV<lambda_92fe181106aff629c9a2e25713a64969>@@@Z 0049e121 f i libucrt:wsetlocale.obj
 0001:0009d149       ??$uninitialize@V<lambda_88ce03f932007f29bf8b8056cbaba4f3>@@@?$dual_state_global@PAU__crt_locale_data@@@__crt_state_management@@QAEX$$QAV<lambda_88ce03f932007f29bf8b8056cbaba4f3>@@@Z 0049e149 f i libucrt:wsetlocale.obj
 0001:0009d2d2       ___acrt_copy_locale_name   0049e2d2 f   libucrt:wsetlocale.obj
 0001:0009d338       ___acrt_set_locale_changed 0049e338 f   libucrt:wsetlocale.obj
 0001:0009d343       ___acrt_uninitialize_locale 0049e343 f   libucrt:wsetlocale.obj
 0001:0009d35a       ___lc_lctowcs              0049e35a f   libucrt:wsetlocale.obj
 0001:0009d3ca       ___lc_wcstolc              0049e3ca f   libucrt:wsetlocale.obj
 0001:0009d4f9       __configthreadlocale       0049e4f9 f   libucrt:wsetlocale.obj
 0001:0009d58a       __expandlocale             0049e58a f   libucrt:wsetlocale.obj
 0001:0009d901       __wcscats                  0049e901 f   libucrt:wsetlocale.obj
 0001:0009d942       __wsetlocale               0049e942 f   libucrt:wsetlocale.obj
 0001:0009e211       __query_new_mode           0049f211 f   libucrt:new_mode.obj
 0001:0009e217       __set_new_mode             0049f217 f   libucrt:new_mode.obj
 0001:0009e246       ___p__commode              0049f246 f   libucrt:ncommode.obj
 0001:0009e24c       __errcode                  0049f24c f   libucrt:fpexcept.obj
 0001:0009e280       __except1                  0049f280 f   libucrt:fpexcept.obj
 0001:0009e34e       __handle_exc               0049f34e f   libucrt:fpexcept.obj
 0001:0009e52e       __raise_exc                0049f52e f   libucrt:fpexcept.obj
 0001:0009e551       __raise_exc_ex             0049f551 f   libucrt:fpexcept.obj
 0001:0009e842       __set_errno_from_matherr   0049f842 f   libucrt:fpexcept.obj
 0001:0009e871       __umatherr                 0049f871 f   libucrt:fpexcept.obj
 0001:0009e913       __controlfp_s              0049f913 f   libucrt:contrlfp.obj
 0001:0009e972       __strdup                   0049f972 f   libucrt:strdup.obj
 0001:0009e972       _strdup                    0049f972 f   libucrt:strdup.obj
 0001:0009e9c8       _access                    0049f9c8 f   libucrt:access.obj
 0001:0009e9c8       __access                   0049f9c8 f   libucrt:access.obj
 0001:0009e9e0       __access_s                 0049f9e0 f   libucrt:access.obj
 0001:0009ef14       _read                      0049ff14 f   libucrt:read.obj
 0001:0009ef14       __read                     0049ff14 f   libucrt:read.obj
 0001:0009f027       __read_nolock              004a0027 f   libucrt:read.obj
 0001:0009f97e       __write                    004a097e f   libucrt:write.obj
 0001:0009f97e       _write                     004a097e f   libucrt:write.obj
 0001:0009fa69       __write_nolock             004a0a69 f   libucrt:write.obj
 0001:0009fc82       ??$?RV<lambda_218ce3db14220d0be481dae8ef3383b6>@@AAV<lambda_628dfdc04ba53c8bfc02c9951375f3f5>@@V<lambda_57dc472bd5c9d5f3b2cbca59b8a843ae>@@@?$__crt_seh_guarded_call@H@@QAEH$$QAV<lambda_218ce3db14220d0be481dae8ef3383b6>@@AAV<lambda_628dfdc04ba53c8bfc02c9951375f3f5>@@$$QAV<lambda_57dc472bd5c9d5f3b2cbca59b8a843ae>@@@Z 004a0c82 f i libucrt:close.obj
 0001:0009fd04       ??$__acrt_lowio_lock_fh_and_call@V<lambda_628dfdc04ba53c8bfc02c9951375f3f5>@@@@YAHH$$QAV<lambda_628dfdc04ba53c8bfc02c9951375f3f5>@@@Z 004a0d04 f i libucrt:close.obj
 0001:0009fd2c       _close                     004a0d2c f   libucrt:close.obj
 0001:0009fd2c       __close                    004a0d2c f   libucrt:close.obj
 0001:0009fdab       __close_nolock             004a0dab f   libucrt:close.obj
 0001:000a059a       _open                      004a159a f   libucrt:open.obj
 0001:000a059a       __open                     004a159a f   libucrt:open.obj
 0001:000a05b2       __sopen_nolock             004a15b2 f   libucrt:open.obj
 0001:000a0603       __sopen_s                  004a1603 f   libucrt:open.obj
 0001:000a0623       __wsopen_nolock            004a1623 f   libucrt:open.obj
 0001:000a094c       __wsopen_s                 004a194c f   libucrt:open.obj
 0001:000a0970       _exp                       004a1970 f   libucrt:87ctran.obj
 0001:000a09ac       __CIexp                    004a19ac f   libucrt:87ctran.obj
 0001:000a09e7       __exp_default              004a19e7 f   libucrt:87ctran.obj
 0001:000a09f1       __CIexp_default            004a19f1 f   libucrt:87ctran.obj
 0001:000a0a00       __CIsqrt                   004a1a00 f   libucrt:sqrt.obj
 0001:000a0a14       _sqrt                      004a1a14     libucrt:sqrt.obj
 0001:000a0b87       _wcsncpy_s                 004a1b87 f   libucrt:wcsncpy_s.obj
 0001:000a0b92       _strcpy_s                  004a1b92 f   libucrt:strcpy_s.obj
 0001:000a0bec       _wcsncmp                   004a1bec f   libucrt:wcsncmp.obj
 0001:000a0c26       ??$?RV<lambda_15ade71b0218206bbe3333a0c9b79046>@@AAV<lambda_da44e0f8b0f19ba52fefafb335991732>@@V<lambda_207f2d024fc103971653565357d6cd41>@@@?$__crt_seh_guarded_call@X@@QAEX$$QAV<lambda_15ade71b0218206bbe3333a0c9b79046>@@AAV<lambda_da44e0f8b0f19ba52fefafb335991732>@@$$QAV<lambda_207f2d024fc103971653565357d6cd41>@@@Z 004a1c26 f i libucrt:per_thread_data.obj
 0001:000a0c6e       ??$?RV<lambda_38edbb1296d33220d7e4dd0ed76b244a>@@AAV<lambda_5ce1d447e08cb34b2473517608e21441>@@V<lambda_fb385d3da700c9147fc39e65dd577a8c>@@@?$__crt_seh_guarded_call@X@@QAEX$$QAV<lambda_38edbb1296d33220d7e4dd0ed76b244a>@@AAV<lambda_5ce1d447e08cb34b2473517608e21441>@@$$QAV<lambda_fb385d3da700c9147fc39e65dd577a8c>@@@Z 004a1c6e f i libucrt:per_thread_data.obj
 0001:000a0ccf       ??$?RV<lambda_6affb1475c98b40b75cdec977db92e3c>@@AAV<lambda_b8d4b9c228a6ecc3f80208dbb4b4a104>@@V<lambda_608742c3c92a14382c1684fc64f96c88>@@@?$__crt_seh_guarded_call@X@@QAEX$$QAV<lambda_6affb1475c98b40b75cdec977db92e3c>@@AAV<lambda_b8d4b9c228a6ecc3f80208dbb4b4a104>@@$$QAV<lambda_608742c3c92a14382c1684fc64f96c88>@@@Z 004a1ccf f i libucrt:per_thread_data.obj
 0001:000a0d1a       ??$?RV<lambda_a7e850c220f1c8d1e6efeecdedd162c6>@@AAV<lambda_46720907175c18b6c9d2717bc0d2d362>@@V<lambda_9048902d66e8d99359bc9897bbb930a8>@@@?$__crt_seh_guarded_call@X@@QAEX$$QAV<lambda_a7e850c220f1c8d1e6efeecdedd162c6>@@AAV<lambda_46720907175c18b6c9d2717bc0d2d362>@@$$QAV<lambda_9048902d66e8d99359bc9897bbb930a8>@@@Z 004a1d1a f i libucrt:per_thread_data.obj
 0001:000a0d6a       ??$__acrt_lock_and_call@V<lambda_46720907175c18b6c9d2717bc0d2d362>@@@@YAXW4__acrt_lock_id@@$$QAV<lambda_46720907175c18b6c9d2717bc0d2d362>@@@Z 004a1d6a f i libucrt:per_thread_data.obj
 0001:000a0d92       ??$__acrt_lock_and_call@V<lambda_5ce1d447e08cb34b2473517608e21441>@@@@YAXW4__acrt_lock_id@@$$QAV<lambda_5ce1d447e08cb34b2473517608e21441>@@@Z 004a1d92 f i libucrt:per_thread_data.obj
 0001:000a0dba       ??$__acrt_lock_and_call@V<lambda_b8d4b9c228a6ecc3f80208dbb4b4a104>@@@@YAXW4__acrt_lock_id@@$$QAV<lambda_b8d4b9c228a6ecc3f80208dbb4b4a104>@@@Z 004a1dba f i libucrt:per_thread_data.obj
 0001:000a0de2       ??$__acrt_lock_and_call@V<lambda_da44e0f8b0f19ba52fefafb335991732>@@@@YAXW4__acrt_lock_id@@$$QAV<lambda_da44e0f8b0f19ba52fefafb335991732>@@@Z 004a1de2 f i libucrt:per_thread_data.obj
 0001:000a0f9a       ___acrt_getptd             004a1f9a f   libucrt:per_thread_data.obj
 0001:000a104e       ___acrt_getptd_head        004a204e f   libucrt:per_thread_data.obj
 0001:000a10e8       ___acrt_getptd_noexit      004a20e8 f   libucrt:per_thread_data.obj
 0001:000a119b       ___acrt_initialize_ptd     004a219b f   libucrt:per_thread_data.obj
 0001:000a11c7       ___acrt_uninitialize_ptd   004a21c7 f   libucrt:per_thread_data.obj
 0001:000a11e1       __malloc_base              004a21e1 f   libucrt:malloc_base.obj
 0001:000a122f       __wcsnicoll                004a222f f   libucrt:wcsnicol.obj
 0001:000a12ff       __wcsnicoll_l              004a22ff f   libucrt:wcsnicol.obj
 0001:000a142c       __strnicoll                004a242c f   libucrt:strnicol.obj
 0001:000a1455       __strnicoll_l              004a2455 f   libucrt:strnicol.obj
 0001:000a152c       ??$?RV<lambda_93797fb4802c957ba6a7f08e1250235b>@@AAV<lambda_1f3ce6bd48e0aa2e72a71c02eee379d3>@@V<lambda_56cae30c9364c9b6c15aeaac05d0418e>@@@?$__crt_seh_guarded_call@H@@QAEH$$QAV<lambda_93797fb4802c957ba6a7f08e1250235b>@@AAV<lambda_1f3ce6bd48e0aa2e72a71c02eee379d3>@@$$QAV<lambda_56cae30c9364c9b6c15aeaac05d0418e>@@@Z 004a252c f i libucrt:winapi_thunks.obj
 0001:000a15b0       ??$__acrt_lock_and_call@V<lambda_1f3ce6bd48e0aa2e72a71c02eee379d3>@@@@YAHW4__acrt_lock_id@@$$QAV<lambda_1f3ce6bd48e0aa2e72a71c02eee379d3>@@@Z 004a25b0 f i libucrt:winapi_thunks.obj
 0001:000a1886       ___acrt_AppPolicyGetProcessTerminationMethodInternal@4 004a2886 f   libucrt:winapi_thunks.obj
 0001:000a18dd       ___acrt_AppPolicyGetThreadInitializationTypeInternal@4 004a28dd f   libucrt:winapi_thunks.obj
 0001:000a1934       ___acrt_AreFileApisANSI@0  004a2934 f   libucrt:winapi_thunks.obj
 0001:000a196e       ___acrt_CompareStringEx@36 004a296e f   libucrt:winapi_thunks.obj
 0001:000a19e2       ___acrt_EnumSystemLocalesEx@16 004a29e2 f   libucrt:winapi_thunks.obj
 0001:000a1a3b       ___acrt_FlsAlloc@4         004a2a3b f   libucrt:winapi_thunks.obj
 0001:000a1a91       ___acrt_FlsFree@4          004a2a91 f   libucrt:winapi_thunks.obj
 0001:000a1ae7       ___acrt_FlsGetValue@4      004a2ae7 f   libucrt:winapi_thunks.obj
 0001:000a1b3d       ___acrt_FlsSetValue@8      004a2b3d f   libucrt:winapi_thunks.obj
 0001:000a1b96       ___acrt_GetLocaleInfoEx@16 004a2b96 f   libucrt:winapi_thunks.obj
 0001:000a1bec       ___acrt_GetSystemTimePreciseAsFileTime@4 004a2bec f   libucrt:winapi_thunks.obj
 0001:000a1c42       ___acrt_GetUserDefaultLocaleName@8 004a2c42 f   libucrt:winapi_thunks.obj
 0001:000a1c95       ___acrt_InitializeCriticalSectionEx@12 004a2c95 f   libucrt:winapi_thunks.obj
 0001:000a1cf7       ___acrt_IsValidLocaleName@4 004a2cf7 f   libucrt:winapi_thunks.obj
 0001:000a1d46       ___acrt_LCIDToLocaleName@16 004a2d46 f   libucrt:winapi_thunks.obj
 0001:000a1d9c       ___acrt_LCMapStringEx@36   004a2d9c f   libucrt:winapi_thunks.obj
 0001:000a1e10       ___acrt_LocaleNameToLCID@8 004a2e10 f   libucrt:winapi_thunks.obj
 0001:000a1e58       ___acrt_RoInitialize@4     004a2e58 f   libucrt:winapi_thunks.obj
 0001:000a1eaa       ___acrt_RoUninitialize@0   004a2eaa f   libucrt:winapi_thunks.obj
 0001:000a1ef3       ___acrt_can_use_vista_locale_apis 004a2ef3 f   libucrt:winapi_thunks.obj
 0001:000a1eff       ___acrt_eagerly_load_locale_apis 004a2eff f   libucrt:winapi_thunks.obj
 0001:000a1f36       ___acrt_initialize_winapi_thunks 004a2f36 f   libucrt:winapi_thunks.obj
 0001:000a1f5c       ___acrt_uninitialize_winapi_thunks 004a2f5c f   libucrt:winapi_thunks.obj
 0001:000a1f92       ___acrt_initialize_timeset 004a2f92 f   libucrt:timeset.obj
 0001:000a1fc9       ___daylight                004a2fc9 f   libucrt:timeset.obj
 0001:000a1fcf       ___dstbias                 004a2fcf f   libucrt:timeset.obj
 0001:000a1fd5       ___timezone                004a2fd5 f   libucrt:timeset.obj
 0001:000a1fdb       ___tzname                  004a2fdb f   libucrt:timeset.obj
 0001:000a1fe1       __get_daylight             004a2fe1 f   libucrt:timeset.obj
 0001:000a200d       __get_dstbias              004a300d f   libucrt:timeset.obj
 0001:000a2039       __get_timezone             004a3039 f   libucrt:timeset.obj
 0001:000a27ac       ___tzset                   004a37ac f   libucrt:tzset.obj
 0001:000a27fd       __isindst                  004a37fd f   libucrt:tzset.obj
 0001:000a2847       __free_base                004a3847 f   libucrt:free_base.obj
 0001:000a2881       ___acrt_update_locale_info 004a3881 f   libucrt:locale_update.obj
 0001:000a28ae       ___acrt_update_multibyte_info 004a38ae f   libucrt:locale_update.obj
 0001:000a28db       __mbtowc_l                 004a38db f   libucrt:mbtowc.obj
 0001:000a29d5       _mbtowc                    004a39d5 f   libucrt:mbtowc.obj
 0001:000a29ef       __wctomb_s_l               004a39ef f   libucrt:wctomb.obj
 0001:000a2b10       _wctomb_s                  004a3b10 f   libucrt:wctomb.obj
 0001:000a2b2d       ?__acrt_fp_classify@@YA?AW4__acrt_fp_class@@ABN@Z 004a3b2d f i libucrt:cvt.obj
 0001:000a2b95       ?__acrt_fp_is_negative@@YA_NABN@Z 004a3b95 f i libucrt:cvt.obj
 0001:000a3405       ___acrt_fp_format          004a4405 f   libucrt:cvt.obj
 0001:000a354f       __fileno                   004a454f f   libucrt:fileno.obj
 0001:000a3575       __get_printf_count_output  004a4575 f   libucrt:printf_count_output.obj
 0001:000a358a       ___acrt_stdio_begin_temporary_buffering_nolock 004a458a f   libucrt:_sftbuf.obj
 0001:000a363f       ___acrt_stdio_end_temporary_buffering_nolock 004a463f f   libucrt:_sftbuf.obj
 0001:000a37e2       ___acrt_initialize_lowio   004a47e2 f   libucrt:ioinit.obj
 0001:000a3838       ___acrt_uninitialize_lowio 004a4838 f   libucrt:ioinit.obj
 0001:000a3864       __realloc_base             004a4864 f   libucrt:realloc_base.obj
 0001:000a38cd       __calloc_base              004a48cd f   libucrt:calloc_base.obj
 0001:000a392a       __decomp                   004a492a f   libucrt:util.obj
 0001:000a39fe       __set_exp                  004a49fe f   libucrt:util.obj
 0001:000a3a2d       __sptype                   004a4a2d f   libucrt:util.obj
 0001:000a3a8b       ___set_fpsr_sse2           004a4a8b f   libucrt:fpctrl.obj
 0001:000a3b01       __clrfp                    004a4b01 f   libucrt:fpctrl.obj
 0001:000a3b14       __ctrlfp                   004a4b14 f   libucrt:fpctrl.obj
 0001:000a3b40       __set_statfp               004a4b40 f   libucrt:fpctrl.obj
 0001:000a3b9b       __statfp                   004a4b9b f   libucrt:fpctrl.obj
 0001:000a3bad       _iswctype                  004a4bad f   libucrt:iswctype.obj
 0001:000a3c0c       __isctype_l                004a4c0c f   libucrt:isctype.obj
 0001:000a3cde       _fegetround                004a4cde f   libucrt:fegetround.obj
 0001:000a3f8c       __getfpcontrolword         004a4f8c f   libucrt:_fenvutils.obj
 0001:000a3fcf       __getfpstatusword          004a4fcf f   libucrt:_fenvutils.obj
 0001:000a4077       __setfpcontrolword         004a5077 f   libucrt:_fenvutils.obj
 0001:000a40f7       __setfpstatusword          004a50f7 f   libucrt:_fenvutils.obj
 0001:000a4177       ___acrt_copy_path_to_wide_string 004a5177 f   libucrt:string_utilities.obj
 0001:000a423e       ?__acrt_stdio_allocate_stream@@YA?AV__crt_stdio_stream@@XZ 004a523e f   libucrt:stream.obj
 0001:000a429d       ?__acrt_stdio_free_stream@@YAXV__crt_stdio_stream@@@Z 004a529d f   libucrt:stream.obj
 0001:000a439b       ??$__acrt_stdio_parse_mode@D@@YA?AU__acrt_stdio_stream_mode@@QBD@Z 004a539b f i libucrt:openfile.obj
 0001:000a45cd       ??$__acrt_stdio_parse_mode@_W@@YA?AU__acrt_stdio_stream_mode@@QB_W@Z 004a55cd f i libucrt:openfile.obj
 0001:000a491b       ?__acrt_stdio_parse_mode_D@@YA_NAAU__acrt_stdio_stream_mode@@@Z 004a591b f i libucrt:openfile.obj
 0001:000a4936       ?__acrt_stdio_parse_mode_T@@YA_NAAU__acrt_stdio_stream_mode@@@Z 004a5936 f i libucrt:openfile.obj
 0001:000a4955       ?__acrt_stdio_parse_mode_b@@YA_NAAU__acrt_stdio_stream_mode@@@Z 004a5955 f i libucrt:openfile.obj
 0001:000a4975       ?__acrt_stdio_parse_mode_c@@YA_NAAU__acrt_stdio_stream_mode@@AA_N@Z 004a5975 f i libucrt:openfile.obj
 0001:000a4997       ?__acrt_stdio_parse_mode_n@@YA_NAAU__acrt_stdio_stream_mode@@AA_N@Z 004a5997 f i libucrt:openfile.obj
 0001:000a49b9       ?__acrt_stdio_parse_mode_plus@@YA_NAAU__acrt_stdio_stream_mode@@AA_N@Z 004a59b9 f i libucrt:openfile.obj
 0001:000a49ee       ?__acrt_stdio_parse_mode_t@@YA_NAAU__acrt_stdio_stream_mode@@@Z 004a59ee f i libucrt:openfile.obj
 0001:000a4a0e       __openfile                 004a5a0e f   libucrt:openfile.obj
 0001:000a4a19       __wopenfile                004a5a19 f   libucrt:openfile.obj
 0001:000a4ba7       ___acrt_stdio_refill_and_read_narrow_nolock 004a5ba7 f   libucrt:_filbuf.obj
 0001:000a4bb2       ___acrt_stdio_free_buffer_nolock 004a5bb2 f   libucrt:_freebuf.obj
 0001:000a4dcd       ___acrt_stdio_flush_and_write_narrow_nolock 004a5dcd f   libucrt:_flsbuf.obj
 0001:000a4dd8       ??$?RV<lambda_9e9de3de5fa147e2223d7db92bc10aa6>@@AAV<lambda_38ce7e780aa69e748d6df282ebc68efe>@@V<lambda_8ca6da459f0f6780f1cff60fdc3d00e5>@@@?$__crt_seh_guarded_call@H@@QAEH$$QAV<lambda_9e9de3de5fa147e2223d7db92bc10aa6>@@AAV<lambda_38ce7e780aa69e748d6df282ebc68efe>@@$$QAV<lambda_8ca6da459f0f6780f1cff60fdc3d00e5>@@@Z 004a5dd8 f i libucrt:commit.obj
 0001:000a4e70       ??$__acrt_lowio_lock_fh_and_call@V<lambda_38ce7e780aa69e748d6df282ebc68efe>@@@@YAHH$$QAV<lambda_38ce7e780aa69e748d6df282ebc68efe>@@@Z 004a5e70 f i libucrt:commit.obj
 0001:000a4e98       __commit                   004a5e98 f   libucrt:commit.obj
 0001:000a4f07       ___acrt_stdio_allocate_buffer_nolock 004a5f07 f   libucrt:_getbuf.obj
 0001:000a4f64       __fcloseall                004a5f64 f   libucrt:closeall.obj
 0001:000a5004       ??$?RV<lambda_0d12ecb3bf3ca5a4f1a42c640a7c22e0>@@AAV<lambda_241ee9115c0d92402402ee49b68a53b6>@@V<lambda_c39bc7ceba6248164186568028d32970>@@@?$__crt_seh_guarded_call@_N@@QAE_N$$QAV<lambda_0d12ecb3bf3ca5a4f1a42c640a7c22e0>@@AAV<lambda_241ee9115c0d92402402ee49b68a53b6>@@$$QAV<lambda_c39bc7ceba6248164186568028d32970>@@@Z 004a6004 f i libucrt:spawnv.obj
 0001:000a5055       ??$__acrt_lock_and_call@V<lambda_241ee9115c0d92402402ee49b68a53b6>@@@@YA_NW4__acrt_lock_id@@$$QAV<lambda_241ee9115c0d92402402ee49b68a53b6>@@@Z 004a6055 f i libucrt:spawnv.obj
 0001:000a55fe       __spawnve                  004a65fe f   libucrt:spawnv.obj
 0001:000a58a8       __spawnvpe                 004a68a8 f   libucrt:spawnvp.obj
 0001:000a58b3       __waccess_s                004a68b3 f   libucrt:waccess.obj
 0001:000a5973       __isleadbyte_l             004a6973 f i libucrt:_wctype.obj
 0001:000a5bc9       ___acrt_LCMapStringA       004a6bc9 f   libucrt:lcmapstringa.obj
 0001:000a5c14       ??$?RV<lambda_cbab9ec6f41b0180b23cc171c22676b0>@@AAV<lambda_44731a7d0e6d81c3e6aa82d741081786>@@V<lambda_4b292cb8dd18144e164572427af410ab>@@@?$__crt_seh_guarded_call@P6AXH@Z@@QAEP6AXH@Z$$QAV<lambda_cbab9ec6f41b0180b23cc171c22676b0>@@AAV<lambda_44731a7d0e6d81c3e6aa82d741081786>@@$$QAV<lambda_4b292cb8dd18144e164572427af410ab>@@@Z 004a6c14 f i libucrt:signal.obj
 0001:000a5c6e       ??$__acrt_lock_and_call@V<lambda_44731a7d0e6d81c3e6aa82d741081786>@@@@YAP6AXH@ZW4__acrt_lock_id@@$$QAV<lambda_44731a7d0e6d81c3e6aa82d741081786>@@@Z 004a6c6e f i libucrt:signal.obj
 0001:000a5ddf       ___acrt_get_sigabrt_handler 004a6ddf f   libucrt:signal.obj
 0001:000a5df6       ___acrt_initialize_signal_handlers 004a6df6 f   libucrt:signal.obj
 0001:000a5e31       ___fpecode                 004a6e31 f   libucrt:signal.obj
 0001:000a5e3a       _raise                     004a6e3a f   libucrt:signal.obj
 0001:000a6042       _signal                    004a7042 f   libucrt:signal.obj
 0001:000a61f4       ___acrt_get_begin_thread_init_policy 004a71f4 f   libucrt:win_policies.obj
 0001:000a6226       ___acrt_get_process_end_policy 004a7226 f   libucrt:win_policies.obj
 0001:000a6341       ___acrt_GetLocaleInfoA     004a7341 f   libucrt:getlocaleinfoa.obj
 0001:000a64f3       ___acrt_GetStringTypeA     004a74f3 f   libucrt:getstringtypea.obj
 0001:000a6610       __fpclass                  004a7610 f   libucrt:ieeemisc.obj
 0001:000a66b4       ___acrt_initialize_sse2    004a76b4 f   libucrt:mathfcns.obj
 0001:000a66d0       __CIpow_pentium4           004a76d0 f   libucrt:pow_pentium4.obj
 0001:000a66e9       __pow_pentium4             004a76e9     libucrt:pow_pentium4.obj
 0001:000a7201       __fFEXP                    004a8201     libucrt:87tran.obj
 0001:000a7258       __rtinfpopse               004a8258     libucrt:87tran.obj
 0001:000a725a       __rtinfnpopse              004a825a     libucrt:87tran.obj
 0001:000a726a       __fFLN                     004a826a     libucrt:87tran.obj
 0001:000a731f       __rtinfpop                 004a831f     libucrt:87tran.obj
 0001:000a7321       __rtinfnpop                004a8321     libucrt:87tran.obj
 0001:000a733e       __ffexpm1                  004a833e     libucrt:87tran.obj
 0001:000a73f0       __trandisp1                004a83f0 f   libucrt:87disp.obj
 0001:000a7457       __trandisp2                004a8457 f   libucrt:87disp.obj
 0001:000a74e3       __rttospopde               004a84e3     libucrt:87disp.obj
 0001:000a74e8       __rttospop                 004a84e8     libucrt:87disp.obj
 0001:000a74ea       __rtnospop                 004a84ea     libucrt:87disp.obj
 0001:000a74ec       __rttosnpop                004a84ec     libucrt:87disp.obj
 0001:000a74ed       __rtnospopde               004a84ed     libucrt:87disp.obj
 0001:000a74f4       __rtzeropop                004a84f4     libucrt:87disp.obj
 0001:000a74f6       __rtzeronpop               004a84f6     libucrt:87disp.obj
 0001:000a74fb       __rtzerospop               004a84fb     libucrt:87disp.obj
 0001:000a7508       __rtonepop                 004a8508     libucrt:87disp.obj
 0001:000a750a       __rtonenpop                004a850a     libucrt:87disp.obj
 0001:000a750f       __tosnan1                  004a850f     libucrt:87disp.obj
 0001:000a753a       __nosnan2                  004a853a     libucrt:87disp.obj
 0001:000a753c       __tosnan2                  004a853c     libucrt:87disp.obj
 0001:000a7564       __nan2                     004a8564     libucrt:87disp.obj
 0001:000a75a3       __rtindfpop                004a85a3     libucrt:87disp.obj
 0001:000a75a5       __rtindfnpop               004a85a5     libucrt:87disp.obj
 0001:000a75b6       __rttosnpopde              004a85b6     libucrt:87disp.obj
 0001:000a75c0       __rtatan2inf               004a85c0     libucrt:87disp.obj
 0001:000a75dd       __rtchsifneg               004a85dd     libucrt:87disp.obj
 0001:000a75f0       __startTwoArgErrorHandling 004a85f0 f   libucrt:genexcep.obj
 0001:000a7607       __startOneArgErrorHandling 004a8607 f   libucrt:genexcep.obj
 0001:000a7650       __twoToTOS                 004a8650 f   libucrt:common.obj
 0001:000a7665       __load_CW                  004a8665 f   libucrt:common.obj
 0001:000a767c       __convertTOStoQNaN         004a867c f   libucrt:common.obj
 0001:000a7695       __fload_withFB             004a8695 f   libucrt:common.obj
 0001:000a76d8       __checkTOS_withFB          004a86d8 f   libucrt:common.obj
 0001:000a76ee       __fast_exit                004a86ee f   libucrt:common.obj
 0001:000a76fb       __math_exit                004a86fb f   libucrt:common.obj
 0001:000a7725       __check_overflow_exit      004a8725 f   libucrt:common.obj
 0001:000a7739       __check_range_exit         004a8739 f   libucrt:common.obj
 0001:000a77dc       __d_inttype                004a87dc f   libucrt:powhlp.obj
 0001:000a7846       __powhlp                   004a8846 f   libucrt:powhlp.obj
 0001:000a7971       __wcsicmp                  004a8971 f   libucrt:wcsicmp.obj
 0001:000a7a06       __wcsicmp_l                004a8a06 f   libucrt:wcsicmp.obj
 0001:000a7b13       __getdrive                 004a8b13 f   libucrt:drive.obj
 0001:000a7c8e       __wfullpath                004a8c8e f   libucrt:fullpath.obj
 0001:000a7ce4       _wcspbrk                   004a8ce4 f   libucrt:wcspbrk.obj
 0001:000a7d29       ___acrt_lowio_create_handle_array 004a8d29 f   libucrt:osfinfo.obj
 0001:000a7da3       ___acrt_lowio_destroy_handle_array 004a8da3 f   libucrt:osfinfo.obj
 0001:000a7dd8       ___acrt_lowio_ensure_fh_exists 004a8dd8 f   libucrt:osfinfo.obj
 0001:000a7e70       ___acrt_lowio_lock_fh      004a8e70 f   libucrt:osfinfo.obj
 0001:000a7e93       ___acrt_lowio_set_os_handle 004a8e93 f   libucrt:osfinfo.obj
 0001:000a7f27       ___acrt_lowio_unlock_fh    004a8f27 f   libucrt:osfinfo.obj
 0001:000a7f4a       __alloc_osfhnd             004a8f4a f   libucrt:osfinfo.obj
 0001:000a805c       __free_osfhnd              004a905c f   libucrt:osfinfo.obj
 0001:000a80ed       __get_osfhandle            004a90ed f   libucrt:osfinfo.obj
 0001:000a8339       ?__crt_time_is_day_valid@@YA_NHHH@Z 004a9339 f i libucrt:loctotime.obj
 0001:000a8380       ___loctotime64_t           004a9380 f   libucrt:loctotime.obj
 0001:000a843c       _strncpy_s                 004a943c f   libucrt:strncpy_s.obj
 0001:000a8447       __msize                    004a9447 f   libucrt:msize.obj
 0001:000a8452       __msize_base               004a9452 f   libucrt:msize.obj
 0001:000a8485       ___libm_error_support      004a9485 f   libucrt:libm_error.obj
 0001:000a86a0       _log                       004a96a0 f   libucrt:log.obj
 0001:000a86e0       __CIlog                    004a96e0 f   libucrt:log.obj
 0001:000a871b       __CIlog_default            004a971b f   libucrt:log.obj
 0001:000a872f       __log_default              004a972f     libucrt:log.obj
 0001:000a8d13       ___acrt_expand_wide_argv_wildcards 004a9d13 f   libucrt:argv_wildcards.obj
 0001:000a8d1e       ??$?RV<lambda_ceb1ee4838e85a9d631eb091e2fbe199>@@AAV<lambda_ae742caa10f662c28703da3d2ea5e57e>@@V<lambda_cd08b5d6af4937fe54fc07d0c9bf6b37>@@@?$__crt_seh_guarded_call@X@@QAEX$$QAV<lambda_ceb1ee4838e85a9d631eb091e2fbe199>@@AAV<lambda_ae742caa10f662c28703da3d2ea5e57e>@@$$QAV<lambda_cd08b5d6af4937fe54fc07d0c9bf6b37>@@@Z 004a9d1e f i libucrt:mbctype.obj
 0001:000a8d61       ??$__acrt_lock_and_call@V<lambda_ae742caa10f662c28703da3d2ea5e57e>@@@@YAXW4__acrt_lock_id@@$$QAV<lambda_ae742caa10f662c28703da3d2ea5e57e>@@@Z 004a9d61 f i libucrt:mbctype.obj
 0001:000a9256       ___acrt_initialize_multibyte 004aa256 f   libucrt:mbctype.obj
 0001:000a92a3       ___acrt_update_thread_multibyte_data 004aa2a3 f   libucrt:mbctype.obj
 0001:000a92b7       __setmbcp_nolock           004aa2b7 f   libucrt:mbctype.obj
 0001:000a94a8       ___acrt_initialize_command_line 004aa4a8 f   libucrt:argv_data.obj
 0001:000a94f8       ___dcrt_get_narrow_environment_from_os 004aa4f8 f   libucrt:get_environment_from_os.obj
 0001:000a957b       ___dcrt_get_wide_environment_from_os 004aa57b f   libucrt:get_environment_from_os.obj
 0001:000a9ca8       ___dcrt_set_variable_in_narrow_environment_nolock 004aaca8 f   libucrt:setenv.obj
 0001:000a9cb3       ___dcrt_set_variable_in_wide_environment_nolock 004aacb3 f   libucrt:setenv.obj
 0001:000a9cbe       __recalloc_base            004aacbe f   libucrt:recalloc.obj
 0001:000a9d2b       ___acrt_initialize_heap    004aad2b f   libucrt:heap_handle.obj
 0001:000a9d3c       ___acrt_uninitialize_heap  004aad3c f   libucrt:heap_handle.obj
 0001:000a9d46       ___acrt_execute_initializers 004aad46 f   libucrt:shared_initialization.obj
 0001:000a9dc9       ___acrt_execute_uninitializers 004aadc9 f   libucrt:shared_initialization.obj
 0001:000a9e16       _wcscat_s                  004aae16 f   libucrt:wcscat_s.obj
 0001:000a9e8b       ___acrt_locale_free_monetary 004aae8b f   libucrt:initmon.obj
 0001:000a9f89       ___acrt_locale_initialize_monetary 004aaf89 f   libucrt:initmon.obj
 0001:000aa345       ___acrt_locale_free_numeric 004ab345 f   libucrt:initnum.obj
 0001:000aa3ae       ___acrt_locale_initialize_numeric 004ab3ae f   libucrt:initnum.obj
 0001:000aa883       ___acrt_locale_free_time   004ab883 f   libucrt:inittime.obj
 0001:000aa967       ___acrt_locale_initialize_time 004ab967 f   libucrt:inittime.obj
 0001:000aa9e6       _wcscspn                   004ab9e6 f   libucrt:wcscspn.obj
 0001:000aaa36       ___acrt_add_locale_ref     004aba36 f   libucrt:locale_refcounting.obj
 0001:000aaab3       ___acrt_free_locale        004abab3 f   libucrt:locale_refcounting.obj
 0001:000aabfd       ___acrt_locale_add_lc_time_reference 004abbfd f   libucrt:locale_refcounting.obj
 0001:000aac26       ___acrt_locale_free_lc_time_if_unreferenced 004abc26 f   libucrt:locale_refcounting.obj
 0001:000aac56       ___acrt_locale_release_lc_time_reference 004abc56 f   libucrt:locale_refcounting.obj
 0001:000aac7f       ___acrt_release_locale_ref 004abc7f f   libucrt:locale_refcounting.obj
 0001:000aad00       ___acrt_update_thread_locale_data 004abd00 f   libucrt:locale_refcounting.obj
 0001:000aad77       __updatetlocinfoEx_nolock  004abd77 f   libucrt:locale_refcounting.obj
 0001:000ab4c5       ___acrt_get_qualified_locale 004ac4c5 f   libucrt:get_qualified_locale.obj
 0001:000abdfd       ___acrt_get_qualified_locale_downlevel 004acdfd f   libucrt:getqloc_downlevel.obj
 0001:000ac0af       __clearfp                  004ad0af f   libucrt:ieee87.obj
 0001:000ac18d       __control87                004ad18d f   libucrt:ieee87.obj
 0001:000ac528       __isatty                   004ad528 f   libucrt:isatty.obj
 0001:000ac57e       __putwch_nolock            004ad57e f   libucrt:putwch.obj
 0001:000ac5c3       __chsize_nolock            004ad5c3 f   libucrt:chsize.obj
 0001:000ac760       __CIexp_pentium4           004ad760 f   libucrt:exp_pentium4.obj
 0001:000ac778       __exp_pentium4             004ad778     libucrt:exp_pentium4.obj
 0001:000aca20       __cintrindisp2             004ada20 f   libucrt:87cdisp.obj
 0001:000aca64       __cintrindisp1             004ada64 f   libucrt:87cdisp.obj
 0001:000acaa7       __ctrandisp2               004adaa7 f   libucrt:87cdisp.obj
 0001:000acc36       __ctrandisp1               004adc36 f   libucrt:87cdisp.obj
 0001:000acc69       __fload                    004adc69 f   libucrt:87cdisp.obj
 0001:000acca5       ___acrt_CompareStringW     004adca5 f   libucrt:comparestringw.obj
 0001:000acd0d       __strnicmp                 004add0d f   libucrt:strnicmp.obj
 0001:000acd7a       __strnicmp_l               004add7a f   libucrt:strnicmp.obj
 0001:000ad0d9       ___acrt_CompareStringA     004ae0d9 f   libucrt:comparestringa.obj
 0001:000ad1dd       ___acrt_DownlevelLCIDToLocaleName 004ae1dd f   libucrt:lcidtoname_downlevel.obj
 0001:000ad287       ___acrt_DownlevelLocaleNameToLCID 004ae287 f   libucrt:lcidtoname_downlevel.obj
 0001:000ad2b3       ___acrt_fp_strflt_to_string 004ae2b3 f   libucrt:_fptostr.obj
 0001:000ad36f       ___acrt_fltout             004ae36f f   libucrt:cfout.obj
 0001:000ae763       __wcsnicmp                 004af763 f   libucrt:wcsnicmp.obj
 0001:000ae81d       __wcsnicmp_l               004af81d f   libucrt:wcsnicmp.obj
 0001:000ae91e       _strcat_s                  004af91e f   libucrt:strcat_s.obj
 0001:000aed00       ___acrt_pack_narrow_command_line_and_environment 004afd00 f   libucrt:cenvarg.obj
 0001:000aee22       ___acrt_getpath            004afe22 f   libucrt:getpath.obj
 0001:000aee2d       __87except                 004afe2d f   libucrt:87except.obj
 0001:000aef38       __frnd                     004aff38 f   libucrt:frnd.obj
 0001:000aef4e       __towlower_l               004aff4e f   libucrt:towlower.obj
 0001:000af25d       __wgetcwd                  004b025d f   libucrt:getcwd.obj
 0001:000af280       __CIlog_pentium4           004b0280 f   libucrt:log_pentium4.obj
 0001:000af298       __log_pentium4             004b0298     libucrt:log_pentium4.obj
 0001:000af5ec       __itow_s                   004b05ec f   libucrt:xtoa.obj
 0001:000af621       ___dcrt_lowio_initialize_console_output 004b0621 f   libucrt:initcon.obj
 0001:000af640       ___dcrt_terminate_console_output 004b0640 f   libucrt:initcon.obj
 0001:000af660       ___ascii_strnicmp          004b0660 f   libucrt:_strnicm.obj
 0001:000af6c1       _fegetenv                  004b06c1 f   libucrt:fegetenv.obj
 0001:000af6de       _fesetenv                  004b06de f   libucrt:fesetenv.obj
 0001:000af727       _feholdexcept              004b0727 f   libucrt:feholdexcept.obj
 0001:000af780       _log10                     004b0780 f   libucrt:log10.obj
 0001:000af7c0       __CIlog10                  004b07c0 f   libucrt:log10.obj
 0001:000af7fb       __CIlog10_default          004b07fb f   libucrt:log10.obj
 0001:000af80f       __log10_default            004b080f     libucrt:log10.obj
 0001:000af8d0       _ceil                      004b08d0 f   libucrt:ceil_pentium4.obj
 0001:000af910       __ceil_pentium4            004b0910 f   libucrt:ceil_pentium4.obj
 0001:000af9ed       ___acrt_LCMapStringW       004b09ed f   libucrt:lcmapstringw.obj
 0001:000afa30       __CIlog10_pentium4         004b0a30 f   libucrt:log10_pentium4.obj
 0001:000afa48       __log10_pentium4           004b0a48     libucrt:log10_pentium4.obj
 0001:000afcc0       __ceil_default             004b0cc0 f   libucrt:ceil.obj
 0001:000afd79       _IsProcessorFeaturePresent@4 004b0d79 f   kernel32:KERNEL32.dll
 0001:000afd7f       ?_New_handler_interface@std@@YAHI@Z 004b0d7f f   libcpmt:stdhndlr.obj
 0001:000afd95       ?set_new_handler@std@@YAP6AXXZP6AXXZ@Z 004b0d95 f   libcpmt:stdhndlr.obj
 0001:000afe00       _OPENSSL_sk_deep_copy      004b0e00 f   libcrypto:stack.obj
 0001:000aff00       _OPENSSL_sk_delete         004b0f00 f   libcrypto:stack.obj
 0001:000aff50       _OPENSSL_sk_delete_ptr     004b0f50 f   libcrypto:stack.obj
 0001:000affc0       _OPENSSL_sk_dup            004b0fc0 f   libcrypto:stack.obj
 0001:000b0040       _OPENSSL_sk_find           004b1040 f   libcrypto:stack.obj
 0001:000b0060       _OPENSSL_sk_free           004b1060 f   libcrypto:stack.obj
 0001:000b0090       _OPENSSL_sk_insert         004b1090 f   libcrypto:stack.obj
 0001:000b0160       _OPENSSL_sk_is_sorted      004b1160 f   libcrypto:stack.obj
 0001:000b0180       _OPENSSL_sk_new            004b1180 f   libcrypto:stack.obj
 0001:000b01e0       _OPENSSL_sk_new_null       004b11e0 f   libcrypto:stack.obj
 0001:000b0240       _OPENSSL_sk_num            004b1240 f   libcrypto:stack.obj
 0001:000b0250       _OPENSSL_sk_pop            004b1250 f   libcrypto:stack.obj
 0001:000b0270       _OPENSSL_sk_pop_free       004b1270 f   libcrypto:stack.obj
 0001:000b02d0       _OPENSSL_sk_push           004b12d0 f   libcrypto:stack.obj
 0001:000b02f0       _OPENSSL_sk_set            004b12f0 f   libcrypto:stack.obj
 0001:000b0320       _OPENSSL_sk_set_cmp_func   004b1320 f   libcrypto:stack.obj
 0001:000b0340       _OPENSSL_sk_shift          004b1340 f   libcrypto:stack.obj
 0001:000b0380       _OPENSSL_sk_sort           004b1380 f   libcrypto:stack.obj
 0001:000b03b0       _OPENSSL_sk_value          004b13b0 f   libcrypto:stack.obj
 0001:000b0450       _OpenSSL_version_num       004b1450 f   libcrypto:cversion.obj
 0001:000b0460       _CRYPTO_dup_ex_data        004b1460 f   libcrypto:ex_data.obj
 0001:000b0650       _CRYPTO_free_ex_data       004b1650 f   libcrypto:ex_data.obj
 0001:000b07e0       _CRYPTO_get_ex_data        004b17e0 f   libcrypto:ex_data.obj
 0001:000b0810       _CRYPTO_get_ex_new_index   004b1810 f   libcrypto:ex_data.obj
 0001:000b0960       _CRYPTO_new_ex_data        004b1960 f   libcrypto:ex_data.obj
 0001:000b0af0       _CRYPTO_set_ex_data        004b1af0 f   libcrypto:ex_data.obj
 0001:000b0bb0       _crypto_cleanup_all_ex_data_int 004b1bb0 f   libcrypto:ex_data.obj
 0001:000b0cb0       _CRYPTO_malloc             004b1cb0 f   libcrypto:mem.obj
 0001:000b0ce0       _CRYPTO_free               004b1ce0 f   libcrypto:mem.obj
 0001:000b0d00       _CRYPTO_realloc            004b1d00 f   libcrypto:mem.obj
 0001:000b0db0       _CRYPTO_clear_free         004b1db0 f   libcrypto:mem.obj
 0001:000b0e00       _CRYPTO_clear_realloc      004b1e00 f   libcrypto:mem.obj
 0001:000b0ef0       _CRYPTO_get_mem_functions  004b1ef0 f   libcrypto:mem.obj
 0001:000b0f20       _CRYPTO_zalloc             004b1f20 f   libcrypto:mem.obj
 0001:000b1470       _BIO_new_file              004b2470 f   libcrypto:bss_file.obj
 0001:000b1570       _BIO_new_fp                004b2570 f   libcrypto:bss_file.obj
 0001:000b15b0       _BIO_s_file                004b25b0 f   libcrypto:bss_file.obj
 0001:000b15c0       _BIO_callback_ctrl         004b25c0 f   libcrypto:bio_lib.obj
 0001:000b1650       _BIO_clear_flags           004b2650 f   libcrypto:bio_lib.obj
 0001:000b1660       _BIO_copy_next_retry       004b2660 f   libcrypto:bio_lib.obj
 0001:000b1680       _BIO_ctrl                  004b2680 f   libcrypto:bio_lib.obj
 0001:000b1710       _BIO_find_type             004b2710 f   libcrypto:bio_lib.obj
 0001:000b1740       _BIO_free                  004b2740 f   libcrypto:bio_lib.obj
 0001:000b17d0       _BIO_free_all              004b27d0 f   libcrypto:bio_lib.obj
 0001:000b1870       _OPENSSL_LH_get_down_load  004b2870 f   libcrypto:lhash.obj
 0001:000b1870       _X509_get0_notBefore       004b2870 f   libcrypto:x509_set.obj
 0001:000b1870       _BIO_get_data              004b2870 f   libcrypto:bio_lib.obj
 0001:000b1870       _EC_GROUP_get_seed_len     004b2870 f   libcrypto:ec_lib.obj
 0001:000b1870       _X509_VERIFY_PARAM_get_depth 004b2870 f   libcrypto:x509_vpm.obj
 0001:000b1880       _SSL_CTX_get_cert_store    004b2880 f   libssl:ssl_lib.obj
 0001:000b1880       _ENGINE_get_DSA            004b2880 f   libcrypto:tb_dsa.obj
 0001:000b1880       _RSA_get0_engine           004b2880 f   libcrypto:rsa_lib.obj
 0001:000b1880       _DSA_meth_get_verify       004b2880 f   libcrypto:dsa_meth.obj
 0001:000b1880       _EVP_MD_CTX_md_data        004b2880 f   libcrypto:evp_lib.obj
 0001:000b1880       _EC_KEY_get0_group         004b2880 f   libcrypto:ec_key.obj
 0001:000b1880       _EVP_CIPHER_iv_length      004b2880 f   libcrypto:evp_lib.obj
 0001:000b1880       _BIO_get_init              004b2880 f   libcrypto:bio_lib.obj
 0001:000b1880       _EVP_PKEY_CTX_get0_peerkey 004b2880 f   libcrypto:pmeth_lib.obj
 0001:000b1880       _X509_CRL_get_issuer       004b2880 f   libcrypto:x509cset.obj
 0001:000b1880       _EC_GROUP_get0_cofactor    004b2880 f   libcrypto:ec_lib.obj
 0001:000b1890       _EC_KEY_get_enc_flags      004b2890 f   libcrypto:ec_key.obj
 0001:000b1890       _ENGINE_get_RAND           004b2890 f   libcrypto:tb_rand.obj
 0001:000b1890       _X509_CRL_get_REVOKED      004b2890 f   libcrypto:x509cset.obj
 0001:000b1890       _BIO_get_retry_reason      004b2890 f   libcrypto:bio_lib.obj
 0001:000b1890       _EC_GROUP_get_point_conversion_form 004b2890 f   libcrypto:ec_lib.obj
 0001:000b1890       _RSA_meth_get_bn_mod_exp   004b2890 f   libcrypto:rsa_meth.obj
 0001:000b18a0       _BIO_get_shutdown          004b28a0 f   libcrypto:bio_lib.obj
 0001:000b18a0       _EC_KEY_get0_public_key    004b28a0 f   libcrypto:ec_key.obj
 0001:000b18a0       _EVP_MD_CTX_pkey_ctx       004b28a0 f   libcrypto:evp_lib.obj
 0001:000b18a0       _X509_STORE_CTX_get0_param 004b28a0 f   libcrypto:x509_vfy.obj
 0001:000b18a0       _X509_REQ_get_subject_name 004b28a0 f   libcrypto:x509_req.obj
 0001:000b18a0       _EVP_CIPHER_flags          004b28a0 f   libcrypto:evp_lib.obj
 0001:000b18a0       _DSA_meth_get_mod_exp      004b28a0 f   libcrypto:dsa_meth.obj
 0001:000b18a0       _EC_GROUP_get_curve_name   004b28a0 f   libcrypto:ec_lib.obj
 0001:000b18a0       _X509_CRL_get0_lastUpdate  004b28a0 f   libcrypto:x509cset.obj
 0001:000b18a0       _ENGINE_get_DH             004b28a0 f   libcrypto:tb_dh.obj
 0001:000b18b0       _BIO_gets                  004b28b0 f   libcrypto:bio_lib.obj
 0001:000b1960       _BIO_indent                004b2960 f   libcrypto:bio_lib.obj
 0001:000b1a50       _BIO_int_ctrl              004b2a50 f   libcrypto:bio_lib.obj
 0001:000b1a80       _BIO_new                   004b2a80 f   libcrypto:bio_lib.obj
 0001:000b1b60       _BIO_next                  004b2b60 f   libcrypto:bio_lib.obj
 0001:000b1b70       _BIO_pop                   004b2b70 f   libcrypto:bio_lib.obj
 0001:000b1bc0       _BIO_push                  004b2bc0 f   libcrypto:bio_lib.obj
 0001:000b1c10       _BIO_puts                  004b2c10 f   libcrypto:bio_lib.obj
 0001:000b1cd0       _BIO_read                  004b2cd0 f   libcrypto:bio_lib.obj
 0001:000b1da0       _OPENSSL_LH_set_down_load  004b2da0 f   libcrypto:lhash.obj
 0001:000b1da0       _X509_VERIFY_PARAM_set_depth 004b2da0 f   libcrypto:x509_vpm.obj
 0001:000b1da0       _BIO_set_data              004b2da0 f   libcrypto:bio_lib.obj
 0001:000b1db0       _BIO_set_flags             004b2db0 f   libcrypto:bio_lib.obj
 0001:000b1dc0       _BIO_set_init              004b2dc0 f   libcrypto:bio_lib.obj
 0001:000b1dd0       _X509_VERIFY_PARAM_set_auth_level 004b2dd0 f   libcrypto:x509_vpm.obj
 0001:000b1dd0       _BIO_set_next              004b2dd0 f   libcrypto:bio_lib.obj
 0001:000b1de0       _EC_KEY_set_enc_flags      004b2de0 f   libcrypto:ec_key.obj
 0001:000b1de0       _EC_GROUP_set_point_conversion_form 004b2de0 f   libcrypto:ec_lib.obj
 0001:000b1de0       _BIO_set_retry_reason      004b2de0 f   libcrypto:bio_lib.obj
 0001:000b1df0       _EC_GROUP_set_curve_name   004b2df0 f   libcrypto:ec_lib.obj
 0001:000b1df0       _BIO_set_shutdown          004b2df0 f   libcrypto:bio_lib.obj
 0001:000b1e00       _BIO_test_flags            004b2e00 f   libcrypto:bio_lib.obj
 0001:000b1e10       _BIO_up_ref                004b2e10 f   libcrypto:bio_lib.obj
 0001:000b1e40       _BIO_write                 004b2e40 f   libcrypto:bio_lib.obj
 0001:000b1f00       _bio_cleanup               004b2f00 f   libcrypto:bio_lib.obj
 0001:000b23d0       _BIO_new_mem_buf           004b33d0 f   libcrypto:bss_mem.obj
 0001:000b2450       _BIO_s_mem                 004b3450 f   libcrypto:bss_mem.obj
 0001:000b25d0       _BIO_printf                004b35d0 f   libcrypto:b_print.obj
 0001:000b25f0       _BIO_snprintf              004b35f0 f   libcrypto:b_print.obj
 0001:000b2660       _BIO_vprintf               004b3660 f   libcrypto:b_print.obj
 0001:000b3a20       _BN_asc2bn                 004b4a20 f   libcrypto:bn_print.obj
 0001:000b3a90       _BN_bn2dec                 004b4a90 f   libcrypto:bn_print.obj
 0001:000b3cb0       _BN_dec2bn                 004b4cb0 f   libcrypto:bn_print.obj
 0001:000b3e50       _BN_hex2bn                 004b4e50 f   libcrypto:bn_print.obj
 0001:000b4000       _BN_print                  004b5000 f   libcrypto:bn_print.obj
 0001:000b40c0       _ASN1_STRING_clear_free    004b50c0 f   libcrypto:asn1_lib.obj
 0001:000b4120       _ASN1_STRING_cmp           004b5120 f   libcrypto:asn1_lib.obj
 0001:000b41a0       _ASN1_STRING_copy          004b51a0 f   libcrypto:asn1_lib.obj
 0001:000b41f0       _ASN1_STRING_dup           004b51f0 f   libcrypto:asn1_lib.obj
 0001:000b4260       _ASN1_STRING_free          004b5260 f   libcrypto:asn1_lib.obj
 0001:000b42b0       _X509_NAME_ENTRY_set       004b52b0 f   libcrypto:x509name.obj
 0001:000b42b0       _EVP_CIPHER_key_length     004b52b0 f   libcrypto:evp_lib.obj
 0001:000b42b0       _ASN1_STRING_get0_data     004b52b0 f   libcrypto:asn1_lib.obj
 0001:000b42b0       _SSL_get_rbio              004b52b0 f   libssl:ssl_lib.obj
 0001:000b42b0       _ENGINE_get_RSA            004b52b0 f   libcrypto:tb_rsa.obj
 0001:000b42b0       _RSA_meth_get_pub_dec      004b52b0 f   libcrypto:rsa_meth.obj
 0001:000b42b0       _EVP_CIPHER_CTX_encrypting 004b52b0 f   libcrypto:evp_lib.obj
 0001:000b42b0       _UI_get_input_flags        004b52b0 f   libcrypto:ui_lib.obj
 0001:000b42b0       _CONF_imodule_get_value    004b52b0 f   libcrypto:conf_mod.obj
 0001:000b42b0       _bn_get_dmax               004b52b0 f   libcrypto:bn_intern.obj
 0001:000b42b0       _EVP_PKEY_CTX_get0_pkey    004b52b0 f   libcrypto:pmeth_lib.obj
 0001:000b42b0       _UI_get0_user_data         004b52b0 f   libcrypto:ui_lib.obj
 0001:000b42b0       _EC_GROUP_get0_order       004b52b0 f   libcrypto:ec_lib.obj
 0001:000b42c0       _EVP_MD_type               004b52c0 f   libcrypto:evp_lib.obj
 0001:000b42c0       _pqueue_iterator           004b52c0 f   libssl:pqueue.obj
 0001:000b42c0       _pqueue_peek               004b52c0 f   libssl:pqueue.obj
 0001:000b42c0       _ENGINE_get_id             004b52c0 f   libcrypto:eng_lib.obj
 0001:000b42c0       _bn_get_words              004b52c0 f   libcrypto:bn_intern.obj
 0001:000b42c0       _EVP_ENCODE_CTX_num        004b52c0 f   libcrypto:encode.obj
 0001:000b42c0       _EVP_CIPHER_nid            004b52c0 f   libcrypto:evp_lib.obj
 0001:000b42c0       _SSL_version               004b52c0 f   libssl:ssl_lib.obj
 0001:000b42c0       _UI_get_string_type        004b52c0 f   libcrypto:ui_lib.obj
 0001:000b42c0       _EC_GROUP_method_of        004b52c0 f   libcrypto:ec_lib.obj
 0001:000b42c0       _ASN1_STRING_length        004b52c0 f   libcrypto:asn1_lib.obj
 0001:000b42c0       _EVP_PKEY_id               004b52c0 f   libcrypto:p_lib.obj
 0001:000b42c0       _EVP_CIPHER_CTX_cipher     004b52c0 f   libcrypto:evp_lib.obj
 0001:000b42c0       _CTLOG_get0_name           004b52c0 f   libcrypto:ct_log.obj
 0001:000b42c0       _COMP_get_type             004b52c0 f   libcrypto:comp_lib.obj
 0001:000b42d0       _ASN1_STRING_new           004b52d0 f   libcrypto:asn1_lib.obj
 0001:000b4310       _ASN1_STRING_set           004b5310 f   libcrypto:asn1_lib.obj
 0001:000b43c0       _ASN1_STRING_set0          004b53c0 f   libcrypto:asn1_lib.obj
 0001:000b43f0       _COMP_get_name             004b53f0 f   libcrypto:comp_lib.obj
 0001:000b43f0       _X509_PURPOSE_get_trust    004b53f0 f   libcrypto:v3_purp.obj
 0001:000b43f0       _bn_get_top                004b53f0 f   libcrypto:bn_intern.obj
 0001:000b43f0       _BN_GENCB_get_arg          004b53f0 f   libcrypto:bn_lib.obj
 0001:000b43f0       _EVP_MD_pkey_type          004b53f0 f   libcrypto:evp_lib.obj
 0001:000b43f0       _EVP_CIPHER_block_size     004b53f0 f   libcrypto:evp_lib.obj
 0001:000b43f0       _ASN1_STRING_type          004b53f0 f   libcrypto:asn1_lib.obj
 0001:000b43f0       _RSA_meth_get_pub_enc      004b53f0 f   libcrypto:rsa_meth.obj
 0001:000b43f0       _EC_GROUP_get0_generator   004b53f0 f   libcrypto:ec_lib.obj
 0001:000b43f0       _UI_get0_output_string     004b53f0 f   libcrypto:ui_lib.obj
 0001:000b43f0       _EC_METHOD_get_field_type  004b53f0 f   libcrypto:ec_lib.obj
 0001:000b4400       _ASN1_STRING_type_new      004b5400 f   libcrypto:asn1_lib.obj
 0001:000b4450       _ASN1_get_object           004b5450 f   libcrypto:asn1_lib.obj
 0001:000b4580       _ASN1_object_size          004b5580 f   libcrypto:asn1_lib.obj
 0001:000b45e0       _ASN1_put_eoc              004b55e0 f   libcrypto:asn1_lib.obj
 0001:000b4600       _ASN1_put_object           004b5600 f   libcrypto:asn1_lib.obj
 0001:000b4770       _asn1_string_embed_free    004b5770 f   libcrypto:asn1_lib.obj
 0001:000b47b0       _ASN1_OBJECT_free          004b57b0 f   libcrypto:a_object.obj
 0001:000b4840       _ASN1_OBJECT_new           004b5840 f   libcrypto:a_object.obj
 0001:000b4880       _a2d_ASN1_OBJECT           004b5880 f   libcrypto:a_object.obj
 0001:000b4c10       _c2i_ASN1_OBJECT           004b5c10 f   libcrypto:a_object.obj
 0001:000b4e10       _d2i_ASN1_OBJECT           004b5e10 f   libcrypto:a_object.obj
 0001:000b4eb0       _i2a_ASN1_OBJECT           004b5eb0 f   libcrypto:a_object.obj
 0001:000b4fe0       _i2t_ASN1_OBJECT           004b5fe0 f   libcrypto:a_object.obj
 0001:000b5000       _ASN1_STRING_to_UTF8       004b6000 f   libcrypto:a_strex.obj
 0001:000b5080       _X509_NAME_print_ex        004b6080 f   libcrypto:a_strex.obj
 0001:000b50c0       _asn1_valid_host           004b60c0 f   libcrypto:a_strex.obj
 0001:000b5c70       _ASN1_TIME_adj             004b6c70 f   libcrypto:a_time.obj
 0001:000b5d50       _ASN1_TIME_check           004b6d50 f   libcrypto:a_time.obj
 0001:000b5d80       _ASN1_TIME_diff            004b6d80 f   libcrypto:a_time.obj
 0001:000b5e50       _ASN1_TIME_free            004b6e50 f   libcrypto:a_time.obj
 0001:000b5e70       _ASN1_TIME_it              004b6e70 f   libcrypto:a_time.obj
 0001:000b5e80       _ASN1_TIME_print           004b6e80 f   libcrypto:a_time.obj
 0001:000b5f30       _ASN1_PRINTABLE_type       004b6f30 f   libcrypto:a_print.obj
 0001:000b6000       _ASN1_STRING_print         004b7000 f   libcrypto:a_print.obj
 0001:000b60c0       _EVP_Digest                004b70c0 f   libcrypto:digest.obj
 0001:000b6150       _EVP_DigestFinal           004b7150 f   libcrypto:digest.obj
 0001:000b6180       _EVP_DigestFinal_ex        004b7180 f   libcrypto:digest.obj
 0001:000b6200       _EVP_DigestInit            004b7200 f   libcrypto:digest.obj
 0001:000b6220       _EVP_DigestInit_ex         004b7220 f   libcrypto:digest.obj
 0001:000b63d0       _EVP_DigestUpdate          004b73d0 f   libcrypto:digest.obj
 0001:000b63e0       _EVP_MD_CTX_copy           004b73e0 f   libcrypto:digest.obj
 0001:000b6400       _EVP_MD_CTX_copy_ex        004b7400 f   libcrypto:digest.obj
 0001:000b6560       _EVP_MD_CTX_ctrl           004b7560 f   libcrypto:digest.obj
 0001:000b6590       _EVP_MD_CTX_free           004b7590 f   libcrypto:digest.obj
 0001:000b65b0       _EVP_MD_CTX_new            004b75b0 f   libcrypto:digest.obj
 0001:000b65d0       _EVP_MD_CTX_reset          004b75d0 f   libcrypto:digest.obj
 0001:000b66c0       _EVP_md5                   004b76c0 f   libcrypto:m_md5.obj
 0001:000b6980       _EVP_sha1                  004b7980 f   libcrypto:m_sha1.obj
 0001:000b6990       _EVP_sha224                004b7990 f   libcrypto:m_sha1.obj
 0001:000b69a0       _EVP_sha256                004b79a0 f   libcrypto:m_sha1.obj
 0001:000b69b0       _EVP_sha384                004b79b0 f   libcrypto:m_sha1.obj
 0001:000b69c0       _EVP_sha512                004b79c0 f   libcrypto:m_sha1.obj
 0001:000b69d0       _EVP_PKEY_assign           004b79d0 f   libcrypto:p_lib.obj
 0001:000b6a10       _EVP_PKEY_bits             004b7a10 f   libcrypto:p_lib.obj
 0001:000b6a30       _EVP_PKEY_cmp              004b7a30 f   libcrypto:p_lib.obj
 0001:000b6a80       _EVP_PKEY_cmp_parameters   004b7a80 f   libcrypto:p_lib.obj
 0001:000b6ab0       _EVP_PKEY_copy_parameters  004b7ab0 f   libcrypto:p_lib.obj
 0001:000b6b90       _EVP_PKEY_free             004b7b90 f   libcrypto:p_lib.obj
 0001:000b6c10       _EC_KEY_get0_private_key   004b7c10 f   libcrypto:ec_key.obj
 0001:000b6c10       _RSA_meth_get_mod_exp      004b7c10 f   libcrypto:rsa_meth.obj
 0001:000b6c10       _EVP_PKEY_CTX_get_data     004b7c10 f   libcrypto:pmeth_lib.obj
 0001:000b6c10       _DSA_meth_get_bn_mod_exp   004b7c10 f   libcrypto:dsa_meth.obj
 0001:000b6c10       _ENGINE_get_EC             004b7c10 f   libcrypto:tb_eckey.obj
 0001:000b6c10       _EC_GROUP_get_asn1_flag    004b7c10 f   libcrypto:ec_lib.obj
 0001:000b6c10       _X509_CRL_get0_nextUpdate  004b7c10 f   libcrypto:x509cset.obj
 0001:000b6c10       _EVP_PKEY_get0             004b7c10 f   libcrypto:p_lib.obj
 0001:000b6c20       _EVP_PKEY_get0_DH          004b7c20 f   libcrypto:p_lib.obj
 0001:000b6c60       _EVP_PKEY_get0_DSA         004b7c60 f   libcrypto:p_lib.obj
 0001:000b6c90       _EVP_PKEY_get0_EC_KEY      004b7c90 f   libcrypto:p_lib.obj
 0001:000b6cd0       _EVP_PKEY_get0_RSA         004b7cd0 f   libcrypto:p_lib.obj
 0001:000b6d00       _EVP_PKEY_get1_RSA         004b7d00 f   libcrypto:p_lib.obj
 0001:000b6d40       _EVP_PKEY_get1_tls_encodedpoint 004b7d40 f   libcrypto:p_lib.obj
 0001:000b6d70       _EVP_PKEY_get_default_digest_nid 004b7d70 f   libcrypto:p_lib.obj
 0001:000b6da0       _EVP_PKEY_missing_parameters 004b7da0 f   libcrypto:p_lib.obj
 0001:000b6dc0       _EVP_PKEY_new              004b7dc0 f   libcrypto:p_lib.obj
 0001:000b6e50       _EVP_PKEY_print_public     004b7e50 f   libcrypto:p_lib.obj
 0001:000b6eb0       _EVP_PKEY_security_bits    004b7eb0 f   libcrypto:p_lib.obj
 0001:000b6ee0       _EVP_PKEY_set1_DH          004b7ee0 f   libcrypto:p_lib.obj
 0001:000b6f30       _EVP_PKEY_set1_EC_KEY      004b7f30 f   libcrypto:p_lib.obj
 0001:000b6f80       _EVP_PKEY_set1_tls_encodedpoint 004b7f80 f   libcrypto:p_lib.obj
 0001:000b6fc0       _EVP_PKEY_set_type         004b7fc0 f   libcrypto:p_lib.obj
 0001:000b6fe0       _EVP_PKEY_size             004b7fe0 f   libcrypto:p_lib.obj
 0001:000b7000       _EVP_PKEY_type             004b8000 f   libcrypto:p_lib.obj
 0001:000b7050       _EVP_PKEY_up_ref           004b8050 f   libcrypto:p_lib.obj
 0001:000b7180       _RSA_free                  004b8180 f   libcrypto:rsa_lib.obj
 0001:000b7260       _RSA_get0_key              004b8260 f   libcrypto:rsa_lib.obj
 0001:000b7290       _RSA_get_default_method    004b8290 f   libcrypto:rsa_lib.obj
 0001:000b72b0       _RSA_get_ex_data           004b82b0 f   libcrypto:rsa_lib.obj
 0001:000b72c0       _RSA_new                   004b82c0 f   libcrypto:rsa_lib.obj
 0001:000b72d0       _RSA_new_method            004b82d0 f   libcrypto:rsa_lib.obj
 0001:000b7410       _RSA_security_bits         004b8410 f   libcrypto:rsa_lib.obj
 0001:000b7430       _RSA_set0_key              004b8430 f   libcrypto:rsa_lib.obj
 0001:000b74a0       _RSA_set_ex_data           004b84a0 f   libcrypto:rsa_lib.obj
 0001:000b74b0       _RSA_up_ref                004b84b0 f   libcrypto:rsa_lib.obj
 0001:000b74e0       _RSA_flags                 004b84e0 f   libcrypto:rsa_crpt.obj
 0001:000b74f0       _RSA_private_decrypt       004b84f0 f   libcrypto:rsa_crpt.obj
 0001:000b7500       _RSA_private_encrypt       004b8500 f   libcrypto:rsa_crpt.obj
 0001:000b7510       _RSA_public_decrypt        004b8510 f   libcrypto:rsa_crpt.obj
 0001:000b7520       _RSA_public_encrypt        004b8520 f   libcrypto:rsa_crpt.obj
 0001:000b7530       _RSA_setup_blinding        004b8530 f   libcrypto:rsa_crpt.obj
 0001:000b76d0       _RSA_size                  004b86d0 f   libcrypto:rsa_crpt.obj
 0001:000b77d0       _DH_free                   004b87d0 f   libcrypto:dh_lib.obj
 0001:000b7890       _DH_get0_key               004b8890 f   libcrypto:dh_lib.obj
 0001:000b7890       _DSA_get0_key              004b8890 f   libcrypto:dsa_lib.obj
 0001:000b78b0       _DH_get0_pqg               004b88b0 f   libcrypto:dh_lib.obj
 0001:000b78e0       _DH_get_default_method     004b88e0 f   libcrypto:dh_lib.obj
 0001:000b7900       _DH_new                    004b8900 f   libcrypto:dh_lib.obj
 0001:000b7910       _DH_new_method             004b8910 f   libcrypto:dh_lib.obj
 0001:000b7a40       _DH_security_bits          004b8a40 f   libcrypto:dh_lib.obj
 0001:000b7a80       _DH_set0_key               004b8a80 f   libcrypto:dh_lib.obj
 0001:000b7a80       _DSA_set0_key              004b8a80 f   libcrypto:dsa_lib.obj
 0001:000b7ad0       _DH_set0_pqg               004b8ad0 f   libcrypto:dh_lib.obj
 0001:000b7b50       _DH_size                   004b8b50 f   libcrypto:dh_lib.obj
 0001:000b7b70       _DH_up_ref                 004b8b70 f   libcrypto:dh_lib.obj
 0001:000b7ba0       _DSA_bits                  004b8ba0 f   libcrypto:dsa_lib.obj
 0001:000b7bb0       _DSA_dup_DH                004b8bb0 f   libcrypto:dsa_lib.obj
 0001:000b7d20       _DSA_free                  004b8d20 f   libcrypto:dsa_lib.obj
 0001:000b7dc0       _DSA_get0_engine           004b8dc0 f   libcrypto:dsa_lib.obj
 0001:000b7dd0       _DSA_get0_pqg              004b8dd0 f   libcrypto:dsa_lib.obj
 0001:000b7e00       _DSA_get_default_method    004b8e00 f   libcrypto:dsa_lib.obj
 0001:000b7e20       _DSA_get_ex_data           004b8e20 f   libcrypto:dsa_lib.obj
 0001:000b7e30       _DSA_new                   004b8e30 f   libcrypto:dsa_lib.obj
 0001:000b7e40       _DSA_new_method            004b8e40 f   libcrypto:dsa_lib.obj
 0001:000b7f80       _DSA_security_bits         004b8f80 f   libcrypto:dsa_lib.obj
 0001:000b7fc0       _DSA_set0_pqg              004b8fc0 f   libcrypto:dsa_lib.obj
 0001:000b8040       _DSA_set_ex_data           004b9040 f   libcrypto:dsa_lib.obj
 0001:000b8050       _DSA_size                  004b9050 f   libcrypto:dsa_lib.obj
 0001:000b80b0       _X509_LOOKUP_ctrl          004b90b0 f   libcrypto:x509_lu.obj
 0001:000b80e0       _X509_OBJECT_free          004b90e0 f   libcrypto:x509_lu.obj
 0001:000b8120       _X509_OBJECT_retrieve_match 004b9120 f   libcrypto:x509_lu.obj
 0001:000b8200       _X509_STORE_CTX_get1_certs 004b9200 f   libcrypto:x509_lu.obj
 0001:000b8370       _X509_STORE_CTX_get1_crls  004b9370 f   libcrypto:x509_lu.obj
 0001:000b8510       _X509_STORE_CTX_get1_issuer 004b9510 f   libcrypto:x509_lu.obj
 0001:000b86d0       _X509_STORE_CTX_get_by_subject 004b96d0 f   libcrypto:x509_lu.obj
 0001:000b87e0       _X509_STORE_add_cert       004b97e0 f   libcrypto:x509_lu.obj
 0001:000b88f0       _X509_STORE_add_crl        004b98f0 f   libcrypto:x509_lu.obj
 0001:000b8a00       _X509_STORE_add_lookup     004b9a00 f   libcrypto:x509_lu.obj
 0001:000b8ac0       _X509_STORE_free           004b9ac0 f   libcrypto:x509_lu.obj
 0001:000b8bb0       _X509_STORE_new            004b9bb0 f   libcrypto:x509_lu.obj
 0001:000b8c60       _X509_STORE_set_flags      004b9c60 f   libcrypto:x509_lu.obj
 0001:000b8c80       _X509_STORE_up_ref         004b9c80 f   libcrypto:x509_lu.obj
 0001:000b8ec0       _X509_LOOKUP_file          004b9ec0 f   libcrypto:by_file.obj
 0001:000b8ed0       _X509_load_cert_crl_file   004b9ed0 f   libcrypto:by_file.obj
 0001:000b8fd0       _X509_load_cert_file       004b9fd0 f   libcrypto:by_file.obj
 0001:000b9120       _X509_load_crl_file        004ba120 f   libcrypto:by_file.obj
 0001:000b9280       _X509_verify_cert_error_string 004ba280 f   libcrypto:x509_txt.obj
 0001:000b9580       _X509_aux_print            004ba580 f   libcrypto:t_x509.obj
 0001:000b97e0       _X509_print_ex             004ba7e0 f   libcrypto:t_x509.obj
 0001:000b9d10       _X509_signature_dump       004bad10 f   libcrypto:t_x509.obj
 0001:000b9df0       _X509_signature_print      004badf0 f   libcrypto:t_x509.obj
 0001:000b9f20       _X509_PUBKEY_free          004baf20 f   libcrypto:x_pubkey.obj
 0001:000b9f40       _X509_PUBKEY_get           004baf40 f   libcrypto:x_pubkey.obj
 0001:000b9fc0       _X509_PUBKEY_get0          004bafc0 f   libcrypto:x_pubkey.obj
 0001:000ba020       _X509_PUBKEY_get0_param    004bb020 f   libcrypto:x_pubkey.obj
 0001:000ba060       _X509_PUBKEY_it            004bb060 f   libcrypto:x_pubkey.obj
 0001:000ba070       _X509_PUBKEY_set           004bb070 f   libcrypto:x_pubkey.obj
 0001:000ba120       _X509_PUBKEY_set0_param    004bb120 f   libcrypto:x_pubkey.obj
 0001:000ba190       _X509_get0_pubkey_bitstr   004bb190 f   libcrypto:x_pubkey.obj
 0001:000ba1a0       _d2i_PUBKEY                004bb1a0 f   libcrypto:x_pubkey.obj
 0001:000ba210       _i2d_X509_PUBKEY           004bb210 f   libcrypto:x_pubkey.obj
 0001:000ba2e0       _X509_CINF_it              004bb2e0 f   libcrypto:x_x509.obj
 0001:000ba3f0       _X509_dup                  004bb3f0 f   libcrypto:x_x509.obj
 0001:000ba410       _X509_free                 004bb410 f   libcrypto:x_x509.obj
 0001:000ba430       _X509_get0_signature       004bb430 f   libcrypto:x_x509.obj
 0001:000ba450       _X509_get_ex_data          004bb450 f   libcrypto:x_x509.obj
 0001:000ba460       _X509_get_signature_nid    004bb460 f   libcrypto:x_x509.obj
 0001:000ba470       _X509_it                   004bb470 f   libcrypto:x_x509.obj
 0001:000ba480       _X509_set_ex_data          004bb480 f   libcrypto:x_x509.obj
 0001:000ba490       _d2i_X509                  004bb490 f   libcrypto:x_x509.obj
 0001:000ba4b0       _d2i_X509_AUX              004bb4b0 f   libcrypto:x_x509.obj
 0001:000ba570       _i2d_X509                  004bb570 f   libcrypto:x_x509.obj
 0001:000ba590       _i2d_re_X509_tbs           004bb590 f   libcrypto:x_x509.obj
 0001:000ba5b0       _X509_get0_extensions      004bb5b0 f   libcrypto:x509_set.obj
 0001:000ba5c0       _EC_KEY_get_flags          004bb5c0 f   libcrypto:ec_key.obj
 0001:000ba5c0       _CTLOG_get0_public_key     004bb5c0 f   libcrypto:ct_log.obj
 0001:000ba5c0       _X509_get0_notAfter        004bb5c0 f   libcrypto:x509_set.obj
 0001:000ba5c0       _EVP_MD_block_size         004bb5c0 f   libcrypto:evp_lib.obj
 0001:000ba5d0       _X509_get0_tbs_sigalg      004bb5d0 f   libcrypto:x509_set.obj
 0001:000ba5e0       _X509_get0_uids            004bb5e0 f   libcrypto:x509_set.obj
 0001:000ba600       _X509_get_X509_PUBKEY      004bb600 f   libcrypto:x509_set.obj
 0001:000ba610       _X509_get_version          004bb610 f   libcrypto:x509_set.obj
 0001:000ba620       _X509_set_issuer_name      004bb620 f   libcrypto:x509_set.obj
 0001:000ba640       _X509_up_ref               004bb640 f   libcrypto:x509_set.obj
 0001:000ba670       _X509_CRL_check_suiteb     004bb670 f   libcrypto:x509_cmp.obj
 0001:000ba6a0       _X509_CRL_cmp              004bb6a0 f   libcrypto:x509_cmp.obj
 0001:000ba6c0       _X509_CRL_match            004bb6c0 f   libcrypto:x509_cmp.obj
 0001:000ba710       _X509_NAME_cmp             004bb710 f   libcrypto:x509_cmp.obj
 0001:000ba7d0       _X509_NAME_hash            004bb7d0 f   libcrypto:x509_cmp.obj
 0001:000ba860       _X509_chain_check_suiteb   004bb860 f   libcrypto:x509_cmp.obj
 0001:000ba9d0       _X509_chain_up_ref         004bb9d0 f   libcrypto:x509_cmp.obj
 0001:000baa10       _X509_check_private_key    004bba10 f   libcrypto:x509_cmp.obj
 0001:000baab0       _X509_cmp                  004bbab0 f   libcrypto:x509_cmp.obj
 0001:000babb0       _X509_find_by_subject      004bbbb0 f   libcrypto:x509_cmp.obj
 0001:000bacc0       _X509_get0_pubkey          004bbcc0 f   libcrypto:x509_cmp.obj
 0001:000bace0       _X509_get_issuer_name      004bbce0 f   libcrypto:x509_cmp.obj
 0001:000bace0       _EC_KEY_get_conv_form      004bbce0 f   libcrypto:ec_key.obj
 0001:000bace0       _EC_GROUP_get0_seed        004bbce0 f   libcrypto:ec_lib.obj
 0001:000bacf0       _X509_get_pubkey           004bbcf0 f   libcrypto:x509_cmp.obj
 0001:000bad10       _X509_get_serialNumber     004bbd10 f   libcrypto:x509_cmp.obj
 0001:000bad20       _X509_get_subject_name     004bbd20 f   libcrypto:x509_cmp.obj
 0001:000bad20       _CMS_SignerInfo_get0_pkey_ctx 004bbd20 f   libcrypto:cms_sd.obj
 0001:000bad30       _X509_subject_name_cmp     004bbd30 f   libcrypto:x509_cmp.obj
 0001:000bae00       _X509_NAME_ENTRY_create_by_OBJ 004bbe00 f   libcrypto:x509name.obj
 0001:000baea0       _X509_NAME_ENTRY_create_by_txt 004bbea0 f   libcrypto:x509name.obj
 0001:000baf10       _X509_NAME_ENTRY_get_data  004bbf10 f   libcrypto:x509name.obj
 0001:000baf20       _X509_ATTRIBUTE_get0_object 004bbf20 f   libcrypto:x509_att.obj
 0001:000baf20       _X509_NAME_ENTRY_get_object 004bbf20 f   libcrypto:x509name.obj
 0001:000baf20       _X509_EXTENSION_get_object 004bbf20 f   libcrypto:x509_v3.obj
 0001:000baf20       _EVP_MD_CTX_md             004bbf20 f   libcrypto:evp_lib.obj
 0001:000baf30       _X509_NAME_ENTRY_set_data  004bbf30 f   libcrypto:x509name.obj
 0001:000baff0       _X509_NAME_add_entry       004bbff0 f   libcrypto:x509name.obj
 0001:000bb110       _X509_NAME_add_entry_by_txt 004bc110 f   libcrypto:x509name.obj
 0001:000bb160       _X509_NAME_delete_entry    004bc160 f   libcrypto:x509name.obj
 0001:000bb200       _X509_NAME_entry_count     004bc200 f   libcrypto:x509name.obj
 0001:000bb220       _X509_NAME_get_entry       004bc220 f   libcrypto:x509name.obj
 0001:000bb250       _X509_NAME_get_index_by_NID 004bc250 f   libcrypto:x509name.obj
 0001:000bb270       _X509_NAME_get_index_by_OBJ 004bc270 f   libcrypto:x509name.obj
 0001:000bb2d0       _X509_CRL_get_ext          004bc2d0 f   libcrypto:x509_ext.obj
 0001:000bb2f0       _X509_CRL_get_ext_by_NID   004bc2f0 f   libcrypto:x509_ext.obj
 0001:000bb310       _X509_CRL_get_ext_d2i      004bc310 f   libcrypto:x509_ext.obj
 0001:000bb330       _X509_REVOKED_get_ext_d2i  004bc330 f   libcrypto:x509_ext.obj
 0001:000bb350       _X509_delete_ext           004bc350 f   libcrypto:x509_ext.obj
 0001:000bb370       _X509_get_ext              004bc370 f   libcrypto:x509_ext.obj
 0001:000bb390       _X509_get_ext_by_NID       004bc390 f   libcrypto:x509_ext.obj
 0001:000bb3b0       _X509_get_ext_count        004bc3b0 f   libcrypto:x509_ext.obj
 0001:000bb3c0       _X509_get_ext_d2i          004bc3c0 f   libcrypto:x509_ext.obj
 0001:000bb3e0       _X509_EXTENSION_get_critical 004bc3e0 f   libcrypto:x509_v3.obj
 0001:000bb400       _X509_EXTENSION_get_data   004bc400 f   libcrypto:x509_v3.obj
 0001:000bb410       _X509_EXTENSION_set_data   004bc410 f   libcrypto:x509_v3.obj
 0001:000bb440       _X509v3_delete_ext         004bc440 f   libcrypto:x509_v3.obj
 0001:000bb470       _X509v3_get_ext            004bc470 f   libcrypto:x509_v3.obj
 0001:000bb470       _X509at_get_attr           004bc470 f   libcrypto:x509_att.obj
 0001:000bb4a0       _X509v3_get_ext_by_NID     004bc4a0 f   libcrypto:x509_v3.obj
 0001:000bb4a0       _X509at_get_attr_by_NID    004bc4a0 f   libcrypto:x509_att.obj
 0001:000bb4c0       _X509v3_get_ext_by_OBJ     004bc4c0 f   libcrypto:x509_v3.obj
 0001:000bb4c0       _X509at_get_attr_by_OBJ    004bc4c0 f   libcrypto:x509_att.obj
 0001:000bb520       _X509v3_get_ext_count      004bc520 f   libcrypto:x509_v3.obj
 0001:000bb540       _PEM_read_bio_X509         004bc540 f   libcrypto:pem_x509.obj
 0001:000bb570       _PEM_write_bio_X509        004bc570 f   libcrypto:pem_x509.obj
 0001:000bb5a0       _RAND_add                  004bc5a0 f   libcrypto:rand_lib.obj
 0001:000bb5e0       _RAND_bytes                004bc5e0 f   libcrypto:rand_lib.obj
 0001:000bb600       _RAND_get_rand_method      004bc600 f   libcrypto:rand_lib.obj
 0001:000bb6a0       _RAND_seed                 004bc6a0 f   libcrypto:rand_lib.obj
 0001:000bb6c0       _RAND_set_rand_method      004bc6c0 f   libcrypto:rand_lib.obj
 0001:000bb720       _RAND_status               004bc720 f   libcrypto:rand_lib.obj
 0001:000bb770       _rand_cleanup_int          004bc770 f   libcrypto:rand_lib.obj
 0001:000bb7b0       _RAND_file_name            004bc7b0 f   libcrypto:randfile.obj
 0001:000bb960       _RAND_load_file            004bc960 f   libcrypto:randfile.obj
 0001:000bbae0       _CONF_get1_default_config_file 004bcae0 f   libcrypto:conf_mod.obj
 0001:000bbb70       _CONF_module_add           004bcb70 f   libcrypto:conf_mod.obj
 0001:000bbb90       _CONF_modules_finish       004bcb90 f   libcrypto:conf_mod.obj
 0001:000bbc30       _CONF_modules_load         004bcc30 f   libcrypto:conf_mod.obj
 0001:000bbce0       _CONF_modules_load_file    004bcce0 f   libcrypto:conf_mod.obj
 0001:000bbd80       _CONF_modules_unload       004bcd80 f   libcrypto:conf_mod.obj
 0001:000bbe30       _CONF_parse_list           004bce30 f   libcrypto:conf_mod.obj
 0001:000bbf20       _conf_modules_free_int     004bcf20 f   libcrypto:conf_mod.obj
 0001:000bc370       _OPENSSL_load_builtin_modules 004bd370 f   libcrypto:conf_mall.obj
 0001:000bc390       _GENERAL_NAME_it           004bd390 f   libcrypto:v3_genn.obj
 0001:000bc3a0       _OTHERNAME_it              004bd3a0 f   libcrypto:v3_genn.obj
 0001:000bc3b0       _EDIPARTYNAME_it           004bd3b0 f   libcrypto:v3_genn.obj
 0001:000bc3c0       _GENERAL_NAMES_free        004bd3c0 f   libcrypto:v3_genn.obj
 0001:000bc3e0       _GENERAL_NAMES_it          004bd3e0 f   libcrypto:v3_genn.obj
 0001:000bc3f0       _GENERAL_NAMES_new         004bd3f0 f   libcrypto:v3_genn.obj
 0001:000bc400       _GENERAL_NAME_cmp          004bd400 f   libcrypto:v3_genn.obj
 0001:000bc4d0       _GENERAL_NAME_free         004bd4d0 f   libcrypto:v3_genn.obj
 0001:000bc4f0       _GENERAL_NAME_new          004bd4f0 f   libcrypto:v3_genn.obj
 0001:000bc500       _OTHERNAME_cmp             004bd500 f   libcrypto:v3_genn.obj
 0001:000bc540       _OTHERNAME_new             004bd540 f   libcrypto:v3_genn.obj
 0001:000bc550       _X509V3_EXT_print          004bd550 f   libcrypto:v3_prn.obj
 0001:000bc6d0       _X509V3_EXT_val_prn        004bd6d0 f   libcrypto:v3_prn.obj
 0001:000bc7e0       _X509V3_extensions_print   004bd7e0 f   libcrypto:v3_prn.obj
 0001:000bcc60       _X509_PURPOSE_get0         004bdc60 f   libcrypto:v3_purp.obj
 0001:000bcca0       _X509_PURPOSE_get_by_id    004bdca0 f   libcrypto:v3_purp.obj
 0001:000bccf0       _X509_check_akid           004bdcf0 f   libcrypto:v3_purp.obj
 0001:000bcdb0       _X509_check_ca             004bddb0 f   libcrypto:v3_purp.obj
 0001:000bcdf0       _X509_check_issued         004bddf0 f   libcrypto:v3_purp.obj
 0001:000bce80       _X509_check_purpose        004bde80 f   libcrypto:v3_purp.obj
 0001:000bcf70       _X509_get_extended_key_usage 004bdf70 f   libcrypto:v3_purp.obj
 0001:000bcfb0       _X509_get_extension_flags  004bdfb0 f   libcrypto:v3_purp.obj
 0001:000bcff0       _X509_get_key_usage        004bdff0 f   libcrypto:v3_purp.obj
 0001:000bd630       _ERR_add_error_data        004be630 f   libcrypto:err.obj
 0001:000bd650       _ERR_add_error_vdata       004be650 f   libcrypto:err.obj
 0001:000bd780       _ERR_clear_error           004be780 f   libcrypto:err.obj
 0001:000bd800       _ERR_error_string_n        004be800 f   libcrypto:err.obj
 0001:000bd980       _ERR_func_error_string     004be980 f   libcrypto:err.obj
 0001:000bda10       _ERR_get_error             004bea10 f   libcrypto:err.obj
 0001:000bda90       _ERR_get_error_line_data   004bea90 f   libcrypto:err.obj
 0001:000bdb80       _ERR_get_next_error_library 004beb80 f   libcrypto:err.obj
 0001:000bdbd0       _ERR_get_state             004bebd0 f   libcrypto:err.obj
 0001:000bdc60       _ERR_lib_error_string      004bec60 f   libcrypto:err.obj
 0001:000bdcf0       _ERR_load_ERR_strings      004becf0 f   libcrypto:err.obj
 0001:000bdd50       _ERR_load_strings          004bed50 f   libcrypto:err.obj
 0001:000bdd70       _ERR_peek_error            004bed70 f   libcrypto:err.obj
 0001:000bdda0       _ERR_peek_last_error       004beda0 f   libcrypto:err.obj
 0001:000bddc0       _ERR_pop_to_mark           004bedc0 f   libcrypto:err.obj
 0001:000bdec0       _ERR_put_error             004beec0 f   libcrypto:err.obj
 0001:000bdfa0       _ERR_reason_error_string   004befa0 f   libcrypto:err.obj
 0001:000be070       _ERR_set_mark              004bf070 f   libcrypto:err.obj
 0001:000be090       _ERR_unload_strings        004bf090 f   libcrypto:err.obj
 0001:000be1e0       _err_cleanup               004bf1e0 f   libcrypto:err.obj
 0001:000be210       _err_delete_thread_state   004bf210 f   libcrypto:err.obj
 0001:000be260       _err_free_strings_int      004bf260 f   libcrypto:err.obj
 0001:000be370       _PKCS12_MAC_DATA_it        004bf370 f   libcrypto:p12_asn.obj
 0001:000be380       _PKCS12_SAFEBAG_it         004bf380 f   libcrypto:p12_asn.obj
 0001:000be390       _PKCS12_BAGS_it            004bf390 f   libcrypto:p12_asn.obj
 0001:000be3c0       _PKCS12_AUTHSAFES_it       004bf3c0 f   libcrypto:p12_asn.obj
 0001:000be3d0       _PKCS12_SAFEBAGS_it        004bf3d0 f   libcrypto:p12_asn.obj
 0001:000be3e0       _PKCS12_SAFEBAG_free       004bf3e0 f   libcrypto:p12_asn.obj
 0001:000be400       _PKCS12_free               004bf400 f   libcrypto:p12_asn.obj
 0001:000be420       _PKCS12_it                 004bf420 f   libcrypto:p12_asn.obj
 0001:000be430       _PKCS12_PBE_keyivgen       004bf430 f   libcrypto:p12_crpt.obj
 0001:000be600       _PKCS12_parse              004bf600 f   libcrypto:p12_kiss.obj
 0001:000beaf0       _OPENSSL_asc2uni           004bfaf0 f   libcrypto:p12_utl.obj
 0001:000beb70       _OPENSSL_utf82uni          004bfb70 f   libcrypto:p12_utl.obj
 0001:000becf0       _d2i_PKCS12_bio            004bfcf0 f   libcrypto:p12_utl.obj
 0001:000bed10       _OCSP_check_validity       004bfd10 f   libcrypto:ocsp_cl.obj
 0001:000bee80       _OCSP_resp_count           004bfe80 f   libcrypto:ocsp_cl.obj
 0001:000beea0       _OCSP_resp_get0            004bfea0 f   libcrypto:ocsp_cl.obj
 0001:000beec0       _OCSP_response_get1_basic  004bfec0 f   libcrypto:ocsp_cl.obj
 0001:000bef30       _OCSP_response_status      004bff30 f   libcrypto:ocsp_cl.obj
 0001:000bef40       _OCSP_single_get0_status   004bff40 f   libcrypto:ocsp_cl.obj
 0001:000befb0       _OCSP_RESPBYTES_it         004bffb0 f   libcrypto:ocsp_asn.obj
 0001:000befc0       _OCSP_ONEREQ_it            004bffc0 f   libcrypto:ocsp_asn.obj
 0001:000befd0       _OCSP_CERTID_it            004bffd0 f   libcrypto:ocsp_asn.obj
 0001:000befe0       _OCSP_SIGNATURE_it         004bffe0 f   libcrypto:ocsp_asn.obj
 0001:000beff0       _OCSP_REQINFO_it           004bfff0 f   libcrypto:ocsp_asn.obj
 0001:000bf000       _OCSP_RESPID_it            004c0000 f   libcrypto:ocsp_asn.obj
 0001:000bf010       _OCSP_SINGLERESP_it        004c0010 f   libcrypto:ocsp_asn.obj
 0001:000bf020       _OCSP_CERTSTATUS_it        004c0020 f   libcrypto:ocsp_asn.obj
 0001:000bf030       _OCSP_REVOKEDINFO_it       004c0030 f   libcrypto:ocsp_asn.obj
 0001:000bf040       _OCSP_RESPDATA_it          004c0040 f   libcrypto:ocsp_asn.obj
 0001:000bf050       _OCSP_BASICRESP_free       004c0050 f   libcrypto:ocsp_asn.obj
 0001:000bf070       _OCSP_BASICRESP_it         004c0070 f   libcrypto:ocsp_asn.obj
 0001:000bf080       _OCSP_CRLID_it             004c0080 f   libcrypto:ocsp_asn.obj
 0001:000bf090       _OCSP_RESPID_free          004c0090 f   libcrypto:ocsp_asn.obj
 0001:000bf0b0       _OCSP_RESPONSE_free        004c00b0 f   libcrypto:ocsp_asn.obj
 0001:000bf0d0       _OCSP_SERVICELOC_it        004c00d0 f   libcrypto:ocsp_asn.obj
 0001:000bf0e0       _d2i_OCSP_RESPID           004c00e0 f   libcrypto:ocsp_asn.obj
 0001:000bf100       _d2i_OCSP_RESPONSE         004c0100 f   libcrypto:ocsp_asn.obj
 0001:000bf120       _i2d_OCSP_RESPID           004c0120 f   libcrypto:ocsp_asn.obj
 0001:000bf140       _OCSP_cert_status_str      004c0140 f   libcrypto:ocsp_prn.obj
 0001:000bf170       _OCSP_crl_reason_str       004c0170 f   libcrypto:ocsp_prn.obj
 0001:000bf1a0       _OCSP_response_status_str  004c01a0 f   libcrypto:ocsp_prn.obj
 0001:000bf1d0       _OCSP_basic_verify         004c01d0 f   libcrypto:ocsp_vfy.obj
 0001:000bf950       _UI_add_input_string       004c0950 f   libcrypto:ui_lib.obj
 0001:000bf980       _UI_add_verify_string      004c0980 f   libcrypto:ui_lib.obj
 0001:000bf9b0       _UI_create_method          004c09b0 f   libcrypto:ui_lib.obj
 0001:000bfa20       _UI_destroy_method         004c0a20 f   libcrypto:ui_lib.obj
 0001:000bfa60       _UI_free                   004c0a60 f   libcrypto:ui_lib.obj
 0001:000bfaa0       _UI_get0_action_string     004c0aa0 f   libcrypto:ui_lib.obj
 0001:000bfab0       _UI_get0_result_string     004c0ab0 f   libcrypto:ui_lib.obj
 0001:000bfad0       _UI_get0_test_string       004c0ad0 f   libcrypto:ui_lib.obj
 0001:000bfaf0       _UI_method_get_closer      004c0af0 f   libcrypto:ui_lib.obj
 0001:000bfb00       _BIO_ADDRINFO_family       004c0b00 f   libcrypto:b_addr.obj
 0001:000bfb00       _UI_method_get_opener      004c0b00 f   libcrypto:ui_lib.obj
 0001:000bfb10       _UI_method_get_reader      004c0b10 f   libcrypto:ui_lib.obj
 0001:000bfb20       _UI_method_get_writer      004c0b20 f   libcrypto:ui_lib.obj
 0001:000bfb20       _BIO_ADDRINFO_socktype     004c0b20 f   libcrypto:b_addr.obj
 0001:000bfb30       _UI_method_set_closer      004c0b30 f   libcrypto:ui_lib.obj
 0001:000bfb50       _UI_method_set_opener      004c0b50 f   libcrypto:ui_lib.obj
 0001:000bfb70       _UI_method_set_reader      004c0b70 f   libcrypto:ui_lib.obj
 0001:000bfb90       _UI_method_set_writer      004c0b90 f   libcrypto:ui_lib.obj
 0001:000bfbb0       _UI_new                    004c0bb0 f   libcrypto:ui_lib.obj
 0001:000bfbc0       _UI_new_method             004c0bc0 f   libcrypto:ui_lib.obj
 0001:000bfc70       _UI_process                004c0c70 f   libcrypto:ui_lib.obj
 0001:000bfde0       _UI_set_result             004c0de0 f   libcrypto:ui_lib.obj
 0001:000c0400       _UI_OpenSSL                004c1400 f   libcrypto:ui_openssl.obj
 0001:000c0410       _fprintf                   004c1410 f i libcrypto:ui_openssl.obj
 0001:000c0870       _ENGINE_add                004c1870 f   libcrypto:eng_list.obj
 0001:000c0910       _ENGINE_by_id              004c1910 f   libcrypto:eng_list.obj
 0001:000c0b10       _ENGINE_get_first          004c1b10 f   libcrypto:eng_list.obj
 0001:000c0b80       _ENGINE_get_next           004c1b80 f   libcrypto:eng_list.obj
 0001:000c0e60       _ENGINE_load_builtin_engines 004c1e60 f   libcrypto:eng_all.obj
 0001:000c0e80       _ENGINE_cmd_is_executable  004c1e80 f   libcrypto:eng_ctrl.obj
 0001:000c0ed0       _ENGINE_ctrl               004c1ed0 f   libcrypto:eng_ctrl.obj
 0001:000c0fe0       _ENGINE_ctrl_cmd           004c1fe0 f   libcrypto:eng_ctrl.obj
 0001:000c1080       _ENGINE_ctrl_cmd_string    004c2080 f   libcrypto:eng_ctrl.obj
 0001:000c14c0       _ENGINE_free               004c24c0 f   libcrypto:eng_lib.obj
 0001:000c1530       _ENGINE_get_ex_data        004c2530 f   libcrypto:eng_lib.obj
 0001:000c1540       _ENGINE_get_static_state   004c2540 f   libcrypto:eng_lib.obj
 0001:000c1550       _ENGINE_new                004c2550 f   libcrypto:eng_lib.obj
 0001:000c15e0       _ENGINE_set_cmd_defns      004c25e0 f   libcrypto:eng_lib.obj
 0001:000c1600       _ENGINE_set_ctrl_function  004c2600 f   libcrypto:eng_lib.obj
 0001:000c1620       _ENGINE_set_destroy_function 004c2620 f   libcrypto:eng_lib.obj
 0001:000c1620       _RSA_meth_set_sign         004c2620 f   libcrypto:rsa_meth.obj
 0001:000c1640       _ENGINE_set_ex_data        004c2640 f   libcrypto:eng_lib.obj
 0001:000c1650       _ENGINE_set_finish_function 004c2650 f   libcrypto:eng_lib.obj
 0001:000c1670       _ENGINE_set_flags          004c2670 f   libcrypto:eng_lib.obj
 0001:000c1690       _ENGINE_set_id             004c2690 f   libcrypto:eng_lib.obj
 0001:000c16d0       _ENGINE_set_init_function  004c26d0 f   libcrypto:eng_lib.obj
 0001:000c16f0       _ENGINE_set_name           004c26f0 f   libcrypto:eng_lib.obj
 0001:000c1730       _do_engine_lock_init_ossl_ 004c2730 f   libcrypto:eng_lib.obj
 0001:000c1760       _engine_cleanup_add_first  004c2760 f   libcrypto:eng_lib.obj
 0001:000c17b0       _engine_cleanup_add_last   004c27b0 f   libcrypto:eng_lib.obj
 0001:000c1820       _engine_cleanup_int        004c2820 f   libcrypto:eng_lib.obj
 0001:000c1850       _engine_free_util          004c2850 f   libcrypto:eng_lib.obj
 0001:000c18d0       _engine_set_all_null       004c28d0 f   libcrypto:eng_lib.obj
 0001:000c1950       _ENGINE_finish             004c2950 f   libcrypto:eng_init.obj
 0001:000c1a00       _ENGINE_init               004c2a00 f   libcrypto:eng_init.obj
 0001:000c1aa0       _engine_unlocked_finish    004c2aa0 f   libcrypto:eng_init.obj
 0001:000c1b30       _engine_unlocked_init      004c2b30 f   libcrypto:eng_init.obj
 0001:000c1b60       _ENGINE_load_private_key   004c2b60 f   libcrypto:eng_pkey.obj
 0001:000c1c20       _ENGINE_load_ssl_client_cert 004c2c20 f   libcrypto:eng_pkey.obj
 0001:000c1ce0       _ENGINE_set_load_privkey_function 004c2ce0 f   libcrypto:eng_pkey.obj
 0001:000c1d00       _ENGINE_set_load_ssl_client_cert_function 004c2d00 f   libcrypto:eng_pkey.obj
 0001:000c1d20       _ENGINE_register_all_complete 004c2d20 f   libcrypto:eng_fat.obj
 0001:000c1d80       _ENGINE_set_default        004c2d80 f   libcrypto:eng_fat.obj
 0001:000c1e50       _ENGINE_set_default_string 004c2e50 f   libcrypto:eng_fat.obj
 0001:000c2060       _MD5_Final                 004c3060 f   libcrypto:md5_dgst.obj
 0001:000c2180       _MD4_Init                  004c3180 f   libcrypto:md4_dgst.obj
 0001:000c2180       _MD5_Init                  004c3180 f   libcrypto:md5_dgst.obj
 0001:000c21c0       _MD5_Transform             004c31c0 f   libcrypto:md5_dgst.obj
 0001:000c21e0       _MD5_Update                004c31e0 f   libcrypto:md5_dgst.obj
 0001:000c22c0       _md5_block_data_order      004c32c0 f   libcrypto:md5_dgst.obj
 0001:000c2be0       _DES_ecb_encrypt           004c3be0 f   libcrypto:ecb_enc.obj
 0001:000c2c90       _DES_is_weak_key           004c3c90 f   libcrypto:set_key.obj
 0001:000c2cd0       _DES_set_key               004c3cd0 f   libcrypto:set_key.obj
 0001:000c2cf0       _DES_set_key_checked       004c3cf0 f   libcrypto:set_key.obj
 0001:000c2d40       _DES_set_key_unchecked     004c3d40 f   libcrypto:set_key.obj
 0001:000c2f80       _DES_set_odd_parity        004c3f80 f   libcrypto:set_key.obj
 0001:000c3000       _MD4_Final                 004c4000 f   libcrypto:md4_dgst.obj
 0001:000c3120       _MD4_Update                004c4120 f   libcrypto:md4_dgst.obj
 0001:000c3200       _md4_block_data_order      004c4200 f   libcrypto:md4_dgst.obj
 0001:000c3930       _SHA224_Init               004c4930 f   libcrypto:sha256.obj
 0001:000c3990       _SHA256_Final              004c4990 f   libcrypto:sha256.obj
 0001:000c3c70       _SHA256_Init               004c4c70 f   libcrypto:sha256.obj
 0001:000c3cd0       _SHA256_Transform          004c4cd0 f   libcrypto:sha256.obj
 0001:000c3cf0       _SHA256_Update             004c4cf0 f   libcrypto:sha256.obj
 0001:000c4ec0       _OBJ_add_object            004c5ec0 f   libcrypto:obj_dat.obj
 0001:000c5080       _OBJ_bsearch_              004c6080 f   libcrypto:obj_dat.obj
 0001:000c50a0       _OBJ_bsearch_ex_           004c60a0 f   libcrypto:obj_dat.obj
 0001:000c5160       _OBJ_create                004c6160 f   libcrypto:obj_dat.obj
 0001:000c5240       _OBJ_get0_data             004c6240 f   libcrypto:obj_dat.obj
 0001:000c5250       _OBJ_length                004c6250 f   libcrypto:obj_dat.obj
 0001:000c5260       _OBJ_ln2nid                004c6260 f   libcrypto:obj_dat.obj
 0001:000c5340       _OBJ_nid2ln                004c6340 f   libcrypto:obj_dat.obj
 0001:000c53e0       _OBJ_nid2obj               004c63e0 f   libcrypto:obj_dat.obj
 0001:000c5470       _OBJ_nid2sn                004c6470 f   libcrypto:obj_dat.obj
 0001:000c5500       _OBJ_obj2nid               004c6500 f   libcrypto:obj_dat.obj
 0001:000c55c0       _OBJ_obj2txt               004c65c0 f   libcrypto:obj_dat.obj
 0001:000c5910       _OBJ_sn2nid                004c6910 f   libcrypto:obj_dat.obj
 0001:000c59f0       _OBJ_txt2obj               004c69f0 f   libcrypto:obj_dat.obj
 0001:000c5d10       _obj_cleanup_int           004c6d10 f   libcrypto:obj_dat.obj
 0001:000c5df0       _CRYPTO_THREAD_cleanup_local 004c6df0 f   libcrypto:threads_none.obj
 0001:000c5e00       _CRYPTO_THREAD_compare_id  004c6e00 f   libcrypto:threads_none.obj
 0001:000c5e10       _CRYPTO_THREAD_get_local   004c6e10 f   libcrypto:threads_none.obj
 0001:000c5e30       _CRYPTO_THREAD_init_local  004c6e30 f   libcrypto:threads_none.obj
 0001:000c5e70       _CRYPTO_THREAD_lock_free   004c6e70 f   libcrypto:threads_none.obj
 0001:000c5e90       _CRYPTO_THREAD_lock_new    004c6e90 f   libcrypto:threads_none.obj
 0001:000c5eb0       _CRYPTO_THREAD_read_lock   004c6eb0 f   libcrypto:threads_none.obj
 0001:000c5ee0       _CRYPTO_THREAD_run_once    004c6ee0 f   libcrypto:threads_none.obj
 0001:000c5f00       _CRYPTO_THREAD_set_local   004c6f00 f   libcrypto:threads_none.obj
 0001:000c5f30       _CRYPTO_THREAD_unlock      004c6f30 f   libcrypto:threads_none.obj
 0001:000c5f60       _CRYPTO_THREAD_write_lock  004c6f60 f   libcrypto:threads_none.obj
 0001:000c5f90       _CRYPTO_atomic_add         004c6f90 f   libcrypto:threads_none.obj
 0001:000c5fb0       _OPENSSL_atexit            004c6fb0 f   libcrypto:init.obj
 0001:000c6000       _OPENSSL_cleanup           004c7000 f   libcrypto:init.obj
 0001:000c6120       _OPENSSL_init_crypto       004c7120 f   libcrypto:init.obj
 0001:000c6610       _ossl_init_thread_start    004c7610 f   libcrypto:init.obj
 0001:000c66e0       _OPENSSL_cleanse           004c76e0 f   libcrypto:mem_clr.obj
 0001:000c6700       _CRYPTO_memdup             004c7700 f   libcrypto:o_str.obj
 0001:000c6760       _CRYPTO_strdup             004c7760 f   libcrypto:o_str.obj
 0001:000c67b0       _CRYPTO_strndup            004c77b0 f   libcrypto:o_str.obj
 0001:000c6810       _OPENSSL_buf2hexstr        004c7810 f   libcrypto:o_str.obj
 0001:000c68b0       _OPENSSL_hexchar2int       004c78b0 f   libcrypto:o_str.obj
 0001:000c69b0       _OPENSSL_hexstr2buf        004c79b0 f   libcrypto:o_str.obj
 0001:000c6ad0       _OPENSSL_strlcat           004c7ad0 f   libcrypto:o_str.obj
 0001:000c6b30       _OPENSSL_strlcpy           004c7b30 f   libcrypto:o_str.obj
 0001:000c6b70       _OPENSSL_strnlen           004c7b70 f   libcrypto:o_str.obj
 0001:000c6b90       _openssl_strerror_r        004c7b90 f   libcrypto:o_str.obj
 0001:000c6bb0       _openssl_fopen             004c7bb0 f   libcrypto:o_fopen.obj
 0001:000c6d30       _BIO_sock_error            004c7d30 f   libcrypto:b_sock.obj
 0001:000c6d80       _BIO_sock_init             004c7d80 f   libcrypto:b_sock.obj
 0001:000c6e00       _BIO_socket_nbio           004c7e00 f   libcrypto:b_sock.obj
 0001:000c6e50       _bio_sock_cleanup_int      004c7e50 f   libcrypto:b_sock.obj
 0001:000c6e70       _BIO_ADDRINFO_address      004c7e70 f   libcrypto:b_addr.obj
 0001:000c6e80       _BIO_ADDRINFO_free         004c7e80 f   libcrypto:b_addr.obj
 0001:000c6e90       _BIO_ADDRINFO_next         004c7e90 f   libcrypto:b_addr.obj
 0001:000c6ea0       _BIO_ADDRINFO_protocol     004c7ea0 f   libcrypto:b_addr.obj
 0001:000c6ed0       _BIO_ADDR_hostname_string  004c7ed0 f   libcrypto:b_addr.obj
 0001:000c6f10       _BIO_ADDR_service_string   004c7f10 f   libcrypto:b_addr.obj
 0001:000c6f40       _BIO_ADDR_sockaddr         004c7f40 f   libcrypto:b_addr.obj
 0001:000c6f50       _BIO_ADDR_sockaddr_size    004c7f50 f   libcrypto:b_addr.obj
 0001:000c6f70       _BIO_lookup                004c7f70 f   libcrypto:b_addr.obj
 0001:000c7050       _BIO_parse_hostserv        004c8050 f   libcrypto:b_addr.obj
 0001:000c7460       _gai_strerrorW             004c8460 f i libcrypto:b_addr.obj
 0001:000c7490       _BUF_MEM_free              004c8490 f   libcrypto:buffer.obj
 0001:000c74f0       _BUF_MEM_grow              004c84f0 f   libcrypto:buffer.obj
 0001:000c75d0       _BUF_MEM_grow_clean        004c85d0 f   libcrypto:buffer.obj
 0001:000c76d0       _BUF_MEM_new               004c86d0 f   libcrypto:buffer.obj
 0001:000c7700       _BUF_MEM_new_ex            004c8700 f   libcrypto:buffer.obj
 0001:000c7740       _BUF_reverse               004c8740 f   libcrypto:buffer.obj
 0001:000c77f0       _CRYPTO_memcmp             004c87f0 f   libcrypto:cryptlib.obj
 0001:000c7820       _OPENSSL_die               004c8820 f   libcrypto:cryptlib.obj
 0001:000c7850       _OPENSSL_isservice         004c8850 f   libcrypto:cryptlib.obj
 0001:000c7990       _OPENSSL_showfatal         004c8990 f   libcrypto:cryptlib.obj
 0001:000c7be0       _BN_GENCB_free             004c8be0 f   libcrypto:bn_lib.obj
 0001:000c7c00       _BN_GENCB_new              004c8c00 f   libcrypto:bn_lib.obj
 0001:000c7c40       _BN_GENCB_set              004c8c40 f   libcrypto:bn_lib.obj
 0001:000c7c60       _BN_abs_is_word            004c8c60 f   libcrypto:bn_lib.obj
 0001:000c7c90       _BN_bin2bn                 004c8c90 f   libcrypto:bn_lib.obj
 0001:000c7e00       _BN_bn2bin                 004c8e00 f   libcrypto:bn_lib.obj
 0001:000c7e20       _BN_bn2binpad              004c8e20 f   libcrypto:bn_lib.obj
 0001:000c7e40       _BN_clear_free             004c8e40 f   libcrypto:bn_lib.obj
 0001:000c7ea0       _BN_cmp                    004c8ea0 f   libcrypto:bn_lib.obj
 0001:000c7f50       _BN_consttime_swap         004c8f50 f   libcrypto:bn_lib.obj
 0001:000c81f0       _BN_copy                   004c91f0 f   libcrypto:bn_lib.obj
 0001:000c82d0       _BN_dup                    004c92d0 f   libcrypto:bn_lib.obj
 0001:000c8360       _BN_free                   004c9360 f   libcrypto:bn_lib.obj
 0001:000c83d0       _BN_get_flags              004c93d0 f   libcrypto:bn_lib.obj
 0001:000c83e0       _BN_get_word               004c93e0 f   libcrypto:bn_lib.obj
 0001:000c8400       _BN_is_bit_set             004c9400 f   libcrypto:bn_lib.obj
 0001:000c8440       _BN_is_negative            004c9440 f   libcrypto:bn_lib.obj
 0001:000c8450       _BN_is_odd                 004c9450 f   libcrypto:bn_lib.obj
 0001:000c8470       _BN_is_one                 004c9470 f   libcrypto:bn_lib.obj
 0001:000c8490       _BN_is_word                004c9490 f   libcrypto:bn_lib.obj
 0001:000c84c0       _BN_is_zero                004c94c0 f   libcrypto:bn_lib.obj
 0001:000c84d0       _BN_mask_bits              004c94d0 f   libcrypto:bn_lib.obj
 0001:000c8540       _BN_new                    004c9540 f   libcrypto:bn_lib.obj
 0001:000c8580       _BN_num_bits               004c9580 f   libcrypto:bn_lib.obj
 0001:000c85f0       _BN_num_bits_word          004c95f0 f   libcrypto:bn_lib.obj
 0001:000c8640       _BN_secure_new             004c9640 f   libcrypto:bn_lib.obj
 0001:000c8680       _BN_security_bits          004c9680 f   libcrypto:bn_lib.obj
 0001:000c86f0       _BN_set_bit                004c96f0 f   libcrypto:bn_lib.obj
 0001:000c8770       _BN_set_flags              004c9770 f   libcrypto:bn_lib.obj
 0001:000c8780       _BN_set_negative           004c9780 f   libcrypto:bn_lib.obj
 0001:000c87b0       _BN_set_word               004c97b0 f   libcrypto:bn_lib.obj
 0001:000c87f0       _BN_to_montgomery          004c97f0 f   libcrypto:bn_lib.obj
 0001:000c8810       _BN_ucmp                   004c9810 f   libcrypto:bn_lib.obj
 0001:000c8860       _BN_value_one              004c9860 f   libcrypto:bn_lib.obj
 0001:000c8870       _BN_with_flags             004c9870 f   libcrypto:bn_lib.obj
 0001:000c8940       _bn_cmp_part_words         004c9940 f   libcrypto:bn_lib.obj
 0001:000c89e0       _bn_cmp_words              004c99e0 f   libcrypto:bn_lib.obj
 0001:000c8a30       _bn_correct_top            004c9a30 f   libcrypto:bn_lib.obj
 0001:000c8a60       _bn_expand2                004c9a60 f   libcrypto:bn_lib.obj
 0001:000c8c10       _bn_init                   004c9c10 f   libcrypto:bn_lib.obj
 0001:000c8c30       _bn_wexpand                004c9c30 f   libcrypto:bn_lib.obj
 0001:000c8c80       _BN_add_word               004c9c80 f   libcrypto:bn_word.obj
 0001:000c8d30       _BN_div_word               004c9d30 f   libcrypto:bn_word.obj
 0001:000c8e00       _BN_mod_word               004c9e00 f   libcrypto:bn_word.obj
 0001:000c8e70       _BN_mul_word               004c9e70 f   libcrypto:bn_word.obj
 0001:000c8ee0       _BN_sub_word               004c9ee0 f   libcrypto:bn_word.obj
 0001:000c8fb0       _BIO_dump                  004c9fb0 f   libcrypto:b_dump.obj
 0001:000c8fd0       _BIO_dump_indent           004c9fd0 f   libcrypto:b_dump.obj
 0001:000c8ff0       _BIO_dump_indent_cb        004c9ff0 f   libcrypto:b_dump.obj
 0001:000c92d0       _BIO_hex_string            004ca2d0 f   libcrypto:b_dump.obj
 0001:000c93b0       _OBJ_cmp                   004ca3b0 f   libcrypto:obj_lib.obj
 0001:000c9420       _OBJ_dup                   004ca420 f   libcrypto:obj_lib.obj
 0001:000c9500       _ASN1_ANY_it               004ca500 f   libcrypto:tasn_typ.obj
 0001:000c9510       _ASN1_UTF8STRING_free      004ca510 f   libcrypto:tasn_typ.obj
 0001:000c9510       _ASN1_INTEGER_free         004ca510 f   libcrypto:tasn_typ.obj
 0001:000c9510       _ASN1_BIT_STRING_free      004ca510 f   libcrypto:tasn_typ.obj
 0001:000c9510       _ASN1_ENUMERATED_free      004ca510 f   libcrypto:tasn_typ.obj
 0001:000c9510       _ASN1_GENERALIZEDTIME_free 004ca510 f   libcrypto:tasn_typ.obj
 0001:000c9510       _ASN1_OCTET_STRING_free    004ca510 f   libcrypto:tasn_typ.obj
 0001:000c9510       _ASN1_IA5STRING_free       004ca510 f   libcrypto:tasn_typ.obj
 0001:000c9510       _ASN1_UTCTIME_free         004ca510 f   libcrypto:tasn_typ.obj
 0001:000c9520       _ASN1_BIT_STRING_it        004ca520 f   libcrypto:tasn_typ.obj
 0001:000c9530       _ASN1_BIT_STRING_new       004ca530 f   libcrypto:tasn_typ.obj
 0001:000c9540       _ASN1_BOOLEAN_it           004ca540 f   libcrypto:tasn_typ.obj
 0001:000c9550       _ASN1_ENUMERATED_it        004ca550 f   libcrypto:tasn_typ.obj
 0001:000c9560       _ASN1_FBOOLEAN_it          004ca560 f   libcrypto:tasn_typ.obj
 0001:000c9570       _ASN1_GENERALIZEDTIME_it   004ca570 f   libcrypto:tasn_typ.obj
 0001:000c9580       _ASN1_GENERALIZEDTIME_new  004ca580 f   libcrypto:tasn_typ.obj
 0001:000c9590       _ASN1_IA5STRING_it         004ca590 f   libcrypto:tasn_typ.obj
 0001:000c95a0       _ASN1_IA5STRING_new        004ca5a0 f   libcrypto:tasn_typ.obj
 0001:000c95b0       _ASN1_INTEGER_it           004ca5b0 f   libcrypto:tasn_typ.obj
 0001:000c95c0       _ASN1_INTEGER_new          004ca5c0 f   libcrypto:tasn_typ.obj
 0001:000c95d0       _ASN1_NULL_it              004ca5d0 f   libcrypto:tasn_typ.obj
 0001:000c95e0       _ASN1_NULL_new             004ca5e0 f   libcrypto:tasn_typ.obj
 0001:000c95f0       _ASN1_OBJECT_it            004ca5f0 f   libcrypto:tasn_typ.obj
 0001:000c9600       _ASN1_OCTET_STRING_NDEF_it 004ca600 f   libcrypto:tasn_typ.obj
 0001:000c9610       _ASN1_OCTET_STRING_it      004ca610 f   libcrypto:tasn_typ.obj
 0001:000c9620       _ASN1_OCTET_STRING_new     004ca620 f   libcrypto:tasn_typ.obj
 0001:000c9630       _ASN1_PRINTABLE_it         004ca630 f   libcrypto:tasn_typ.obj
 0001:000c9640       _ASN1_SEQUENCE_it          004ca640 f   libcrypto:tasn_typ.obj
 0001:000c9650       _ASN1_TYPE_free            004ca650 f   libcrypto:tasn_typ.obj
 0001:000c9670       _ASN1_TYPE_new             004ca670 f   libcrypto:tasn_typ.obj
 0001:000c9680       _ASN1_UTCTIME_new          004ca680 f   libcrypto:tasn_typ.obj
 0001:000c9690       _ASN1_UTF8STRING_it        004ca690 f   libcrypto:tasn_typ.obj
 0001:000c96a0       _ASN1_UTF8STRING_new       004ca6a0 f   libcrypto:tasn_typ.obj
 0001:000c96b0       _ASN1_VISIBLESTRING_new    004ca6b0 f   libcrypto:tasn_typ.obj
 0001:000c96c0       _DIRECTORYSTRING_it        004ca6c0 f   libcrypto:tasn_typ.obj
 0001:000c96d0       _DISPLAYTEXT_it            004ca6d0 f   libcrypto:tasn_typ.obj
 0001:000c96e0       _d2i_ASN1_ENUMERATED       004ca6e0 f   libcrypto:tasn_typ.obj
 0001:000c9700       _d2i_ASN1_INTEGER          004ca700 f   libcrypto:tasn_typ.obj
 0001:000c9720       _d2i_ASN1_OCTET_STRING     004ca720 f   libcrypto:tasn_typ.obj
 0001:000c9740       _d2i_ASN1_SEQUENCE_ANY     004ca740 f   libcrypto:tasn_typ.obj
 0001:000c9760       _d2i_ASN1_TYPE             004ca760 f   libcrypto:tasn_typ.obj
 0001:000c9780       _i2d_ASN1_INTEGER          004ca780 f   libcrypto:tasn_typ.obj
 0001:000c97a0       _i2d_ASN1_OCTET_STRING     004ca7a0 f   libcrypto:tasn_typ.obj
 0001:000c97c0       _i2d_ASN1_SEQUENCE_ANY     004ca7c0 f   libcrypto:tasn_typ.obj
 0001:000c97e0       _i2d_ASN1_SET_ANY          004ca7e0 f   libcrypto:tasn_typ.obj
 0001:000c9800       _i2d_ASN1_TYPE             004ca800 f   libcrypto:tasn_typ.obj
 0001:000c9820       _UTF8_getc                 004ca820 f   libcrypto:a_utf8.obj
 0001:000c9ae0       _UTF8_putc                 004caae0 f   libcrypto:a_utf8.obj
 0001:000c9c60       _ASN1_parse_dump           004cac60 f   libcrypto:asn1_par.obj
 0001:000c9c90       _ASN1_tag2str              004cac90 f   libcrypto:asn1_par.obj
 0001:000ca620       _ASN1_mbstring_copy        004cb620 f   libcrypto:a_mbstr.obj
 0001:000ca650       _ASN1_mbstring_ncopy       004cb650 f   libcrypto:a_mbstr.obj
 0001:000cacd0       _X509_NAME_ENTRY_it        004cbcd0 f   libcrypto:x_name.obj
 0001:000cb000       _X509_NAME_ENTRY_dup       004cc000 f   libcrypto:x_name.obj
 0001:000cb020       _X509_NAME_ENTRY_free      004cc020 f   libcrypto:x_name.obj
 0001:000cb040       _X509_NAME_ENTRY_new       004cc040 f   libcrypto:x_name.obj
 0001:000cb050       _X509_NAME_dup             004cc050 f   libcrypto:x_name.obj
 0001:000cb070       _X509_NAME_free            004cc070 f   libcrypto:x_name.obj
 0001:000cb090       _X509_NAME_it              004cc090 f   libcrypto:x_name.obj
 0001:000cb0a0       _X509_NAME_new             004cc0a0 f   libcrypto:x_name.obj
 0001:000cb0b0       _X509_NAME_print           004cc0b0 f   libcrypto:x_name.obj
 0001:000cb1b0       _X509_NAME_set             004cc1b0 f   libcrypto:x_name.obj
 0001:000cb320       _d2i_X509_NAME             004cc320 f   libcrypto:x_name.obj
 0001:000cb340       _i2d_X509_NAME             004cc340 f   libcrypto:x_name.obj
 0001:000cb700       _OPENSSL_gmtime            004cc700 f   libcrypto:o_time.obj
 0001:000cb730       _OPENSSL_gmtime_adj        004cc730 f   libcrypto:o_time.obj
 0001:000cb810       _OPENSSL_gmtime_diff       004cc810 f   libcrypto:o_time.obj
 0001:000cbac0       _ASN1_UTCTIME_adj          004ccac0 f   libcrypto:a_utctm.obj
 0001:000cbc10       _ASN1_UTCTIME_check        004ccc10 f   libcrypto:a_utctm.obj
 0001:000cbc20       _ASN1_UTCTIME_print        004ccc20 f   libcrypto:a_utctm.obj
 0001:000cbd90       _asn1_utctime_to_tm        004ccd90 f   libcrypto:a_utctm.obj
 0001:000cbfa0       _ASN1_GENERALIZEDTIME_adj  004ccfa0 f   libcrypto:a_gentm.obj
 0001:000cc0f0       _ASN1_GENERALIZEDTIME_check 004cd0f0 f   libcrypto:a_gentm.obj
 0001:000cc100       _ASN1_GENERALIZEDTIME_print 004cd100 f   libcrypto:a_gentm.obj
 0001:000cc2c0       _ASN1_GENERALIZEDTIME_set_string 004cd2c0 f   libcrypto:a_gentm.obj
 0001:000cc340       _asn1_generalizedtime_to_tm 004cd340 f   libcrypto:a_gentm.obj
 0001:000cc580       _ASN1_item_ex_new          004cd580 f   libcrypto:tasn_new.obj
 0001:000cc5a0       _ASN1_item_new             004cd5a0 f   libcrypto:tasn_new.obj
 0001:000ccaf0       _ASN1_item_ex_free         004cdaf0 f   libcrypto:tasn_fre.obj
 0001:000ccb10       _ASN1_item_free            004cdb10 f   libcrypto:tasn_fre.obj
 0001:000ccd00       _asn1_primitive_free       004cdd00 f   libcrypto:tasn_fre.obj
 0001:000cce00       _asn1_template_free        004cde00 f   libcrypto:tasn_fre.obj
 0001:000ccec0       _ASN1_item_d2i             004cdec0 f   libcrypto:tasn_dec.obj
 0001:000ccf50       _ASN1_item_ex_d2i          004cdf50 f   libcrypto:tasn_dec.obj
 0001:000ccfa0       _ASN1_tag2bit              004cdfa0 f   libcrypto:tasn_dec.obj
 0001:000ce6a0       _ASN1_item_ex_i2d          004cf6a0 f   libcrypto:tasn_enc.obj
 0001:000ce9c0       _ASN1_item_i2d             004cf9c0 f   libcrypto:tasn_enc.obj
 0001:000cf270       _EVP_CIPHER_CTX_block_size 004d0270 f   libcrypto:evp_lib.obj
 0001:000cf280       _EVP_CIPHER_CTX_buf_noconst 004d0280 f   libcrypto:evp_lib.obj
 0001:000cf290       _EVP_CIPHER_CTX_get_cipher_data 004d0290 f   libcrypto:evp_lib.obj
 0001:000cf290       _X509_STORE_CTX_get_error  004d0290 f   libcrypto:x509_vfy.obj
 0001:000cf2a0       _EVP_CIPHER_CTX_iv_length  004d02a0 f   libcrypto:evp_lib.obj
 0001:000cf2b0       _EVP_CIPHER_CTX_iv_noconst 004d02b0 f   libcrypto:evp_lib.obj
 0001:000cf2c0       _EVP_CIPHER_CTX_key_length 004d02c0 f   libcrypto:evp_lib.obj
 0001:000cf2c0       _EC_GROUP_get_mont_data    004d02c0 f   libcrypto:ec_lib.obj
 0001:000cf2d0       _X509_STORE_CTX_get0_chain 004d02d0 f   libcrypto:x509_vfy.obj
 0001:000cf2d0       _EVP_CIPHER_CTX_num        004d02d0 f   libcrypto:evp_lib.obj
 0001:000cf2e0       _EVP_CIPHER_CTX_original_iv 004d02e0 f   libcrypto:evp_lib.obj
 0001:000cf2f0       _EVP_CIPHER_CTX_set_flags  004d02f0 f   libcrypto:evp_lib.obj
 0001:000cf300       _EVP_CIPHER_CTX_set_num    004d0300 f   libcrypto:evp_lib.obj
 0001:000cf310       _EVP_CIPHER_CTX_test_flags 004d0310 f   libcrypto:evp_lib.obj
 0001:000cf320       _EVP_CIPHER_asn1_to_param  004d0320 f   libcrypto:evp_lib.obj
 0001:000cf380       _EVP_CIPHER_get_asn1_iv    004d0380 f   libcrypto:evp_lib.obj
 0001:000cf3f0       _EVP_CIPHER_param_to_asn1  004d03f0 f   libcrypto:evp_lib.obj
 0001:000cf460       _EVP_CIPHER_set_asn1_iv    004d0460 f   libcrypto:evp_lib.obj
 0001:000cf4b0       _EVP_CIPHER_type           004d04b0 f   libcrypto:evp_lib.obj
 0001:000cf700       _EVP_Cipher                004d0700 f   libcrypto:evp_lib.obj
 0001:000cf710       _EVP_MD_CTX_clear_flags    004d0710 f   libcrypto:evp_lib.obj
 0001:000cf720       _EVP_MD_CTX_set_flags      004d0720 f   libcrypto:evp_lib.obj
 0001:000cf730       _EVP_PKEY_CTX_set_data     004d0730 f   libcrypto:pmeth_lib.obj
 0001:000cf730       _EVP_MD_CTX_set_update_fn  004d0730 f   libcrypto:evp_lib.obj
 0001:000cf730       _EC_GROUP_set_asn1_flag    004d0730 f   libcrypto:ec_lib.obj
 0001:000cf740       _EVP_MD_CTX_test_flags     004d0740 f   libcrypto:evp_lib.obj
 0001:000cf750       _EVP_MD_meth_free          004d0750 f   libcrypto:evp_lib.obj
 0001:000cf770       _EVP_MD_meth_new           004d0770 f   libcrypto:evp_lib.obj
 0001:000cf7a0       _EVP_MD_meth_set_app_datasize 004d07a0 f   libcrypto:evp_lib.obj
 0001:000cf7c0       _EVP_MD_meth_set_final     004d07c0 f   libcrypto:evp_lib.obj
 0001:000cf7c0       _EVP_CIPHER_meth_set_do_cipher 004d07c0 f   libcrypto:cmeth_lib.obj
 0001:000cf7c0       _RSA_meth_set_bn_mod_exp   004d07c0 f   libcrypto:rsa_meth.obj
 0001:000cf7c0       _ENGINE_set_RAND           004d07c0 f   libcrypto:tb_rand.obj
 0001:000cf7e0       _EVP_MD_meth_set_flags     004d07e0 f   libcrypto:evp_lib.obj
 0001:000cf7e0       _DSA_meth_set_verify       004d07e0 f   libcrypto:dsa_meth.obj
 0001:000cf7e0       _EVP_CIPHER_meth_set_iv_length 004d07e0 f   libcrypto:cmeth_lib.obj
 0001:000cf7e0       _RSA_meth_set_priv_enc     004d07e0 f   libcrypto:rsa_meth.obj
 0001:000cf7e0       _ENGINE_set_DSA            004d07e0 f   libcrypto:tb_dsa.obj
 0001:000cf800       _DSA_meth_set_mod_exp      004d0800 f   libcrypto:dsa_meth.obj
 0001:000cf800       _EVP_MD_meth_set_init      004d0800 f   libcrypto:evp_lib.obj
 0001:000cf800       _ENGINE_set_DH             004d0800 f   libcrypto:tb_dh.obj
 0001:000cf800       _RSA_meth_set_priv_dec     004d0800 f   libcrypto:rsa_meth.obj
 0001:000cf800       _EVP_CIPHER_meth_set_flags 004d0800 f   libcrypto:cmeth_lib.obj
 0001:000cf820       _EVP_MD_meth_set_input_blocksize 004d0820 f   libcrypto:evp_lib.obj
 0001:000cf840       _ENGINE_set_RSA            004d0840 f   libcrypto:tb_rsa.obj
 0001:000cf840       _RSA_meth_set_pub_dec      004d0840 f   libcrypto:rsa_meth.obj
 0001:000cf840       _EVP_MD_meth_set_result_size 004d0840 f   libcrypto:evp_lib.obj
 0001:000cf860       _ENGINE_set_EC             004d0860 f   libcrypto:tb_eckey.obj
 0001:000cf860       _RSA_meth_set_mod_exp      004d0860 f   libcrypto:rsa_meth.obj
 0001:000cf860       _DSA_meth_set_bn_mod_exp   004d0860 f   libcrypto:dsa_meth.obj
 0001:000cf860       _EVP_MD_meth_set_update    004d0860 f   libcrypto:evp_lib.obj
 0001:000cf860       _EVP_CIPHER_meth_set_init  004d0860 f   libcrypto:cmeth_lib.obj
 0001:000cf880       _EVP_MD_size               004d0880 f   libcrypto:evp_lib.obj
 0001:000cf8b0       _EVP_PKEY_CTX_ctrl         004d08b0 f   libcrypto:pmeth_lib.obj
 0001:000cf9a0       _EVP_PKEY_CTX_dup          004d09a0 f   libcrypto:pmeth_lib.obj
 0001:000cfa80       _EVP_PKEY_CTX_free         004d0a80 f   libcrypto:pmeth_lib.obj
 0001:000cfad0       _EVP_PKEY_CTX_hex2ctrl     004d0ad0 f   libcrypto:pmeth_lib.obj
 0001:000cfb30       _EVP_PKEY_CTX_new          004d0b30 f   libcrypto:pmeth_lib.obj
 0001:000cfb50       _EVP_PKEY_CTX_new_id       004d0b50 f   libcrypto:pmeth_lib.obj
 0001:000cfb70       _EVP_PKEY_CTX_str2ctrl     004d0b70 f   libcrypto:pmeth_lib.obj
 0001:000cfbb0       _EVP_PKEY_meth_find        004d0bb0 f   libcrypto:pmeth_lib.obj
 0001:000cfc30       _EVP_PKEY_meth_free        004d0c30 f   libcrypto:pmeth_lib.obj
 0001:000cfdc0       _ENGINE_get_digest         004d0dc0 f   libcrypto:tb_digest.obj
 0001:000cfe10       _ENGINE_get_digest_engine  004d0e10 f   libcrypto:tb_digest.obj
 0001:000cfe30       _ENGINE_register_digests   004d0e30 f   libcrypto:tb_digest.obj
 0001:000cfe80       _ENGINE_set_default_digests 004d0e80 f   libcrypto:tb_digest.obj
 0001:000cfed0       _EVP_CIPHER_meth_set_impl_ctx_size 004d0ed0 f   libcrypto:cmeth_lib.obj
 0001:000cfed0       _ENGINE_set_digests        004d0ed0 f   libcrypto:tb_digest.obj
 0001:000cfed0       _RSA_meth_set_finish       004d0ed0 f   libcrypto:rsa_meth.obj
 0001:000cff00       _SHA1_Final                004d0f00 f   libcrypto:sha1dgst.obj
 0001:000d0040       _SHA1_Init                 004d1040 f   libcrypto:sha1dgst.obj
 0001:000d0040       _RIPEMD160_Init            004d1040 f   libcrypto:rmd_dgst.obj
 0001:000d0080       _SHA1_Transform            004d1080 f   libcrypto:sha1dgst.obj
 0001:000d00a0       _SHA1_Update               004d10a0 f   libcrypto:sha1dgst.obj
 0001:000d16b0       _SHA384_Init               004d26b0 f   libcrypto:sha512.obj
 0001:000d1760       _SHA512_Final              004d2760 f   libcrypto:sha512.obj
 0001:000d1ce0       _SHA512_Init               004d2ce0 f   libcrypto:sha512.obj
 0001:000d1d90       _SHA512_Transform          004d2d90 f   libcrypto:sha512.obj
 0001:000d1db0       _SHA512_Update             004d2db0 f   libcrypto:sha512.obj
 0001:000d2500       _EVP_PKEY_asn1_find        004d3500 f   libcrypto:ameth_lib.obj
 0001:000d25c0       _EVP_PKEY_asn1_find_str    004d35c0 f   libcrypto:ameth_lib.obj
 0001:000d26c0       _EVP_PKEY_asn1_free        004d36c0 f   libcrypto:ameth_lib.obj
 0001:000d2710       _EVP_PKEY_asn1_get0_info   004d3710 f   libcrypto:ameth_lib.obj
 0001:000d2770       _EC_KEY_can_sign           004d3770 f   libcrypto:ec_key.obj
 0001:000d2790       _EC_KEY_clear_flags        004d3790 f   libcrypto:ec_key.obj
 0001:000d27a0       _EC_KEY_copy               004d37a0 f   libcrypto:ec_key.obj
 0001:000d2960       _EC_KEY_dup                004d3960 f   libcrypto:ec_key.obj
 0001:000d29a0       _EC_KEY_free               004d39a0 f   libcrypto:ec_key.obj
 0001:000d2a40       _EC_KEY_generate_key       004d3a40 f   libcrypto:ec_key.obj
 0001:000d2aa0       _EC_KEY_key2buf            004d3aa0 f   libcrypto:ec_key.obj
 0001:000d2ad0       _EC_KEY_new                004d3ad0 f   libcrypto:ec_key.obj
 0001:000d2ae0       _EC_KEY_new_by_curve_name  004d3ae0 f   libcrypto:ec_key.obj
 0001:000d2b30       _EC_KEY_oct2key            004d3b30 f   libcrypto:ec_key.obj
 0001:000d2ba0       _EC_KEY_oct2priv           004d3ba0 f   libcrypto:ec_key.obj
 0001:000d2be0       _EC_KEY_priv2buf           004d3be0 f   libcrypto:ec_key.obj
 0001:000d2cb0       _EC_KEY_set_flags          004d3cb0 f   libcrypto:ec_key.obj
 0001:000d2cc0       _EC_KEY_set_group          004d3cc0 f   libcrypto:ec_key.obj
 0001:000d2d00       _EC_KEY_up_ref             004d3d00 f   libcrypto:ec_key.obj
 0001:000d2d30       _ec_key_simple_check_key   004d3d30 f   libcrypto:ec_key.obj
 0001:000d2f40       _ec_key_simple_generate_key 004d3f40 f   libcrypto:ec_key.obj
 0001:000d3030       _ec_key_simple_generate_public_key 004d4030 f   libcrypto:ec_key.obj
 0001:000d3050       _ec_key_simple_oct2priv    004d4050 f   libcrypto:ec_key.obj
 0001:000d30d0       _ec_key_simple_priv2oct    004d40d0 f   libcrypto:ec_key.obj
 0001:000d3140       _ossl_ec_key_gen           004d4140 f   libcrypto:ec_key.obj
 0001:000d3180       _X509_ATTRIBUTE_create     004d4180 f   libcrypto:x_attrib.obj
 0001:000d31f0       _X509_ATTRIBUTE_dup        004d41f0 f   libcrypto:x_attrib.obj
 0001:000d3210       _X509_ATTRIBUTE_free       004d4210 f   libcrypto:x_attrib.obj
 0001:000d3230       _X509_ATTRIBUTE_it         004d4230 f   libcrypto:x_attrib.obj
 0001:000d3240       _X509_ATTRIBUTE_new        004d4240 f   libcrypto:x_attrib.obj
 0001:000d3250       _BN_BLINDING_convert_ex    004d4250 f   libcrypto:bn_blind.obj
 0001:000d32e0       _BN_BLINDING_create_param  004d42e0 f   libcrypto:bn_blind.obj
 0001:000d3470       _BN_BLINDING_free          004d4470 f   libcrypto:bn_blind.obj
 0001:000d34c0       _BN_BLINDING_invert_ex     004d44c0 f   libcrypto:bn_blind.obj
 0001:000d3510       _BN_BLINDING_is_current_thread 004d4510 f   libcrypto:bn_blind.obj
 0001:000d3530       _BN_BLINDING_lock          004d4530 f   libcrypto:bn_blind.obj
 0001:000d3540       _BN_BLINDING_new           004d4540 f   libcrypto:bn_blind.obj
 0001:000d3630       _BN_BLINDING_set_current_thread 004d4630 f   libcrypto:bn_blind.obj
 0001:000d3640       _BN_BLINDING_unlock        004d4640 f   libcrypto:bn_blind.obj
 0001:000d3650       _BN_BLINDING_update        004d4650 f   libcrypto:bn_blind.obj
 0001:000d4710       _RSA_PKCS1_OpenSSL         004d5710 f   libcrypto:rsa_ossl.obj
 0001:000d4800       _ENGINE_get_default_RSA    004d5800 f   libcrypto:tb_rsa.obj
 0001:000d4810       _ENGINE_register_RSA       004d5810 f   libcrypto:tb_rsa.obj
 0001:000d4840       _ENGINE_set_default_RSA    004d5840 f   libcrypto:tb_rsa.obj
 0001:000d4880       _BN_CTX_end                004d5880 f   libcrypto:bn_ctx.obj
 0001:000d48c0       _BN_CTX_free               004d58c0 f   libcrypto:bn_ctx.obj
 0001:000d4900       _BN_CTX_get                004d5900 f   libcrypto:bn_ctx.obj
 0001:000d4960       _BN_CTX_new                004d5960 f   libcrypto:bn_ctx.obj
 0001:000d49d0       _BN_CTX_start              004d59d0 f   libcrypto:bn_ctx.obj
 0001:000d4c30       _BN_add                    004d5c30 f   libcrypto:bn_add.obj
 0001:000d4cc0       _BN_sub                    004d5cc0 f   libcrypto:bn_add.obj
 0001:000d4d80       _BN_uadd                   004d5d80 f   libcrypto:bn_add.obj
 0001:000d4e30       _BN_usub                   004d5e30 f   libcrypto:bn_add.obj
 0001:000d4f00       _BN_mul                    004d5f00 f   libcrypto:bn_mul.obj
 0001:000d5180       _bn_mul_normal             004d6180 f   libcrypto:bn_mul.obj
 0001:000d5290       _bn_mul_part_recursive     004d6290 f   libcrypto:bn_mul.obj
 0001:000d5770       _bn_mul_recursive          004d6770 f   libcrypto:bn_mul.obj
 0001:000d5b50       _bn_sub_part_words         004d6b50 f   libcrypto:bn_mul.obj
 0001:000d5cc0       _BN_gcd                    004d6cc0 f   libcrypto:bn_gcd.obj
 0001:000d5d60       _BN_mod_inverse            004d6d60 f   libcrypto:bn_gcd.obj
 0001:000d6110       _int_bn_mod_inverse        004d7110 f   libcrypto:bn_gcd.obj
 0001:000d6710       _bn_compute_wNAF           004d7710 f   libcrypto:bn_intern.obj
 0001:000d6930       _bn_set_all_zero           004d7930 f   libcrypto:bn_intern.obj
 0001:000d6c80       _DH_OpenSSL                004d7c80 f   libcrypto:dh_key.obj
 0001:000d6c90       _DH_compute_key            004d7c90 f   libcrypto:dh_key.obj
 0001:000d6ca0       _DH_compute_key_padded     004d7ca0 f   libcrypto:dh_key.obj
 0001:000d6d10       _DH_generate_key           004d7d10 f   libcrypto:dh_key.obj
 0001:000d6d20       _ENGINE_get_default_DH     004d7d20 f   libcrypto:tb_dh.obj
 0001:000d6d30       _ENGINE_register_DH        004d7d30 f   libcrypto:tb_dh.obj
 0001:000d6d60       _ENGINE_set_default_DH     004d7d60 f   libcrypto:tb_dh.obj
 0001:000d72a0       _DSA_OpenSSL               004d82a0 f   libcrypto:dsa_ossl.obj
 0001:000d7480       _ENGINE_get_default_DSA    004d8480 f   libcrypto:tb_dsa.obj
 0001:000d7490       _ENGINE_register_DSA       004d8490 f   libcrypto:tb_dsa.obj
 0001:000d74c0       _ENGINE_set_default_DSA    004d84c0 f   libcrypto:tb_dsa.obj
 0001:000d7500       _X509_VERIFY_PARAM_free    004d8500 f   libcrypto:x509_vpm.obj
 0001:000d7530       _X509_VERIFY_PARAM_inherit 004d8530 f   libcrypto:x509_vpm.obj
 0001:000d76e0       _X509_VERIFY_PARAM_lookup  004d86e0 f   libcrypto:x509_vpm.obj
 0001:000d7740       _X509_VERIFY_PARAM_move_peername 004d8740 f   libcrypto:x509_vpm.obj
 0001:000d7790       _X509_VERIFY_PARAM_new     004d8790 f   libcrypto:x509_vpm.obj
 0001:000d77c0       _X509_VERIFY_PARAM_set1    004d87c0 f   libcrypto:x509_vpm.obj
 0001:000d77f0       _X509_VERIFY_PARAM_set1_ip 004d87f0 f   libcrypto:x509_vpm.obj
 0001:000d7820       _X509_VERIFY_PARAM_set1_policies 004d8820 f   libcrypto:x509_vpm.obj
 0001:000d78d0       _X509_VERIFY_PARAM_set_flags 004d88d0 f   libcrypto:x509_vpm.obj
 0001:000d7dd0       _X509_REVOKED_it           004d8dd0 f   libcrypto:x_crl.obj
 0001:000d7de0       _X509_CRL_INFO_it          004d8de0 f   libcrypto:x_crl.obj
 0001:000d7df0       _X509_CRL_free             004d8df0 f   libcrypto:x_crl.obj
 0001:000d7e10       _X509_CRL_get0_by_cert     004d8e10 f   libcrypto:x_crl.obj
 0001:000d7e50       _X509_CRL_it               004d8e50 f   libcrypto:x_crl.obj
 0001:000d7e60       _X509_CRL_verify           004d8e60 f   libcrypto:x_crl.obj
 0001:000d80c0       _d2i_X509_CRL              004d90c0 f   libcrypto:x_crl.obj
 0001:000d8170       _X509_CRL_up_ref           004d9170 f   libcrypto:x509cset.obj
 0001:000d81a0       _X509_STORE_CTX_cleanup    004d91a0 f   libcrypto:x509_vfy.obj
 0001:000d8220       _X509_STORE_CTX_free       004d9220 f   libcrypto:x509_vfy.obj
 0001:000d8250       _X509_STORE_CTX_get1_chain 004d9250 f   libcrypto:x509_vfy.obj
 0001:000d8270       _X509_STORE_CTX_init       004d9270 f   libcrypto:x509_vfy.obj
 0001:000d84e0       _X509_STORE_CTX_new        004d94e0 f   libcrypto:x509_vfy.obj
 0001:000d8520       _X509_STORE_CTX_purpose_inherit 004d9520 f   libcrypto:x509_vfy.obj
 0001:000d8600       _X509_STORE_CTX_set0_dane  004d9600 f   libcrypto:x509_vfy.obj
 0001:000d8610       _X509_STORE_CTX_set_default 004d9610 f   libcrypto:x509_vfy.obj
 0001:000d8640       _X509_STORE_CTX_set_ex_data 004d9640 f   libcrypto:x509_vfy.obj
 0001:000d8650       _X509_STORE_CTX_set_flags  004d9650 f   libcrypto:x509_vfy.obj
 0001:000d8670       _X509_STORE_CTX_set_purpose 004d9670 f   libcrypto:x509_vfy.obj
 0001:000d8690       _X509_STORE_CTX_set_verify_cb 004d9690 f   libcrypto:x509_vfy.obj
 0001:000d86a0       _X509_cmp_time             004d96a0 f   libcrypto:x509_vfy.obj
 0001:000d8970       _X509_get_pubkey_parameters 004d9970 f   libcrypto:x509_vfy.obj
 0001:000d8a60       _X509_gmtime_adj           004d9a60 f   libcrypto:x509_vfy.obj
 0001:000d8af0       _X509_time_adj_ex          004d9af0 f   libcrypto:x509_vfy.obj
 0001:000d8b90       _X509_verify_cert          004d9b90 f   libcrypto:x509_vfy.obj
 0001:000dba90       _x509_check_cert_time      004dca90 f   libcrypto:x509_vfy.obj
 0001:000dbbd0       _X509_CRL_digest           004dcbd0 f   libcrypto:x_all.obj
 0001:000dbc30       _X509_NAME_digest          004dcc30 f   libcrypto:x_all.obj
 0001:000dbc50       _X509_digest               004dcc50 f   libcrypto:x_all.obj
 0001:000dbcb0       _X509_pubkey_digest        004dccb0 f   libcrypto:x_all.obj
 0001:000dbce0       _X509_verify               004dcce0 f   libcrypto:x_all.obj
 0001:000dbd20       _d2i_PrivateKey_bio        004dcd20 f   libcrypto:x_all.obj
 0001:000dbd40       _d2i_X509_CRL_bio          004dcd40 f   libcrypto:x_all.obj
 0001:000dbd60       _d2i_X509_bio              004dcd60 f   libcrypto:x_all.obj
 0001:000dbd80       _X509_get_default_cert_area 004dcd80 f   libcrypto:x509_def.obj
 0001:000dbd90       _X509_get_default_cert_dir 004dcd90 f   libcrypto:x509_def.obj
 0001:000dbda0       _X509_get_default_cert_dir_env 004dcda0 f   libcrypto:x509_def.obj
 0001:000dbdb0       _X509_get_default_cert_file 004dcdb0 f   libcrypto:x509_def.obj
 0001:000dbdc0       _X509_get_default_cert_file_env 004dcdc0 f   libcrypto:x509_def.obj
 0001:000dbdd0       _X509_INFO_free            004dcdd0 f   libcrypto:x_info.obj
 0001:000dbe20       _X509_INFO_new             004dce20 f   libcrypto:x_info.obj
 0001:000dbe50       _PEM_X509_INFO_read_bio    004dce50 f   libcrypto:pem_info.obj
 0001:000dc3e0       _PEM_read_bio_X509_AUX     004dd3e0 f   libcrypto:pem_xaux.obj
 0001:000dc410       _PEM_read_bio_X509_CRL     004dd410 f   libcrypto:pem_all.obj
 0001:000dc440       _ERR_print_errors          004dd440 f   libcrypto:err_prn.obj
 0001:000dc460       _ERR_print_errors_cb       004dd460 f   libcrypto:err_prn.obj
 0001:000dc560       _ASN1_ENUMERATED_get       004dd560 f   libcrypto:a_int.obj
 0001:000dc5d0       _ASN1_ENUMERATED_to_BN     004dd5d0 f   libcrypto:a_int.obj
 0001:000dc5f0       _ASN1_INTEGER_cmp          004dd5f0 f   libcrypto:a_int.obj
 0001:000dc630       _ASN1_INTEGER_dup          004dd630 f   libcrypto:a_int.obj
 0001:000dc630       _ASN1_OCTET_STRING_dup     004dd630 f   libcrypto:a_octet.obj
 0001:000dc640       _ASN1_INTEGER_get          004dd640 f   libcrypto:a_int.obj
 0001:000dc6a0       _ASN1_INTEGER_get_uint64   004dd6a0 f   libcrypto:a_int.obj
 0001:000dc6c0       _ASN1_INTEGER_set          004dd6c0 f   libcrypto:a_int.obj
 0001:000dc6e0       _ASN1_INTEGER_to_BN        004dd6e0 f   libcrypto:a_int.obj
 0001:000dc700       _BN_to_ASN1_INTEGER        004dd700 f   libcrypto:a_int.obj
 0001:000dcbd0       _c2i_ASN1_INTEGER          004ddbd0 f   libcrypto:a_int.obj
 0001:000dcdb0       _c2i_uint64_int            004dddb0 f   libcrypto:a_int.obj
 0001:000dce60       _i2c_ASN1_INTEGER          004dde60 f   libcrypto:a_int.obj
 0001:000dcf40       _i2c_uint64_int            004ddf40 f   libcrypto:a_int.obj
 0001:000dd010       _OBJ_find_sigid_algs       004de010 f   libcrypto:obj_xref.obj
 0001:000dd0d0       _OBJ_find_sigid_by_algs    004de0d0 f   libcrypto:obj_xref.obj
 0001:000dd190       _OBJ_sigid_free            004de190 f   libcrypto:obj_xref.obj
 0001:000dd210       _X509_CERT_AUX_free        004de210 f   libcrypto:x_x509a.obj
 0001:000dd230       _X509_alias_get0           004de230 f   libcrypto:x_x509a.obj
 0001:000dd270       _X509_alias_set1           004de270 f   libcrypto:x_x509a.obj
 0001:000dd310       _X509_get0_reject_objects  004de310 f   libcrypto:x_x509a.obj
 0001:000dd330       _X509_get0_trust_objects   004de330 f   libcrypto:x_x509a.obj
 0001:000dd350       _X509_keyid_get0           004de350 f   libcrypto:x_x509a.obj
 0001:000dd390       _X509_keyid_set1           004de390 f   libcrypto:x_x509a.obj
 0001:000dd430       _X509_trusted              004de430 f   libcrypto:x_x509a.obj
 0001:000dd440       _d2i_X509_CERT_AUX         004de440 f   libcrypto:x_x509a.obj
 0001:000dd460       _X509_ALGOR_it             004de460 f   libcrypto:x_algor.obj
 0001:000dd470       _X509_ALGOR_cmp            004de470 f   libcrypto:x_algor.obj
 0001:000dd4b0       _X509_ALGOR_free           004de4b0 f   libcrypto:x_algor.obj
 0001:000dd4d0       _X509_ALGOR_get0           004de4d0 f   libcrypto:x_algor.obj
 0001:000dd510       _X509_ALGOR_new            004de510 f   libcrypto:x_algor.obj
 0001:000dd520       _X509_ALGOR_set0           004de520 f   libcrypto:x_algor.obj
 0001:000dd5a0       _X509_ALGOR_set_md         004de5a0 f   libcrypto:x_algor.obj
 0001:000dd5e0       _d2i_X509_ALGOR            004de5e0 f   libcrypto:x_algor.obj
 0001:000dd600       _i2d_X509_ALGOR            004de600 f   libcrypto:x_algor.obj
 0001:000dd620       _X509_VAL_it               004de620 f   libcrypto:x_val.obj
 0001:000dd630       _X509_EXTENSION_it         004de630 f   libcrypto:x_exten.obj
 0001:000dd640       _X509_EXTENSION_free       004de640 f   libcrypto:x_exten.obj
 0001:000dd660       _d2i_X509_EXTENSIONS       004de660 f   libcrypto:x_exten.obj
 0001:000dd680       _i2d_X509_EXTENSIONS       004de680 f   libcrypto:x_exten.obj
 0001:000dd6a0       _ASN1_item_dup             004de6a0 f   libcrypto:a_dup.obj
 0001:000dd720       _AUTHORITY_KEYID_free      004de720 f   libcrypto:v3_akeya.obj
 0001:000dd740       _AUTHORITY_KEYID_it        004de740 f   libcrypto:v3_akeya.obj
 0001:000dd750       _AUTHORITY_KEYID_new       004de750 f   libcrypto:v3_akeya.obj
 0001:000ddce0       _CRL_DIST_POINTS_it        004dece0 f   libcrypto:v3_crld.obj
 0001:000ddcf0       _DIST_POINT_it             004decf0 f   libcrypto:v3_crld.obj
 0001:000ddd40       _DIST_POINT_NAME_it        004ded40 f   libcrypto:v3_crld.obj
 0001:000ddd50       _ISSUING_DIST_POINT_it     004ded50 f   libcrypto:v3_crld.obj
 0001:000ddd60       _CRL_DIST_POINTS_free      004ded60 f   libcrypto:v3_crld.obj
 0001:000ddd80       _DIST_POINT_free           004ded80 f   libcrypto:v3_crld.obj
 0001:000ddda0       _DIST_POINT_set_dpname     004deda0 f   libcrypto:v3_crld.obj
 0001:000dde50       _ISSUING_DIST_POINT_free   004dee50 f   libcrypto:v3_crld.obj
 0001:000de660       _GENERAL_SUBTREE_it        004df660 f   libcrypto:v3_ncons.obj
 0001:000de670       _NAME_CONSTRAINTS_it       004df670 f   libcrypto:v3_ncons.obj
 0001:000de680       _NAME_CONSTRAINTS_check    004df680 f   libcrypto:v3_ncons.obj
 0001:000de790       _NAME_CONSTRAINTS_check_CN 004df790 f   libcrypto:v3_ncons.obj
 0001:000de970       _NAME_CONSTRAINTS_free     004df970 f   libcrypto:v3_ncons.obj
 0001:000df390       _ASRange_it                004e0390 f   libcrypto:v3_asid.obj
 0001:000df3a0       _ASIdOrRange_it            004e03a0 f   libcrypto:v3_asid.obj
 0001:000df400       _ASIdentifierChoice_it     004e0400 f   libcrypto:v3_asid.obj
 0001:000df410       _ASIdentifiers_it          004e0410 f   libcrypto:v3_asid.obj
 0001:000df520       _ASIdOrRange_free          004e0520 f   libcrypto:v3_asid.obj
 0001:000dfac0       _ASIdentifiers_free        004e0ac0 f   libcrypto:v3_asid.obj
 0001:000dfae0       _X509v3_asid_add_id_or_range 004e0ae0 f   libcrypto:v3_asid.obj
 0001:000dfc00       _X509v3_asid_add_inherit   004e0c00 f   libcrypto:v3_asid.obj
 0001:000dfc80       _X509v3_asid_validate_path 004e0c80 f   libcrypto:v3_asid.obj
 0001:000e0450       _IPAddressRange_it         004e1450 f   libcrypto:v3_addr.obj
 0001:000e0460       _IPAddressOrRange_it       004e1460 f   libcrypto:v3_addr.obj
 0001:000e0470       _IPAddressChoice_it        004e1470 f   libcrypto:v3_addr.obj
 0001:000e0480       _IPAddressFamily_it        004e1480 f   libcrypto:v3_addr.obj
 0001:000e0dd0       _IPAddressFamily_free      004e1dd0 f   libcrypto:v3_addr.obj
 0001:000e13b0       _X509v3_addr_add_inherit   004e23b0 f   libcrypto:v3_addr.obj
 0001:000e1420       _X509v3_addr_add_prefix    004e2420 f   libcrypto:v3_addr.obj
 0001:000e1490       _X509v3_addr_add_range     004e2490 f   libcrypto:v3_addr.obj
 0001:000e1510       _X509v3_addr_canonize      004e2510 f   libcrypto:v3_addr.obj
 0001:000e15c0       _X509v3_addr_is_canonical  004e25c0 f   libcrypto:v3_addr.obj
 0001:000e1a70       _X509v3_addr_validate_path 004e2a70 f   libcrypto:v3_addr.obj
 0001:000e2d40       _policy_cache_find_data    004e3d40 f   libcrypto:pcy_cache.obj
 0001:000e2d90       _policy_cache_free         004e3d90 f   libcrypto:pcy_cache.obj
 0001:000e2f80       _policy_cache_set          004e3f80 f   libcrypto:pcy_cache.obj
 0001:000e3010       _EC_GROUP_clear_free       004e4010 f   libcrypto:ec_lib.obj
 0001:000e30c0       _EC_GROUP_cmp              004e40c0 f   libcrypto:ec_lib.obj
 0001:000e3280       _EC_GROUP_copy             004e4280 f   libcrypto:ec_lib.obj
 0001:000e3460       _EC_GROUP_dup              004e4460 f   libcrypto:ec_lib.obj
 0001:000e34a0       _EC_GROUP_free             004e44a0 f   libcrypto:ec_lib.obj
 0001:000e3540       _EC_GROUP_get_cofactor     004e4540 f   libcrypto:ec_lib.obj
 0001:000e3580       _EC_GROUP_get_curve_GF2m   004e4580 f   libcrypto:ec_lib.obj
 0001:000e35c0       _EC_GROUP_get_curve_GFp    004e45c0 f   libcrypto:ec_lib.obj
 0001:000e3600       _EC_GROUP_get_degree       004e4600 f   libcrypto:ec_lib.obj
 0001:000e3640       _EC_GROUP_have_precompute_mult 004e4640 f   libcrypto:ec_lib.obj
 0001:000e3670       _EC_GROUP_new              004e4670 f   libcrypto:ec_lib.obj
 0001:000e3750       _EC_GROUP_order_bits       004e4750 f   libcrypto:ec_lib.obj
 0001:000e3790       _EC_GROUP_set_curve_GF2m   004e4790 f   libcrypto:ec_lib.obj
 0001:000e37d0       _EC_GROUP_set_curve_GFp    004e47d0 f   libcrypto:ec_lib.obj
 0001:000e3800       _EC_GROUP_set_generator    004e4800 f   libcrypto:ec_lib.obj
 0001:000e38e0       _EC_GROUP_set_seed         004e48e0 f   libcrypto:ec_lib.obj
 0001:000e3960       _EC_POINT_add              004e4960 f   libcrypto:ec_lib.obj
 0001:000e39e0       _EC_POINT_clear_free       004e49e0 f   libcrypto:ec_lib.obj
 0001:000e3a20       _EC_POINT_cmp              004e4a20 f   libcrypto:ec_lib.obj
 0001:000e3a90       _EC_POINT_copy             004e4a90 f   libcrypto:ec_lib.obj
 0001:000e3b00       _EC_POINT_dbl              004e4b00 f   libcrypto:ec_lib.obj
 0001:000e3b70       _EC_POINT_free             004e4b70 f   libcrypto:ec_lib.obj
 0001:000e3ba0       _EC_POINT_get_affine_coordinates_GF2m 004e4ba0 f   libcrypto:ec_lib.obj
 0001:000e3c10       _EC_POINT_get_affine_coordinates_GFp 004e4c10 f   libcrypto:ec_lib.obj
 0001:000e3c80       _EC_POINT_invert           004e4c80 f   libcrypto:ec_lib.obj
 0001:000e3ce0       _EC_POINT_is_at_infinity   004e4ce0 f   libcrypto:ec_lib.obj
 0001:000e3d40       _EC_POINT_is_on_curve      004e4d40 f   libcrypto:ec_lib.obj
 0001:000e3da0       _EC_POINT_make_affine      004e4da0 f   libcrypto:ec_lib.obj
 0001:000e3e00       _EC_POINT_mul              004e4e00 f   libcrypto:ec_lib.obj
 0001:000e3e80       _EC_POINT_new              004e4e80 f   libcrypto:ec_lib.obj
 0001:000e3f30       _EC_POINT_set_Jprojective_coordinates_GFp 004e4f30 f   libcrypto:ec_lib.obj
 0001:000e3fa0       _EC_POINT_set_affine_coordinates_GF2m 004e4fa0 f   libcrypto:ec_lib.obj
 0001:000e4040       _EC_POINT_set_affine_coordinates_GFp 004e5040 f   libcrypto:ec_lib.obj
 0001:000e40e0       _EC_POINT_set_to_infinity  004e50e0 f   libcrypto:ec_lib.obj
 0001:000e4140       _EC_POINTs_make_affine     004e5140 f   libcrypto:ec_lib.obj
 0001:000e41c0       _EC_pre_comp_free          004e51c0 f   libcrypto:ec_lib.obj
 0001:000e41e0       _ec_group_simple_order_bits 004e51e0 f   libcrypto:ec_lib.obj
 0001:000e4200       _ec_precompute_mont_data   004e5200 f   libcrypto:ec_lib.obj
 0001:000e4270       _X509_NAME_oneline         004e5270 f   libcrypto:x509_obj.obj
 0001:000e45f0       _ASN1_STRING_TABLE_add     004e55f0 f   libcrypto:a_strnid.obj
 0001:000e4660       _ASN1_STRING_TABLE_cleanup 004e5660 f   libcrypto:a_strnid.obj
 0001:000e4690       _ASN1_STRING_TABLE_get     004e5690 f   libcrypto:a_strnid.obj
 0001:000e4710       _ASN1_STRING_set_by_NID    004e5710 f   libcrypto:a_strnid.obj
 0001:000e4890       _X509V3_EXT_d2i            004e5890 f   libcrypto:v3_lib.obj
 0001:000e4920       _X509V3_EXT_get            004e5920 f   libcrypto:v3_lib.obj
 0001:000e4940       _X509V3_EXT_get_nid        004e5940 f   libcrypto:v3_lib.obj
 0001:000e49c0       _X509V3_get_d2i            004e59c0 f   libcrypto:v3_lib.obj
 0001:000e4ab0       _ASN1_OCTET_STRING_cmp     004e5ab0 f   libcrypto:a_octet.obj
 0001:000e4ac0       _ASN1_OCTET_STRING_set     004e5ac0 f   libcrypto:a_octet.obj
 0001:000e4ac0       _ASN1_BIT_STRING_set       004e5ac0 f   libcrypto:a_bitstr.obj
 0001:000e4ad0       _PEM_ASN1_read_bio         004e5ad0 f   libcrypto:pem_oth.obj
 0001:000e4b70       _PEM_ASN1_write_bio        004e5b70 f   libcrypto:pem_lib.obj
 0001:000e4f70       _PEM_bytes_read_bio        004e5f70 f   libcrypto:pem_lib.obj
 0001:000e5150       _PEM_def_callback          004e6150 f   libcrypto:pem_lib.obj
 0001:000e5230       _PEM_dek_info              004e6230 f   libcrypto:pem_lib.obj
 0001:000e52e0       _PEM_do_header             004e62e0 f   libcrypto:pem_lib.obj
 0001:000e5490       _PEM_get_EVP_CIPHER_INFO   004e6490 f   libcrypto:pem_lib.obj
 0001:000e56d0       _PEM_proc_type             004e66d0 f   libcrypto:pem_lib.obj
 0001:000e5740       _PEM_read_bio              004e6740 f   libcrypto:pem_lib.obj
 0001:000e5d30       _PEM_write_bio             004e6d30 f   libcrypto:pem_lib.obj
 0001:000e6580       _pem_check_suffix          004e7580 f   libcrypto:pem_lib.obj
 0001:000e6b60       _RAND_OpenSSL              004e7b60 f   libcrypto:md_rand.obj
 0001:000e71b0       _ENGINE_get_default_RAND   004e81b0 f   libcrypto:tb_rand.obj
 0001:000e71c0       _ENGINE_register_RAND      004e81c0 f   libcrypto:tb_rand.obj
 0001:000e71f0       _ENGINE_set_default_RAND   004e81f0 f   libcrypto:tb_rand.obj
 0001:000e7230       _CONF_free                 004e8230 f   libcrypto:conf_lib.obj
 0001:000e7270       _CONF_get_section          004e8270 f   libcrypto:conf_lib.obj
 0001:000e72f0       _CONF_get_string           004e82f0 f   libcrypto:conf_lib.obj
 0001:000e7380       _NCONF_free                004e8380 f   libcrypto:conf_lib.obj
 0001:000e73a0       _NCONF_get_number_e        004e83a0 f   libcrypto:conf_lib.obj
 0001:000e7440       _NCONF_get_section         004e8440 f   libcrypto:conf_lib.obj
 0001:000e74a0       _NCONF_get_string          004e84a0 f   libcrypto:conf_lib.obj
 0001:000e7510       _NCONF_load                004e8510 f   libcrypto:conf_lib.obj
 0001:000e7540       _NCONF_new                 004e8540 f   libcrypto:conf_lib.obj
 0001:000e7580       _DSO_bind_func             004e8580 f   libcrypto:dso_lib.obj
 0001:000e7600       _DSO_convert_filename      004e8600 f   libcrypto:dso_lib.obj
 0001:000e76b0       _DSO_ctrl                  004e86b0 f   libcrypto:dso_lib.obj
 0001:000e7740       _DSO_dsobyaddr             004e8740 f   libcrypto:dso_lib.obj
 0001:000e7820       _DSO_free                  004e8820 f   libcrypto:dso_lib.obj
 0001:000e7900       _DSO_load                  004e8900 f   libcrypto:dso_lib.obj
 0001:000e79e0       _DSO_merge                 004e89e0 f   libcrypto:dso_lib.obj
 0001:000e7a40       _DSO_new                   004e8a40 f   libcrypto:dso_lib.obj
 0001:000e7b30       _DSO_set_filename          004e8b30 f   libcrypto:dso_lib.obj
 0001:000e7bf0       _ASN1_add_oid_module       004e8bf0 f   libcrypto:asn_moid.obj
 0001:000e7dd0       _ASN1_add_stable_module    004e8dd0 f   libcrypto:asn_mstbl.obj
 0001:000e81d0       _EVP_add_alg_module        004e91d0 f   libcrypto:evp_cnf.obj
 0001:000e8330       _ENGINE_add_conf_module    004e9330 f   libcrypto:eng_cnf.obj
 0001:000e8870       _ASN1_TYPE_cmp             004e9870 f   libcrypto:a_type.obj
 0001:000e88c0       _ASN1_TYPE_get             004e98c0 f   libcrypto:a_type.obj
 0001:000e88e0       _ASN1_TYPE_pack_sequence   004e98e0 f   libcrypto:a_type.obj
 0001:000e8970       _ASN1_TYPE_set             004e9970 f   libcrypto:a_type.obj
 0001:000e89b0       _ASN1_TYPE_set1            004e99b0 f   libcrypto:a_type.obj
 0001:000e8a60       _ASN1_TYPE_unpack_sequence 004e9a60 f   libcrypto:a_type.obj
 0001:000e8a90       _X509V3_NAME_from_section  004e9a90 f   libcrypto:v3_utl.obj
 0001:000e8b40       _X509V3_add_value          004e9b40 f   libcrypto:v3_utl.obj
 0001:000e8c20       _X509V3_add_value_bool     004e9c20 f   libcrypto:v3_utl.obj
 0001:000e8c50       _X509V3_add_value_int      004e9c50 f   libcrypto:v3_utl.obj
 0001:000e8cd0       _X509V3_add_value_uchar    004e9cd0 f   libcrypto:v3_utl.obj
 0001:000e8ce0       _X509V3_conf_free          004e9ce0 f   libcrypto:v3_utl.obj
 0001:000e8d30       _X509V3_get_value_bool     004e9d30 f   libcrypto:v3_utl.obj
 0001:000e9010       _X509V3_get_value_int      004ea010 f   libcrypto:v3_utl.obj
 0001:000e9060       _X509V3_parse_list         004ea060 f   libcrypto:v3_utl.obj
 0001:000e9230       _X509_check_email          004ea230 f   libcrypto:v3_utl.obj
 0001:000e92a0       _X509_check_host           004ea2a0 f   libcrypto:v3_utl.obj
 0001:000e9320       _X509_check_ip             004ea320 f   libcrypto:v3_utl.obj
 0001:000e9350       _a2i_IPADDRESS             004ea350 f   libcrypto:v3_utl.obj
 0001:000e9400       _a2i_IPADDRESS_NC          004ea400 f   libcrypto:v3_utl.obj
 0001:000e9530       _a2i_ipadd                 004ea530 f   libcrypto:v3_utl.obj
 0001:000e9ab0       _i2s_ASN1_ENUMERATED       004eaab0 f   libcrypto:v3_utl.obj
 0001:000e9b10       _i2s_ASN1_INTEGER          004eab10 f   libcrypto:v3_utl.obj
 0001:000e9e70       _name_cmp                  004eae70 f   libcrypto:v3_utl.obj
 0001:000e9ec0       _s2i_ASN1_INTEGER          004eaec0 f   libcrypto:v3_utl.obj
 0001:000ea2b0       _PROXY_POLICY_it           004eb2b0 f   libcrypto:v3_pcia.obj
 0001:000ea2c0       _PROXY_CERT_INFO_EXTENSION_free 004eb2c0 f   libcrypto:v3_pcia.obj
 0001:000ea2e0       _PROXY_CERT_INFO_EXTENSION_it 004eb2e0 f   libcrypto:v3_pcia.obj
 0001:000ea2f0       _PROXY_CERT_INFO_EXTENSION_new 004eb2f0 f   libcrypto:v3_pcia.obj
 0001:000ea300       _BASIC_CONSTRAINTS_it      004eb300 f   libcrypto:v3_bcons.obj
 0001:000ea4a0       _BASIC_CONSTRAINTS_free    004eb4a0 f   libcrypto:v3_bcons.obj
 0001:000ea4c0       _OPENSSL_LH_delete         004eb4c0 f   libcrypto:lhash.obj
 0001:000ea530       _OPENSSL_LH_doall          004eb530 f   libcrypto:lhash.obj
 0001:000ea550       _OPENSSL_LH_doall_arg      004eb550 f   libcrypto:lhash.obj
 0001:000ea570       _OPENSSL_LH_error          004eb570 f   libcrypto:lhash.obj
 0001:000ea580       _OPENSSL_LH_free           004eb580 f   libcrypto:lhash.obj
 0001:000ea5f0       _OPENSSL_LH_insert         004eb5f0 f   libcrypto:lhash.obj
 0001:000ea680       _OPENSSL_LH_new            004eb680 f   libcrypto:lhash.obj
 0001:000ea710       _OPENSSL_LH_num_items      004eb710 f   libcrypto:lhash.obj
 0001:000ea720       _OPENSSL_LH_retrieve       004eb720 f   libcrypto:lhash.obj
 0001:000ea750       _OPENSSL_LH_strhash        004eb750 f   libcrypto:lhash.obj
 0001:000eaa20       _PKCS8_PRIV_KEY_INFO_free  004eba20 f   libcrypto:p8_pkey.obj
 0001:000eaa40       _PKCS8_PRIV_KEY_INFO_it    004eba40 f   libcrypto:p8_pkey.obj
 0001:000eaa50       _PKCS8_pkey_get0           004eba50 f   libcrypto:p8_pkey.obj
 0001:000eaaa0       _PKCS8_pkey_set0           004ebaa0 f   libcrypto:p8_pkey.obj
 0001:000eab00       _d2i_PKCS8_PRIV_KEY_INFO   004ebb00 f   libcrypto:p8_pkey.obj
 0001:000eabd0       _PKCS7_ISSUER_AND_SERIAL_it 004ebbd0 f   libcrypto:pk7_asn1.obj
 0001:000eac00       _PKCS7_SIGNER_INFO_it      004ebc00 f   libcrypto:pk7_asn1.obj
 0001:000eac10       _PKCS7_RECIP_INFO_it       004ebc10 f   libcrypto:pk7_asn1.obj
 0001:000eac20       _PKCS7_SIGNED_it           004ebc20 f   libcrypto:pk7_asn1.obj
 0001:000eac30       _PKCS7_ENC_CONTENT_it      004ebc30 f   libcrypto:pk7_asn1.obj
 0001:000eac40       _PKCS7_ENVELOPE_it         004ebc40 f   libcrypto:pk7_asn1.obj
 0001:000eac50       _PKCS7_SIGN_ENVELOPE_it    004ebc50 f   libcrypto:pk7_asn1.obj
 0001:000eac60       _PKCS7_DIGEST_it           004ebc60 f   libcrypto:pk7_asn1.obj
 0001:000eac70       _PKCS7_ENCRYPT_it          004ebc70 f   libcrypto:pk7_asn1.obj
 0001:000eac80       _PKCS7_it                  004ebc80 f   libcrypto:pk7_asn1.obj
 0001:000eac90       _PKCS7_ATTR_SIGN_it        004ebc90 f   libcrypto:pk7_asn1.obj
 0001:000eaca0       _PKCS7_free                004ebca0 f   libcrypto:pk7_asn1.obj
 0001:000eacc0       _X509_SIG_free             004ebcc0 f   libcrypto:x_sig.obj
 0001:000eace0       _DSA_SIG_get0              004ebce0 f   libcrypto:dsa_asn1.obj
 0001:000eace0       _X509_SIG_get0             004ebce0 f   libcrypto:x_sig.obj
 0001:000ead00       _X509_SIG_it               004ebd00 f   libcrypto:x_sig.obj
 0001:000ead10       _d2i_X509_SIG              004ebd10 f   libcrypto:x_sig.obj
 0001:000ead30       _i2d_X509_SIG              004ebd30 f   libcrypto:x_sig.obj
 0001:000ead50       _EVP_CIPHER_CTX_copy       004ebd50 f   libcrypto:evp_enc.obj
 0001:000eae70       _EVP_CIPHER_CTX_ctrl       004ebe70 f   libcrypto:evp_enc.obj
 0001:000eaf00       _EVP_CIPHER_CTX_free       004ebf00 f   libcrypto:evp_enc.obj
 0001:000eaf20       _EVP_CIPHER_CTX_new        004ebf20 f   libcrypto:evp_enc.obj
 0001:000eaf40       _EVP_CIPHER_CTX_rand_key   004ebf40 f   libcrypto:evp_enc.obj
 0001:000eaf80       _EVP_CIPHER_CTX_reset      004ebf80 f   libcrypto:evp_enc.obj
 0001:000eaff0       _EVP_CIPHER_CTX_set_key_length 004ebff0 f   libcrypto:evp_enc.obj
 0001:000eb050       _EVP_CIPHER_CTX_set_padding 004ec050 f   libcrypto:evp_enc.obj
 0001:000eb080       _EVP_CipherFinal_ex        004ec080 f   libcrypto:evp_enc.obj
 0001:000eb0a0       _EVP_CipherInit_ex         004ec0a0 f   libcrypto:evp_enc.obj
 0001:000eb390       _EVP_CipherUpdate          004ec390 f   libcrypto:evp_enc.obj
 0001:000eb3b0       _EVP_DecryptFinal          004ec3b0 f   libcrypto:evp_enc.obj
 0001:000eb3c0       _EVP_DecryptFinal_ex       004ec3c0 f   libcrypto:evp_enc.obj
 0001:000eb520       _EVP_DecryptInit_ex        004ec520 f   libcrypto:evp_enc.obj
 0001:000eb540       _EVP_DecryptUpdate         004ec540 f   libcrypto:evp_enc.obj
 0001:000eb720       _EVP_EncryptFinal          004ec720 f   libcrypto:evp_enc.obj
 0001:000eb730       _EVP_EncryptFinal_ex       004ec730 f   libcrypto:evp_enc.obj
 0001:000eb820       _EVP_EncryptInit_ex        004ec820 f   libcrypto:evp_enc.obj
 0001:000eb840       _EVP_EncryptUpdate         004ec840 f   libcrypto:evp_enc.obj
 0001:000ebaa0       _is_partially_overlapping  004ecaa0 f   libcrypto:evp_enc.obj
 0001:000ebae0       _PBEPARAM_free             004ecae0 f   libcrypto:p5_pbe.obj
 0001:000ebb00       _PBEPARAM_it               004ecb00 f   libcrypto:p5_pbe.obj
 0001:000ebb10       _PKCS12_key_gen_uni        004ecb10 f   libcrypto:p12_key.obj
 0001:000ebfc0       _PKCS12_key_gen_utf8       004ecfc0 f   libcrypto:p12_key.obj
 0001:000ec070       _EVP_PKCS82PKEY            004ed070 f   libcrypto:evp_pkey.obj
 0001:000ec1a0       _PKCS12_SAFEBAG_get0_attr  004ed1a0 f   libcrypto:p12_sbag.obj
 0001:000ec1c0       _PKCS12_SAFEBAG_get0_p8inf 004ed1c0 f   libcrypto:p12_sbag.obj
 0001:000ec1e0       _PKCS12_SAFEBAG_get0_safes 004ed1e0 f   libcrypto:p12_sbag.obj
 0001:000ec200       _PKCS12_SAFEBAG_get1_cert  004ed200 f   libcrypto:p12_sbag.obj
 0001:000ec250       _PKCS12_SAFEBAG_get_bag_nid 004ed250 f   libcrypto:p12_sbag.obj
 0001:000ec290       _PKCS12_SAFEBAG_get_nid    004ed290 f   libcrypto:p12_sbag.obj
 0001:000ec2a0       _PKCS12_decrypt_skey       004ed2a0 f   libcrypto:p12_add.obj
 0001:000ec2c0       _PKCS12_unpack_authsafes   004ed2c0 f   libcrypto:p12_add.obj
 0001:000ec310       _PKCS12_unpack_p7data      004ed310 f   libcrypto:p12_add.obj
 0001:000ec360       _PKCS12_unpack_p7encdata   004ed360 f   libcrypto:p12_add.obj
 0001:000ec3b0       _PKCS12_verify_mac         004ed3b0 f   libcrypto:p12_mutl.obj
 0001:000ec7a0       _ASN1_d2i_bio              004ed7a0 f   libcrypto:a_d2i_fp.obj
 0001:000ec800       _ASN1_item_d2i_bio         004ed800 f   libcrypto:a_d2i_fp.obj
 0001:000ecb10       _ASN1_item_pack            004edb10 f   libcrypto:asn_pack.obj
 0001:000ecbd0       _ASN1_item_unpack          004edbd0 f   libcrypto:asn_pack.obj
 0001:000ecc20       _OCSP_id_issuer_cmp        004edc20 f   libcrypto:ocsp_lib.obj
 0001:000ecfd0       _ACCESS_DESCRIPTION_it     004edfd0 f   libcrypto:v3_info.obj
 0001:000ecfe0       _AUTHORITY_INFO_ACCESS_it  004edfe0 f   libcrypto:v3_info.obj
 0001:000ecff0       _ACCESS_DESCRIPTION_free   004edff0 f   libcrypto:v3_info.obj
 0001:000ed010       _i2a_ASN1_INTEGER          004ee010 f   libcrypto:f_int.obj
 0001:000ed110       _i2a_ASN1_STRING           004ee110 f   libcrypto:f_string.obj
 0001:000ed450       _i2v_GENERAL_NAMES         004ee450 f   libcrypto:v3_alt.obj
 0001:000ed730       _GENERAL_NAME_print        004ee730 f   libcrypto:v3_alt.obj
 0001:000ed910       _a2i_GENERAL_NAME          004ee910 f   libcrypto:v3_alt.obj
 0001:000ede90       _i2v_GENERAL_NAME          004eee90 f   libcrypto:v3_alt.obj
 0001:000ee120       _v2i_GENERAL_NAME          004ef120 f   libcrypto:v3_alt.obj
 0001:000ee140       _v2i_GENERAL_NAMES         004ef140 f   libcrypto:v3_alt.obj
 0001:000ee1d0       _v2i_GENERAL_NAME_ex       004ef1d0 f   libcrypto:v3_alt.obj
 0001:000ee2f0       _EVP_add_cipher            004ef2f0 f   libcrypto:names.obj
 0001:000ee330       _EVP_add_digest            004ef330 f   libcrypto:names.obj
 0001:000ee3c0       _EVP_get_cipherbyname      004ef3c0 f   libcrypto:names.obj
 0001:000ee3f0       _EVP_get_digestbyname      004ef3f0 f   libcrypto:names.obj
 0001:000ee420       _evp_cleanup_int           004ef420 f   libcrypto:names.obj
 0001:000ee450       _ASN1_item_verify          004ef450 f   libcrypto:a_verify.obj
 0001:000ee860       _X509_TRUST_get_by_id      004ef860 f   libcrypto:x509_trs.obj
 0001:000ee8b0       _X509_check_trust          004ef8b0 f   libcrypto:x509_trs.obj
 0001:000ee9a0       _ENGINE_get_pkey_meth      004ef9a0 f   libcrypto:tb_pkmeth.obj
 0001:000ee9e0       _ENGINE_get_pkey_meth_engine 004ef9e0 f   libcrypto:tb_pkmeth.obj
 0001:000eea00       _ENGINE_register_pkey_meths 004efa00 f   libcrypto:tb_pkmeth.obj
 0001:000eea50       _ENGINE_set_default_pkey_meths 004efa50 f   libcrypto:tb_pkmeth.obj
 0001:000eeaa0       _engine_pkey_meths_free    004efaa0 f   libcrypto:tb_pkmeth.obj
 0001:000eeb20       _ENGINE_get_pkey_asn1_meth 004efb20 f   libcrypto:tb_asnmth.obj
 0001:000eeb60       _ENGINE_get_pkey_asn1_meth_engine 004efb60 f   libcrypto:tb_asnmth.obj
 0001:000eeb80       _ENGINE_pkey_asn1_find_str 004efb80 f   libcrypto:tb_asnmth.obj
 0001:000eec40       _ENGINE_set_default_pkey_asn1_meths 004efc40 f   libcrypto:tb_asnmth.obj
 0001:000eec90       _engine_pkey_asn1_meths_free 004efc90 f   libcrypto:tb_asnmth.obj
 0001:000eedc0       _ENGINE_get_default_EC     004efdc0 f   libcrypto:tb_eckey.obj
 0001:000eedd0       _ENGINE_register_EC        004efdd0 f   libcrypto:tb_eckey.obj
 0001:000eee00       _ENGINE_set_default_EC     004efe00 f   libcrypto:tb_eckey.obj
 0001:000eee40       _ENGINE_get_cipher         004efe40 f   libcrypto:tb_cipher.obj
 0001:000eee90       _ENGINE_get_cipher_engine  004efe90 f   libcrypto:tb_cipher.obj
 0001:000eeeb0       _ENGINE_register_ciphers   004efeb0 f   libcrypto:tb_cipher.obj
 0001:000eef00       _ENGINE_set_ciphers        004eff00 f   libcrypto:tb_cipher.obj
 0001:000eef00       _DSA_meth_set_finish       004eff00 f   libcrypto:dsa_meth.obj
 0001:000eef20       _ENGINE_set_default_ciphers 004eff20 f   libcrypto:tb_cipher.obj
 0001:000eef80       _DES_decrypt3              004eff80 f   libcrypto:des_enc.obj
 0001:000ef090       _DES_ede3_cbc_encrypt      004f0090 f   libcrypto:des_enc.obj
 0001:000ef5d0       _DES_encrypt1              004f05d0 f   libcrypto:des_enc.obj
 0001:000f0600       _DES_encrypt2              004f1600 f   libcrypto:des_enc.obj
 0001:000f1570       _DES_encrypt3              004f2570 f   libcrypto:des_enc.obj
 0001:000f1680       _DES_ncbc_encrypt          004f2680 f   libcrypto:des_enc.obj
 0001:000f1b90       _BN_lshift                 004f2b90 f   libcrypto:bn_shift.obj
 0001:000f1cc0       _BN_lshift1                004f2cc0 f   libcrypto:bn_shift.obj
 0001:000f1d50       _BN_rshift                 004f2d50 f   libcrypto:bn_shift.obj
 0001:000f1ed0       _BN_rshift1                004f2ed0 f   libcrypto:bn_shift.obj
 0001:000f1fb0       _openssl_add_all_ciphers_int 004f2fb0 f   libcrypto:c_allc.obj
 0001:000f27d0       _openssl_add_all_digests_int 004f37d0 f   libcrypto:c_alld.obj
 0001:000f28d0       _openssl_config_int        004f38d0 f   libcrypto:conf_sap.obj
 0001:000f2910       _openssl_no_config_int     004f3910 f   libcrypto:conf_sap.obj
 0001:000f2920       _ASYNC_block_pause         004f3920 f   libcrypto:async.obj
 0001:000f2950       _ASYNC_cleanup_thread      004f3950 f   libcrypto:async.obj
 0001:000f29a0       _ASYNC_get_current_job     004f39a0 f   libcrypto:async.obj
 0001:000f29d0       _ASYNC_init_thread         004f39d0 f   libcrypto:async.obj
 0001:000f2b60       _ASYNC_start_job           004f3b60 f   libcrypto:async.obj
 0001:000f2da0       _ASYNC_unblock_pause       004f3da0 f   libcrypto:async.obj
 0001:000f2eb0       _async_deinit              004f3eb0 f   libcrypto:async.obj
 0001:000f2f80       _async_get_ctx             004f3f80 f   libcrypto:async.obj
 0001:000f3070       _async_init                004f4070 f   libcrypto:async.obj
 0001:000f30f0       _async_start_func          004f40f0 f   libcrypto:async.obj
 0001:000f3230       _engine_load_openssl_int   004f4230 f   libcrypto:eng_openssl.obj
 0001:000f3ed0       _engine_load_dynamic_int   004f4ed0 f   libcrypto:eng_dyn.obj
 0001:000f5360       _capi_find_key             004f6360 f   libcrypto:e_capi.obj
 0001:000f54f0       _capi_free_key             004f64f0 f   libcrypto:e_capi.obj
 0001:000f62e0       _capi_list_certs           004f72e0 f   libcrypto:e_capi.obj
 0001:000f7350       _engine_load_capi_int      004f8350 f   libcrypto:e_capi.obj
 0001:000f7500       _COMP_zlib                 004f8500 f   libcrypto:c_zlib.obj
 0001:000f7510       _err_load_crypto_strings_int 004f8510 f   libcrypto:err_all.obj
 0001:000f78a0       _BIO_s_socket              004f88a0 f   libcrypto:bss_sock.obj
 0001:000f78b0       _BIO_sock_non_fatal_error  004f88b0 f   libcrypto:bss_sock.obj
 0001:000f7970       _BIO_sock_should_retry     004f8970 f   libcrypto:bss_sock.obj
 0001:000f7990       _BIO_closesocket           004f8990 f   libcrypto:b_sock2.obj
 0001:000f79b0       _BIO_connect               004f89b0 f   libcrypto:b_sock2.obj
 0001:000f7b10       _BIO_socket                004f8b10 f   libcrypto:b_sock2.obj
 0001:000f7b70       _CRYPTO_secure_free        004f8b70 f   libcrypto:mem_sec.obj
 0001:000f7b80       _CRYPTO_secure_malloc      004f8b80 f   libcrypto:mem_sec.obj
 0001:000f7b90       _CRYPTO_secure_zalloc      004f8b90 f   libcrypto:mem_sec.obj
 0001:000f7bc0       _BN_MONT_CTX_copy          004f8bc0 f   libcrypto:bn_mont.obj
 0001:000f7c30       _BN_MONT_CTX_free          004f8c30 f   libcrypto:bn_mont.obj
 0001:000f7c80       _BN_MONT_CTX_new           004f8c80 f   libcrypto:bn_mont.obj
 0001:000f7ce0       _BN_MONT_CTX_set           004f8ce0 f   libcrypto:bn_mont.obj
 0001:000f7e80       _BN_MONT_CTX_set_locked    004f8e80 f   libcrypto:bn_mont.obj
 0001:000f7f10       _BN_from_montgomery        004f8f10 f   libcrypto:bn_mont.obj
 0001:000f81c0       _BN_mod_mul_montgomery     004f91c0 f   libcrypto:bn_mont.obj
 0001:000f8230       _bn_add_words              004f9230 f   libcrypto:bn_asm.obj
 0001:000f8320       _bn_div_words              004f9320 f   libcrypto:bn_asm.obj
 0001:000f8340       _bn_mul_add_words          004f9340 f   libcrypto:bn_asm.obj
 0001:000f8400       _bn_mul_comba4             004f9400 f   libcrypto:bn_asm.obj
 0001:000f85e0       _bn_mul_comba8             004f95e0 f   libcrypto:bn_asm.obj
 0001:000f8d30       _bn_mul_words              004f9d30 f   libcrypto:bn_asm.obj
 0001:000f8de0       _bn_sqr_comba4             004f9de0 f   libcrypto:bn_asm.obj
 0001:000f8f80       _bn_sqr_comba8             004f9f80 f   libcrypto:bn_asm.obj
 0001:000f9600       _bn_sqr_words              004fa600 f   libcrypto:bn_asm.obj
 0001:000f9680       _bn_sub_words              004fa680 f   libcrypto:bn_asm.obj
 0001:000f9780       _asn1_do_adb               004fa780 f   libcrypto:tasn_utl.obj
 0001:000f9840       _asn1_do_lock              004fa840 f   libcrypto:tasn_utl.obj
 0001:000f98f0       _asn1_enc_free             004fa8f0 f   libcrypto:tasn_utl.obj
 0001:000f9940       _asn1_enc_init             004fa940 f   libcrypto:tasn_utl.obj
 0001:000f9980       _asn1_enc_restore          004fa980 f   libcrypto:tasn_utl.obj
 0001:000f99f0       _asn1_enc_save             004fa9f0 f   libcrypto:tasn_utl.obj
 0001:000f9a70       _asn1_get_choice_selector  004faa70 f   libcrypto:tasn_utl.obj
 0001:000f9a90       _asn1_get_field_ptr        004faa90 f   libcrypto:tasn_utl.obj
 0001:000f9aa0       _asn1_set_choice_selector  004faaa0 f   libcrypto:tasn_utl.obj
 0001:000f9ac0       _ASN1_BIT_STRING_get_bit   004faac0 f   libcrypto:a_bitstr.obj
 0001:000f9b10       _ASN1_BIT_STRING_set_bit   004fab10 f   libcrypto:a_bitstr.obj
 0001:000f9c10       _c2i_ASN1_BIT_STRING       004fac10 f   libcrypto:a_bitstr.obj
 0001:000f9d30       _i2c_ASN1_BIT_STRING       004fad30 f   libcrypto:a_bitstr.obj
 0001:000f9e00       _ASN1_TYPE_get_int_octetstring 004fae00 f   libcrypto:evp_asn1.obj
 0001:000f9ea0       _ASN1_TYPE_get_octetstring 004faea0 f   libcrypto:evp_asn1.obj
 0001:000f9f00       _ASN1_TYPE_set_int_octetstring 004faf00 f   libcrypto:evp_asn1.obj
 0001:000f9f60       _ASN1_TYPE_set_octetstring 004faf60 f   libcrypto:evp_asn1.obj
 0001:000fe6a0       _engine_table_cleanup      004ff6a0 f   libcrypto:eng_table.obj
 0001:000fe6f0       _engine_table_doall        004ff6f0 f   libcrypto:eng_table.obj
 0001:000fe730       _engine_table_register     004ff730 f   libcrypto:eng_table.obj
 0001:000fe8c0       _engine_table_select       004ff8c0 f   libcrypto:eng_table.obj
 0001:000ff190       _DHparams_dup              00500190 f   libcrypto:dh_ameth.obj
 0001:00103620       _BN_generate_dsa_nonce     00504620 f   libcrypto:bn_rand.obj
 0001:00103840       _BN_pseudo_rand            00504840 f   libcrypto:bn_rand.obj
 0001:00103860       _BN_pseudo_rand_range      00504860 f   libcrypto:bn_rand.obj
 0001:00103880       _BN_rand                   00504880 f   libcrypto:bn_rand.obj
 0001:001038a0       _BN_rand_range             005048a0 f   libcrypto:bn_rand.obj
 0001:00103c20       _EC_GROUP_new_by_curve_name 00504c20 f   libcrypto:ec_curve.obj
 0001:00104000       _EC_curve_nid2nist         00505000 f   libcrypto:ec_curve.obj
 0001:00104020       _EC_curve_nist2nid         00505020 f   libcrypto:ec_curve.obj
 0001:00104080       _EC_POINT_oct2point        00505080 f   libcrypto:ec_oct.obj
 0001:00104110       _EC_POINT_point2buf        00505110 f   libcrypto:ec_oct.obj
 0001:00104190       _EC_POINT_point2oct        00505190 f   libcrypto:ec_oct.obj
 0001:00104220       _EC_POINT_set_compressed_coordinates_GF2m 00505220 f   libcrypto:ec_oct.obj
 0001:001042c0       _EC_POINT_set_compressed_coordinates_GFp 005052c0 f   libcrypto:ec_oct.obj
 0001:00104350       _ECDH_compute_key          00505350 f   libcrypto:ec_kmeth.obj
 0001:00104440       _EC_KEY_OpenSSL            00505440 f   libcrypto:ec_kmeth.obj
 0001:00104450       _EC_KEY_new_method         00505450 f   libcrypto:ec_kmeth.obj
 0001:00104580       _BN_mod_add                00505580 f   libcrypto:bn_mod.obj
 0001:001045f0       _BN_mod_add_quick          005055f0 f   libcrypto:bn_mod.obj
 0001:00104640       _BN_mod_lshift1_quick      00505640 f   libcrypto:bn_mod.obj
 0001:00104680       _BN_mod_lshift_quick       00505680 f   libcrypto:bn_mod.obj
 0001:00104740       _BN_mod_mul                00505740 f   libcrypto:bn_mod.obj
 0001:001047c0       _BN_mod_sqr                005057c0 f   libcrypto:bn_mod.obj
 0001:00104800       _BN_mod_sub                00505800 f   libcrypto:bn_mod.obj
 0001:00104870       _BN_mod_sub_quick          00505870 f   libcrypto:bn_mod.obj
 0001:001048b0       _BN_nnmod                  005058b0 f   libcrypto:bn_mod.obj
 0001:00104900       _BN_mod_exp                00505900 f   libcrypto:bn_exp.obj
 0001:00104990       _BN_mod_exp_mont           00505990 f   libcrypto:bn_exp.obj
 0001:00104f00       _BN_mod_exp_mont_consttime 00505f00 f   libcrypto:bn_exp.obj
 0001:001054c0       _BN_mod_exp_mont_word      005064c0 f   libcrypto:bn_exp.obj
 0001:00105860       _BN_mod_exp_recp           00506860 f   libcrypto:bn_exp.obj
 0001:00105e70       _BN_div                    00506e70 f   libcrypto:bn_div.obj
 0001:00106360       _RSA_padding_add_PKCS1_type_1 00507360 f   libcrypto:rsa_pk1.obj
 0001:001063d0       _RSA_padding_add_PKCS1_type_2 005073d0 f   libcrypto:rsa_pk1.obj
 0001:00106470       _RSA_padding_check_PKCS1_type_1 00507470 f   libcrypto:rsa_pk1.obj
 0001:00106590       _RSA_padding_check_PKCS1_type_2 00507590 f   libcrypto:rsa_pk1.obj
 0001:00106720       _PKCS1_MGF1                00507720 f   libcrypto:rsa_oaep.obj
 0001:00106880       _RSA_padding_add_PKCS1_OAEP 00507880 f   libcrypto:rsa_oaep.obj
 0001:001068b0       _RSA_padding_add_PKCS1_OAEP_mgf1 005078b0 f   libcrypto:rsa_oaep.obj
 0001:00106c30       _RSA_padding_check_PKCS1_OAEP 00507c30 f   libcrypto:rsa_oaep.obj
 0001:00106c60       _RSA_padding_check_PKCS1_OAEP_mgf1 00507c60 f   libcrypto:rsa_oaep.obj
 0001:001070b0       _RSA_padding_add_SSLv23    005080b0 f   libcrypto:rsa_ssl.obj
 0001:00107160       _RSA_padding_check_SSLv23  00508160 f   libcrypto:rsa_ssl.obj
 0001:00107260       _RSA_padding_add_none      00508260 f   libcrypto:rsa_none.obj
 0001:001072c0       _RSA_padding_check_none    005082c0 f   libcrypto:rsa_none.obj
 0001:00107320       _RSA_X931_hash_id          00508320 f   libcrypto:rsa_x931.obj
 0001:00107360       _RSA_padding_add_X931      00508360 f   libcrypto:rsa_x931.obj
 0001:001073e0       _RSA_padding_check_X931    005083e0 f   libcrypto:rsa_x931.obj
 0001:001074d0       _DH_check_params           005084d0 f   libcrypto:dh_check.obj
 0001:001075b0       _DH_check_pub_key          005085b0 f   libcrypto:dh_check.obj
 0001:00107690       _BN_mod_exp2_mont          00508690 f   libcrypto:bn_exp2.obj
 0001:00107d70       _DSA_SIG_free              00508d70 f   libcrypto:dsa_asn1.obj
 0001:00107da0       _DSA_SIG_new               00508da0 f   libcrypto:dsa_asn1.obj
 0001:00107de0       _DSA_SIG_set0              00508de0 f   libcrypto:dsa_asn1.obj
 0001:00107e20       _DSA_sign                  00508e20 f   libcrypto:dsa_asn1.obj
 0001:00107e90       _DSA_verify                00508e90 f   libcrypto:dsa_asn1.obj
 0001:00107ff0       _d2i_DSAPrivateKey         00508ff0 f   libcrypto:dsa_asn1.obj
 0001:00108010       _d2i_DSA_SIG               00509010 f   libcrypto:dsa_asn1.obj
 0001:00108030       _d2i_DSAparams             00509030 f   libcrypto:dsa_asn1.obj
 0001:00108050       _i2d_DSAPrivateKey         00509050 f   libcrypto:dsa_asn1.obj
 0001:00108070       _i2d_DSAparams             00509070 f   libcrypto:dsa_asn1.obj
 0001:00108090       _X509_policy_check         00509090 f   libcrypto:pcy_tree.obj
 0001:001081d0       _X509_policy_tree_free     005091d0 f   libcrypto:pcy_tree.obj
 0001:00108c70       _d2i_AutoPrivateKey        00509c70 f   libcrypto:d2i_pr.obj
 0001:00108d70       _d2i_PrivateKey            00509d70 f   libcrypto:d2i_pr.obj
 0001:00108f00       _ECPKPARAMETERS_it         00509f00 f   libcrypto:ec_asn1.obj
 0001:00108f10       _ECPARAMETERS_it           00509f10 f   libcrypto:ec_asn1.obj
 0001:00108f20       _ECDSA_SIG_free            00509f20 f   libcrypto:ec_asn1.obj
 0001:00108f50       _ECDSA_SIG_new             00509f50 f   libcrypto:ec_asn1.obj
 0001:00108f90       _ECDSA_size                00509f90 f   libcrypto:ec_asn1.obj
 0001:00109010       _EC_GROUP_get_basis_type   0050a010 f   libcrypto:ec_asn1.obj
 0001:00109060       _EC_GROUP_get_ecparameters 0050a060 f   libcrypto:ec_asn1.obj
 0001:00109230       _EC_GROUP_get_ecpkparameters 0050a230 f   libcrypto:ec_asn1.obj
 0001:00109300       _EC_GROUP_get_pentanomial_basis 0050a300 f   libcrypto:ec_asn1.obj
 0001:00109390       _EC_GROUP_get_trinomial_basis 0050a390 f   libcrypto:ec_asn1.obj
 0001:001093f0       _EC_GROUP_new_from_ecparameters 0050a3f0 f   libcrypto:ec_asn1.obj
 0001:00109a10       _EC_GROUP_new_from_ecpkparameters 0050aa10 f   libcrypto:ec_asn1.obj
 0001:00109af0       _EC_PRIVATEKEY_free        0050aaf0 f   libcrypto:ec_asn1.obj
 0001:00109b10       _d2i_ECDSA_SIG             0050ab10 f   libcrypto:ec_asn1.obj
 0001:00109b30       _d2i_ECPKParameters        0050ab30 f   libcrypto:ec_asn1.obj
 0001:00109c00       _d2i_ECParameters          0050ac00 f   libcrypto:ec_asn1.obj
 0001:00109cd0       _d2i_ECPrivateKey          0050acd0 f   libcrypto:ec_asn1.obj
 0001:0010a410       _i2d_ECDSA_SIG             0050b410 f   libcrypto:ec_asn1.obj
 0001:0010a430       _i2d_ECPKParameters        0050b430 f   libcrypto:ec_asn1.obj
 0001:0010a4c0       _i2d_ECParameters          0050b4c0 f   libcrypto:ec_asn1.obj
 0001:0010a500       _i2d_ECPrivateKey          0050b500 f   libcrypto:ec_asn1.obj
 0001:0010a6d0       _i2d_EC_PRIVATEKEY         0050b6d0 f   libcrypto:ec_asn1.obj
 0001:0010a6f0       _i2o_ECPublicKey           0050b6f0 f   libcrypto:ec_asn1.obj
 0001:0010a800       _o2i_ECPublicKey           0050b800 f   libcrypto:ec_asn1.obj
 0001:0010a8d0       _RSA_OAEP_PARAMS_free      0050b8d0 f   libcrypto:rsa_asn1.obj
 0001:0010a8f0       _RSA_OAEP_PARAMS_it        0050b8f0 f   libcrypto:rsa_asn1.obj
 0001:0010a900       _RSA_OAEP_PARAMS_new       0050b900 f   libcrypto:rsa_asn1.obj
 0001:0010a910       _RSA_PSS_PARAMS_free       0050b910 f   libcrypto:rsa_asn1.obj
 0001:0010a930       _RSA_PSS_PARAMS_it         0050b930 f   libcrypto:rsa_asn1.obj
 0001:0010a940       _RSA_PSS_PARAMS_new        0050b940 f   libcrypto:rsa_asn1.obj
 0001:0010a950       _d2i_RSAPrivateKey         0050b950 f   libcrypto:rsa_asn1.obj
 0001:0010a970       _d2i_RSAPublicKey          0050b970 f   libcrypto:rsa_asn1.obj
 0001:0010a990       _i2d_RSAPrivateKey         0050b990 f   libcrypto:rsa_asn1.obj
 0001:0010a9b0       _i2d_RSAPublicKey          0050b9b0 f   libcrypto:rsa_asn1.obj
 0001:0010a9d0       _X509_REQ_INFO_it          0050b9d0 f   libcrypto:x_req.obj
 0001:0010aa10       _NETSCAPE_SPKAC_it         0050ba10 f   libcrypto:x_spki.obj
 0001:0010aa20       _ASN1_item_digest          0050ba20 f   libcrypto:a_digest.obj
 0001:0010aaa0       _X509_PKEY_free            0050baa0 f   libcrypto:x_pkey.obj
 0001:0010aaf0       _X509_PKEY_new             0050baf0 f   libcrypto:x_pkey.obj
 0001:0010abf0       _d2i_DHparams              0050bbf0 f   libcrypto:dh_asn1.obj
 0001:0010ac10       _d2i_DHxparams             0050bc10 f   libcrypto:dh_asn1.obj
 0001:0010ace0       _i2d_DHparams              0050bce0 f   libcrypto:dh_asn1.obj
 0001:0010ad00       _i2d_DHxparams             0050bd00 f   libcrypto:dh_asn1.obj
 0001:0010adc0       _PEM_read_bio_DHparams     0050bdc0 f   libcrypto:pem_pkey.obj
 0001:0010aec0       _PEM_read_bio_PrivateKey   0050bec0 f   libcrypto:pem_pkey.obj
 0001:0010b1a0       _X509V3_get_section        0050c1a0 f   libcrypto:v3_conf.obj
 0001:0010b1e0       _X509V3_section_free       0050c1e0 f   libcrypto:v3_conf.obj
 0001:0010b5c0       _CERTIFICATEPOLICIES_it    0050c5c0 f   libcrypto:v3_cpols.obj
 0001:0010b5d0       _POLICYINFO_it             0050c5d0 f   libcrypto:v3_cpols.obj
 0001:0010b5e0       _POLICYQUALINFO_it         0050c5e0 f   libcrypto:v3_cpols.obj
 0001:0010b5f0       _USERNOTICE_it             0050c5f0 f   libcrypto:v3_cpols.obj
 0001:0010b600       _NOTICEREF_it              0050c600 f   libcrypto:v3_cpols.obj
 0001:0010b620       _POLICYINFO_free           0050c620 f   libcrypto:v3_cpols.obj
 0001:0010b640       _POLICYQUALINFO_free       0050c640 f   libcrypto:v3_cpols.obj
 0001:0010bea0       _POLICY_CONSTRAINTS_it     0050cea0 f   libcrypto:v3_pcons.obj
 0001:0010c070       _POLICY_CONSTRAINTS_free   0050d070 f   libcrypto:v3_pcons.obj
 0001:0010c090       _policy_data_free          0050d090 f   libcrypto:pcy_data.obj
 0001:0010c0e0       _policy_data_new           0050d0e0 f   libcrypto:pcy_data.obj
 0001:0010c190       _policy_cache_set_mapping  0050d190 f   libcrypto:pcy_map.obj
 0001:0010c2d0       _EC_ec_pre_comp_dup        0050d2d0 f   libcrypto:ec_mult.obj
 0001:0010c300       _EC_ec_pre_comp_free       0050d300 f   libcrypto:ec_mult.obj
 0001:0010c420       _ec_wNAF_have_precompute_mult 0050d420 f   libcrypto:ec_mult.obj
 0001:0010c440       _ec_wNAF_mul               0050d440 f   libcrypto:ec_mult.obj
 0001:0010cea0       _ec_wNAF_precompute_mult   0050dea0 f   libcrypto:ec_mult.obj
 0001:0010d2c0       _v2i_ASN1_BIT_STRING       0050e2c0 f   libcrypto:v3_bitst.obj
 0001:0010d460       _i2v_ASN1_BIT_STRING       0050e460 f   libcrypto:v3_bitst.obj
 0001:0010d600       _EXTENDED_KEY_USAGE_it     0050e600 f   libcrypto:v3_extku.obj
 0001:0010d690       _PKEY_USAGE_PERIOD_it      0050e690 f   libcrypto:v3_pku.obj
 0001:0010d6a0       _SXNET_it                  0050e6a0 f   libcrypto:v3_sxnet.obj
 0001:0010d6b0       _SXNETID_it                0050e6b0 f   libcrypto:v3_sxnet.obj
 0001:0010d800       _SXNET_add_id_INTEGER      0050e800 f   libcrypto:v3_sxnet.obj
 0001:0010d990       _SXNET_get_id_INTEGER      0050e990 f   libcrypto:v3_sxnet.obj
